
target/debug/ada_adder:     file format elf64-x86-64


Disassembly of section .init:

0000000000006000 <_init>:
    6000:	f3 0f 1e fa          	endbr64 
    6004:	48 83 ec 08          	sub    $0x8,%rsp
    6008:	48 8b 05 99 9c 04 00 	mov    0x49c99(%rip),%rax        # 4fca8 <__gmon_start__>
    600f:	48 85 c0             	test   %rax,%rax
    6012:	74 02                	je     6016 <_init+0x16>
    6014:	ff d0                	callq  *%rax
    6016:	48 83 c4 08          	add    $0x8,%rsp
    601a:	c3                   	retq   

Disassembly of section .plt:

0000000000006020 <.plt>:
    6020:	ff 35 0a 99 04 00    	pushq  0x4990a(%rip)        # 4f930 <_GLOBAL_OFFSET_TABLE_+0x8>
    6026:	ff 25 0c 99 04 00    	jmpq   *0x4990c(%rip)        # 4f938 <_GLOBAL_OFFSET_TABLE_+0x10>
    602c:	0f 1f 40 00          	nopl   0x0(%rax)

0000000000006030 <__xstat64@plt>:
    6030:	ff 25 0a 99 04 00    	jmpq   *0x4990a(%rip)        # 4f940 <__xstat64@GLIBC_2.2.5>
    6036:	68 00 00 00 00       	pushq  $0x0
    603b:	e9 e0 ff ff ff       	jmpq   6020 <.plt>

0000000000006040 <__tls_get_addr@plt>:
    6040:	ff 25 02 99 04 00    	jmpq   *0x49902(%rip)        # 4f948 <__tls_get_addr@GLIBC_2.3>
    6046:	68 01 00 00 00       	pushq  $0x1
    604b:	e9 d0 ff ff ff       	jmpq   6020 <.plt>

0000000000006050 <__fxstat64@plt>:
    6050:	ff 25 fa 98 04 00    	jmpq   *0x498fa(%rip)        # 4f950 <__fxstat64@GLIBC_2.2.5>
    6056:	68 02 00 00 00       	pushq  $0x2
    605b:	e9 c0 ff ff ff       	jmpq   6020 <.plt>

0000000000006060 <_Unwind_Resume@plt>:
    6060:	ff 25 f2 98 04 00    	jmpq   *0x498f2(%rip)        # 4f958 <_Unwind_Resume@GCC_3.0>
    6066:	68 03 00 00 00       	pushq  $0x3
    606b:	e9 b0 ff ff ff       	jmpq   6020 <.plt>

Disassembly of section .plt.got:

0000000000006070 <__cxa_finalize@plt>:
    6070:	ff 25 22 9f 04 00    	jmpq   *0x49f22(%rip)        # 4ff98 <__cxa_finalize@GLIBC_2.2.5>
    6076:	66 90                	xchg   %ax,%ax

Disassembly of section .text:

0000000000006080 <_ZN4core3str7pattern13simd_contains28_$u7b$$u7b$closure$u7d$$u7d$17hd3b4163660bd8c0fE>:
    6080:	53                   	push   %rbx
    6081:	31 c0                	xor    %eax,%eax
    6083:	66 85 d2             	test   %dx,%dx
    6086:	0f 84 25 01 00 00    	je     61b1 <_ZN4core3str7pattern13simd_contains28_$u7b$$u7b$closure$u7d$$u7d$17hd3b4163660bd8c0fE+0x131>
    608c:	84 c9                	test   %cl,%cl
    608e:	0f 85 1d 01 00 00    	jne    61b1 <_ZN4core3str7pattern13simd_contains28_$u7b$$u7b$closure$u7d$$u7d$17hd3b4163660bd8c0fE+0x131>
    6094:	48 ff c6             	inc    %rsi
    6097:	4c 8b 07             	mov    (%rdi),%r8
    609a:	4c 8b 4f 10          	mov    0x10(%rdi),%r9
    609e:	4c 8b 5f 18          	mov    0x18(%rdi),%r11
    60a2:	4d 89 da             	mov    %r11,%r10
    60a5:	49 83 ea 04          	sub    $0x4,%r10
    60a9:	0f 82 bd 00 00 00    	jb     616c <_ZN4core3str7pattern13simd_contains28_$u7b$$u7b$closure$u7d$$u7d$17hd3b4163660bd8c0fE+0xec>
    60af:	4d 85 d2             	test   %r10,%r10
    60b2:	7f 6c                	jg     6120 <_ZN4core3str7pattern13simd_contains28_$u7b$$u7b$closure$u7d$$u7d$17hd3b4163660bd8c0fE+0xa0>
    60b4:	43 8b 3c 11          	mov    (%r9,%r10,1),%edi
    60b8:	66 0f bc ca          	bsf    %dx,%cx
    60bc:	0f b7 d9             	movzwl %cx,%ebx
    60bf:	48 01 f3             	add    %rsi,%rbx
    60c2:	4c 01 c3             	add    %r8,%rbx
    60c5:	b0 01                	mov    $0x1,%al
    60c7:	41 39 3c 1a          	cmp    %edi,(%r10,%rbx,1)
    60cb:	0f 84 e0 00 00 00    	je     61b1 <_ZN4core3str7pattern13simd_contains28_$u7b$$u7b$closure$u7d$$u7d$17hd3b4163660bd8c0fE+0x131>
    60d1:	4d 01 d0             	add    %r10,%r8
    60d4:	66 66 66 2e 0f 1f 84 	data16 data16 nopw %cs:0x0(%rax,%rax,1)
    60db:	00 00 00 00 00 
    60e0:	89 d0                	mov    %edx,%eax
    60e2:	66 ba fe ff          	mov    $0xfffe,%dx
    60e6:	66 d3 c2             	rol    %cl,%dx
    60e9:	66 21 c2             	and    %ax,%dx
    60ec:	74 10                	je     60fe <_ZN4core3str7pattern13simd_contains28_$u7b$$u7b$closure$u7d$$u7d$17hd3b4163660bd8c0fE+0x7e>
    60ee:	66 0f bc ca          	bsf    %dx,%cx
    60f2:	0f b7 c1             	movzwl %cx,%eax
    60f5:	48 01 f0             	add    %rsi,%rax
    60f8:	41 39 3c 00          	cmp    %edi,(%r8,%rax,1)
    60fc:	75 e2                	jne    60e0 <_ZN4core3str7pattern13simd_contains28_$u7b$$u7b$closure$u7d$$u7d$17hd3b4163660bd8c0fE+0x60>
    60fe:	66 85 d2             	test   %dx,%dx
    6101:	0f 95 c0             	setne  %al
    6104:	5b                   	pop    %rbx
    6105:	c3                   	retq   
    6106:	66 2e 0f 1f 84 00 00 	nopw   %cs:0x0(%rax,%rax,1)
    610d:	00 00 00 
    6110:	66 b8 fe ff          	mov    $0xfffe,%ax
    6114:	66 d3 c0             	rol    %cl,%ax
    6117:	66 21 c2             	and    %ax,%dx
    611a:	0f 84 93 00 00 00    	je     61b3 <_ZN4core3str7pattern13simd_contains28_$u7b$$u7b$closure$u7d$$u7d$17hd3b4163660bd8c0fE+0x133>
    6120:	66 0f bc ca          	bsf    %dx,%cx
    6124:	0f b7 c1             	movzwl %cx,%eax
    6127:	48 01 f0             	add    %rsi,%rax
    612a:	4c 01 c0             	add    %r8,%rax
    612d:	4e 8d 1c 10          	lea    (%rax,%r10,1),%r11
    6131:	4c 89 cf             	mov    %r9,%rdi
    6134:	66 66 66 2e 0f 1f 84 	data16 data16 nopw %cs:0x0(%rax,%rax,1)
    613b:	00 00 00 00 00 
    6140:	8b 18                	mov    (%rax),%ebx
    6142:	3b 1f                	cmp    (%rdi),%ebx
    6144:	75 ca                	jne    6110 <_ZN4core3str7pattern13simd_contains28_$u7b$$u7b$closure$u7d$$u7d$17hd3b4163660bd8c0fE+0x90>
    6146:	48 83 c0 04          	add    $0x4,%rax
    614a:	48 83 c7 04          	add    $0x4,%rdi
    614e:	4c 39 d8             	cmp    %r11,%rax
    6151:	72 ed                	jb     6140 <_ZN4core3str7pattern13simd_contains28_$u7b$$u7b$closure$u7d$$u7d$17hd3b4163660bd8c0fE+0xc0>
    6153:	41 8b 03             	mov    (%r11),%eax
    6156:	43 3b 04 11          	cmp    (%r9,%r10,1),%eax
    615a:	75 b4                	jne    6110 <_ZN4core3str7pattern13simd_contains28_$u7b$$u7b$closure$u7d$$u7d$17hd3b4163660bd8c0fE+0x90>
    615c:	b0 01                	mov    $0x1,%al
    615e:	eb 51                	jmp    61b1 <_ZN4core3str7pattern13simd_contains28_$u7b$$u7b$closure$u7d$$u7d$17hd3b4163660bd8c0fE+0x131>
    6160:	66 b8 fe ff          	mov    $0xfffe,%ax
    6164:	66 d3 c0             	rol    %cl,%ax
    6167:	66 21 c2             	and    %ax,%dx
    616a:	74 47                	je     61b3 <_ZN4core3str7pattern13simd_contains28_$u7b$$u7b$closure$u7d$$u7d$17hd3b4163660bd8c0fE+0x133>
    616c:	b0 01                	mov    $0x1,%al
    616e:	4d 85 db             	test   %r11,%r11
    6171:	74 3e                	je     61b1 <_ZN4core3str7pattern13simd_contains28_$u7b$$u7b$closure$u7d$$u7d$17hd3b4163660bd8c0fE+0x131>
    6173:	66 0f bc ca          	bsf    %dx,%cx
    6177:	0f b7 f9             	movzwl %cx,%edi
    617a:	48 01 f7             	add    %rsi,%rdi
    617d:	45 0f b6 14 38       	movzbl (%r8,%rdi,1),%r10d
    6182:	45 3a 11             	cmp    (%r9),%r10b
    6185:	75 d9                	jne    6160 <_ZN4core3str7pattern13simd_contains28_$u7b$$u7b$closure$u7d$$u7d$17hd3b4163660bd8c0fE+0xe0>
    6187:	49 83 fb 01          	cmp    $0x1,%r11
    618b:	74 24                	je     61b1 <_ZN4core3str7pattern13simd_contains28_$u7b$$u7b$closure$u7d$$u7d$17hd3b4163660bd8c0fE+0x131>
    618d:	45 0f b6 54 38 01    	movzbl 0x1(%r8,%rdi,1),%r10d
    6193:	45 3a 51 01          	cmp    0x1(%r9),%r10b
    6197:	75 c7                	jne    6160 <_ZN4core3str7pattern13simd_contains28_$u7b$$u7b$closure$u7d$$u7d$17hd3b4163660bd8c0fE+0xe0>
    6199:	49 83 fb 02          	cmp    $0x2,%r11
    619d:	74 12                	je     61b1 <_ZN4core3str7pattern13simd_contains28_$u7b$$u7b$closure$u7d$$u7d$17hd3b4163660bd8c0fE+0x131>
    619f:	41 0f b6 7c 38 02    	movzbl 0x2(%r8,%rdi,1),%edi
    61a5:	41 3a 79 02          	cmp    0x2(%r9),%dil
    61a9:	75 b5                	jne    6160 <_ZN4core3str7pattern13simd_contains28_$u7b$$u7b$closure$u7d$$u7d$17hd3b4163660bd8c0fE+0xe0>
    61ab:	49 83 fb 03          	cmp    $0x3,%r11
    61af:	75 af                	jne    6160 <_ZN4core3str7pattern13simd_contains28_$u7b$$u7b$closure$u7d$$u7d$17hd3b4163660bd8c0fE+0xe0>
    61b1:	5b                   	pop    %rbx
    61b2:	c3                   	retq   
    61b3:	31 c0                	xor    %eax,%eax
    61b5:	5b                   	pop    %rbx
    61b6:	c3                   	retq   
    61b7:	66 0f 1f 84 00 00 00 	nopw   0x0(%rax,%rax,1)
    61be:	00 00 

00000000000061c0 <_ZN4core5slice4sort14break_patterns17h392cdcb989024e3eE>:
    61c0:	53                   	push   %rbx
    61c1:	48 83 ec 20          	sub    $0x20,%rsp
    61c5:	48 8d 46 ff          	lea    -0x1(%rsi),%rax
    61c9:	48 0f bd c8          	bsr    %rax,%rcx
    61cd:	83 f1 3f             	xor    $0x3f,%ecx
    61d0:	49 c7 c0 ff ff ff ff 	mov    $0xffffffffffffffff,%r8
    61d7:	49 d3 e8             	shr    %cl,%r8
    61da:	49 89 f2             	mov    %rsi,%r10
    61dd:	49 d1 ea             	shr    %r10
    61e0:	4d 89 d3             	mov    %r10,%r11
    61e3:	49 83 e3 fe          	and    $0xfffffffffffffffe,%r11
    61e7:	4d 8d 4b ff          	lea    -0x1(%r11),%r9
    61eb:	48 89 f0             	mov    %rsi,%rax
    61ee:	48 c1 e0 0d          	shl    $0xd,%rax
    61f2:	48 31 f0             	xor    %rsi,%rax
    61f5:	48 89 c2             	mov    %rax,%rdx
    61f8:	48 c1 ea 07          	shr    $0x7,%rdx
    61fc:	48 31 c2             	xor    %rax,%rdx
    61ff:	48 89 d3             	mov    %rdx,%rbx
    6202:	48 c1 e3 11          	shl    $0x11,%rbx
    6206:	48 31 d3             	xor    %rdx,%rbx
    6209:	48 89 d8             	mov    %rbx,%rax
    620c:	4c 21 c0             	and    %r8,%rax
    620f:	31 d2                	xor    %edx,%edx
    6211:	48 39 f0             	cmp    %rsi,%rax
    6214:	48 0f 43 d6          	cmovae %rsi,%rdx
    6218:	49 39 f1             	cmp    %rsi,%r9
    621b:	0f 83 63 01 00 00    	jae    6384 <_ZN4core5slice4sort14break_patterns17h392cdcb989024e3eE+0x1c4>
    6221:	48 29 d0             	sub    %rdx,%rax
    6224:	48 39 f0             	cmp    %rsi,%rax
    6227:	0f 83 3d 01 00 00    	jae    636a <_ZN4core5slice4sort14break_patterns17h392cdcb989024e3eE+0x1aa>
    622d:	4b 8d 14 49          	lea    (%r9,%r9,2),%rdx
    6231:	48 8d 04 40          	lea    (%rax,%rax,2),%rax
    6235:	48 8b 4c d7 10       	mov    0x10(%rdi,%rdx,8),%rcx
    623a:	48 89 4c 24 10       	mov    %rcx,0x10(%rsp)
    623f:	0f 10 04 d7          	movups (%rdi,%rdx,8),%xmm0
    6243:	0f 29 04 24          	movaps %xmm0,(%rsp)
    6247:	48 8b 4c c7 10       	mov    0x10(%rdi,%rax,8),%rcx
    624c:	0f 10 04 c7          	movups (%rdi,%rax,8),%xmm0
    6250:	0f 11 04 d7          	movups %xmm0,(%rdi,%rdx,8)
    6254:	48 89 4c d7 10       	mov    %rcx,0x10(%rdi,%rdx,8)
    6259:	48 8b 4c 24 10       	mov    0x10(%rsp),%rcx
    625e:	48 89 4c c7 10       	mov    %rcx,0x10(%rdi,%rax,8)
    6263:	0f 28 04 24          	movaps (%rsp),%xmm0
    6267:	0f 11 04 c7          	movups %xmm0,(%rdi,%rax,8)
    626b:	48 89 d8             	mov    %rbx,%rax
    626e:	48 c1 e0 0d          	shl    $0xd,%rax
    6272:	48 31 d8             	xor    %rbx,%rax
    6275:	48 89 c2             	mov    %rax,%rdx
    6278:	48 c1 ea 07          	shr    $0x7,%rdx
    627c:	48 31 c2             	xor    %rax,%rdx
    627f:	48 89 d1             	mov    %rdx,%rcx
    6282:	48 c1 e1 11          	shl    $0x11,%rcx
    6286:	48 31 d1             	xor    %rdx,%rcx
    6289:	48 89 c8             	mov    %rcx,%rax
    628c:	4c 21 c0             	and    %r8,%rax
    628f:	31 d2                	xor    %edx,%edx
    6291:	48 39 f0             	cmp    %rsi,%rax
    6294:	48 0f 43 d6          	cmovae %rsi,%rdx
    6298:	49 39 f3             	cmp    %rsi,%r11
    629b:	0f 83 db 00 00 00    	jae    637c <_ZN4core5slice4sort14break_patterns17h392cdcb989024e3eE+0x1bc>
    62a1:	48 29 d0             	sub    %rdx,%rax
    62a4:	48 39 f0             	cmp    %rsi,%rax
    62a7:	0f 83 bd 00 00 00    	jae    636a <_ZN4core5slice4sort14break_patterns17h392cdcb989024e3eE+0x1aa>
    62ad:	4b 8d 14 5b          	lea    (%r11,%r11,2),%rdx
    62b1:	48 8d 04 40          	lea    (%rax,%rax,2),%rax
    62b5:	48 8b 5c d7 10       	mov    0x10(%rdi,%rdx,8),%rbx
    62ba:	48 89 5c 24 10       	mov    %rbx,0x10(%rsp)
    62bf:	0f 10 04 d7          	movups (%rdi,%rdx,8),%xmm0
    62c3:	0f 29 04 24          	movaps %xmm0,(%rsp)
    62c7:	48 8b 5c c7 10       	mov    0x10(%rdi,%rax,8),%rbx
    62cc:	0f 10 04 c7          	movups (%rdi,%rax,8),%xmm0
    62d0:	0f 11 04 d7          	movups %xmm0,(%rdi,%rdx,8)
    62d4:	48 89 5c d7 10       	mov    %rbx,0x10(%rdi,%rdx,8)
    62d9:	48 8b 54 24 10       	mov    0x10(%rsp),%rdx
    62de:	48 89 54 c7 10       	mov    %rdx,0x10(%rdi,%rax,8)
    62e3:	0f 28 04 24          	movaps (%rsp),%xmm0
    62e7:	0f 11 04 c7          	movups %xmm0,(%rdi,%rax,8)
    62eb:	48 89 c8             	mov    %rcx,%rax
    62ee:	48 c1 e0 0d          	shl    $0xd,%rax
    62f2:	48 31 c8             	xor    %rcx,%rax
    62f5:	48 89 c1             	mov    %rax,%rcx
    62f8:	48 c1 e9 07          	shr    $0x7,%rcx
    62fc:	48 31 c1             	xor    %rax,%rcx
    62ff:	48 89 c8             	mov    %rcx,%rax
    6302:	48 c1 e0 11          	shl    $0x11,%rax
    6306:	48 31 c8             	xor    %rcx,%rax
    6309:	4c 21 c0             	and    %r8,%rax
    630c:	31 c9                	xor    %ecx,%ecx
    630e:	48 39 f0             	cmp    %rsi,%rax
    6311:	48 0f 43 ce          	cmovae %rsi,%rcx
    6315:	49 83 ca 01          	or     $0x1,%r10
    6319:	49 39 f2             	cmp    %rsi,%r10
    631c:	73 63                	jae    6381 <_ZN4core5slice4sort14break_patterns17h392cdcb989024e3eE+0x1c1>
    631e:	48 29 c8             	sub    %rcx,%rax
    6321:	48 39 f0             	cmp    %rsi,%rax
    6324:	73 44                	jae    636a <_ZN4core5slice4sort14break_patterns17h392cdcb989024e3eE+0x1aa>
    6326:	4b 8d 0c 52          	lea    (%r10,%r10,2),%rcx
    632a:	48 8d 04 40          	lea    (%rax,%rax,2),%rax
    632e:	48 8b 54 cf 10       	mov    0x10(%rdi,%rcx,8),%rdx
    6333:	48 89 54 24 10       	mov    %rdx,0x10(%rsp)
    6338:	0f 10 04 cf          	movups (%rdi,%rcx,8),%xmm0
    633c:	0f 29 04 24          	movaps %xmm0,(%rsp)
    6340:	48 8b 54 c7 10       	mov    0x10(%rdi,%rax,8),%rdx
    6345:	0f 10 04 c7          	movups (%rdi,%rax,8),%xmm0
    6349:	0f 11 04 cf          	movups %xmm0,(%rdi,%rcx,8)
    634d:	48 89 54 cf 10       	mov    %rdx,0x10(%rdi,%rcx,8)
    6352:	48 8b 4c 24 10       	mov    0x10(%rsp),%rcx
    6357:	48 89 4c c7 10       	mov    %rcx,0x10(%rdi,%rax,8)
    635c:	0f 28 04 24          	movaps (%rsp),%xmm0
    6360:	0f 11 04 c7          	movups %xmm0,(%rdi,%rax,8)
    6364:	48 83 c4 20          	add    $0x20,%rsp
    6368:	5b                   	pop    %rbx
    6369:	c3                   	retq   
    636a:	48 8d 15 6f 71 04 00 	lea    0x4716f(%rip),%rdx        # 4d4e0 <__init_array_end+0x258>
    6371:	48 89 c7             	mov    %rax,%rdi
    6374:	ff 15 ee 97 04 00    	callq  *0x497ee(%rip)        # 4fb68 <_GLOBAL_OFFSET_TABLE_+0x240>
    637a:	0f 0b                	ud2    
    637c:	4d 89 d9             	mov    %r11,%r9
    637f:	eb 03                	jmp    6384 <_ZN4core5slice4sort14break_patterns17h392cdcb989024e3eE+0x1c4>
    6381:	4d 89 d1             	mov    %r10,%r9
    6384:	48 8d 15 55 71 04 00 	lea    0x47155(%rip),%rdx        # 4d4e0 <__init_array_end+0x258>
    638b:	4c 89 cf             	mov    %r9,%rdi
    638e:	ff 15 d4 97 04 00    	callq  *0x497d4(%rip)        # 4fb68 <_GLOBAL_OFFSET_TABLE_+0x240>
    6394:	0f 0b                	ud2    
    6396:	66 2e 0f 1f 84 00 00 	nopw   %cs:0x0(%rax,%rax,1)
    639d:	00 00 00 

00000000000063a0 <_ZN4core5slice4sort22partial_insertion_sort17h368fd7e2fe2deddfE>:
    63a0:	55                   	push   %rbp
    63a1:	41 57                	push   %r15
    63a3:	41 56                	push   %r14
    63a5:	41 55                	push   %r13
    63a7:	41 54                	push   %r12
    63a9:	53                   	push   %rbx
    63aa:	48 83 ec 18          	sub    $0x18,%rsp
    63ae:	49 89 f6             	mov    %rsi,%r14
    63b1:	49 89 ff             	mov    %rdi,%r15
    63b4:	48 83 fe 31          	cmp    $0x31,%rsi
    63b8:	77 5b                	ja     6415 <_ZN4core5slice4sort22partial_insertion_sort17h368fd7e2fe2deddfE+0x75>
    63ba:	b8 01 00 00 00       	mov    $0x1,%eax
    63bf:	49 83 fe 01          	cmp    $0x1,%r14
    63c3:	0f 86 3d 02 00 00    	jbe    6606 <_ZN4core5slice4sort22partial_insertion_sort17h368fd7e2fe2deddfE+0x266>
    63c9:	49 8b 4f 18          	mov    0x18(%r15),%rcx
    63cd:	49 3b 0f             	cmp    (%r15),%rcx
    63d0:	0f 82 30 02 00 00    	jb     6606 <_ZN4core5slice4sort22partial_insertion_sort17h368fd7e2fe2deddfE+0x266>
    63d6:	ba 02 00 00 00       	mov    $0x2,%edx
    63db:	4c 29 f2             	sub    %r14,%rdx
    63de:	49 83 c7 30          	add    $0x30,%r15
    63e2:	b8 01 00 00 00       	mov    $0x1,%eax
    63e7:	66 0f 1f 84 00 00 00 	nopw   0x0(%rax,%rax,1)
    63ee:	00 00 
    63f0:	48 8d 34 02          	lea    (%rdx,%rax,1),%rsi
    63f4:	48 83 fe 01          	cmp    $0x1,%rsi
    63f8:	0f 84 05 02 00 00    	je     6603 <_ZN4core5slice4sort22partial_insertion_sort17h368fd7e2fe2deddfE+0x263>
    63fe:	48 ff c0             	inc    %rax
    6401:	49 8b 37             	mov    (%r15),%rsi
    6404:	49 83 c7 18          	add    $0x18,%r15
    6408:	48 39 ce             	cmp    %rcx,%rsi
    640b:	48 89 f1             	mov    %rsi,%rcx
    640e:	73 e0                	jae    63f0 <_ZN4core5slice4sort22partial_insertion_sort17h368fd7e2fe2deddfE+0x50>
    6410:	e9 f1 01 00 00       	jmpq   6606 <_ZN4core5slice4sort22partial_insertion_sort17h368fd7e2fe2deddfE+0x266>
    6415:	49 8b 47 18          	mov    0x18(%r15),%rax
    6419:	bb 01 00 00 00       	mov    $0x1,%ebx
    641e:	41 b4 01             	mov    $0x1,%r12b
    6421:	b1 01                	mov    $0x1,%cl
    6423:	49 3b 07             	cmp    (%r15),%rax
    6426:	72 3e                	jb     6466 <_ZN4core5slice4sort22partial_insertion_sort17h368fd7e2fe2deddfE+0xc6>
    6428:	49 8d 4f 30          	lea    0x30(%r15),%rcx
    642c:	ba 02 00 00 00       	mov    $0x2,%edx
    6431:	4c 29 f2             	sub    %r14,%rdx
    6434:	bb 01 00 00 00       	mov    $0x1,%ebx
    6439:	0f 1f 80 00 00 00 00 	nopl   0x0(%rax)
    6440:	48 8d 34 1a          	lea    (%rdx,%rbx,1),%rsi
    6444:	48 83 fe 01          	cmp    $0x1,%rsi
    6448:	0f 84 42 03 00 00    	je     6790 <_ZN4core5slice4sort22partial_insertion_sort17h368fd7e2fe2deddfE+0x3f0>
    644e:	48 8b 31             	mov    (%rcx),%rsi
    6451:	48 83 c1 18          	add    $0x18,%rcx
    6455:	48 ff c3             	inc    %rbx
    6458:	48 39 c6             	cmp    %rax,%rsi
    645b:	48 89 f0             	mov    %rsi,%rax
    645e:	73 e0                	jae    6440 <_ZN4core5slice4sort22partial_insertion_sort17h368fd7e2fe2deddfE+0xa0>
    6460:	4c 39 f3             	cmp    %r14,%rbx
    6463:	0f 92 c1             	setb   %cl
    6466:	4c 39 f3             	cmp    %r14,%rbx
    6469:	0f 84 24 03 00 00    	je     6793 <_ZN4core5slice4sort22partial_insertion_sort17h368fd7e2fe2deddfE+0x3f3>
    646f:	48 8d 53 ff          	lea    -0x1(%rbx),%rdx
    6473:	4c 39 f2             	cmp    %r14,%rdx
    6476:	0f 83 a3 03 00 00    	jae    681f <_ZN4core5slice4sort22partial_insertion_sort17h368fd7e2fe2deddfE+0x47f>
    647c:	84 c9                	test   %cl,%cl
    647e:	0f 84 b3 03 00 00    	je     6837 <_ZN4core5slice4sort22partial_insertion_sort17h368fd7e2fe2deddfE+0x497>
    6484:	48 8d 2c 52          	lea    (%rdx,%rdx,2),%rbp
    6488:	4c 8d 2c 5b          	lea    (%rbx,%rbx,2),%r13
    648c:	49 8b 44 ef 10       	mov    0x10(%r15,%rbp,8),%rax
    6491:	48 89 44 24 10       	mov    %rax,0x10(%rsp)
    6496:	41 0f 10 04 ef       	movups (%r15,%rbp,8),%xmm0
    649b:	0f 29 04 24          	movaps %xmm0,(%rsp)
    649f:	4b 8b 44 ef 10       	mov    0x10(%r15,%r13,8),%rax
    64a4:	49 89 44 ef 10       	mov    %rax,0x10(%r15,%rbp,8)
    64a9:	43 0f 10 04 ef       	movups (%r15,%r13,8),%xmm0
    64ae:	41 0f 11 04 ef       	movups %xmm0,(%r15,%rbp,8)
    64b3:	48 8b 44 24 10       	mov    0x10(%rsp),%rax
    64b8:	4b 89 44 ef 10       	mov    %rax,0x10(%r15,%r13,8)
    64bd:	0f 28 04 24          	movaps (%rsp),%xmm0
    64c1:	43 0f 11 04 ef       	movups %xmm0,(%r15,%r13,8)
    64c6:	48 83 fb 01          	cmp    $0x1,%rbx
    64ca:	76 16                	jbe    64e2 <_ZN4core5slice4sort22partial_insertion_sort17h368fd7e2fe2deddfE+0x142>
    64cc:	4c 89 ff             	mov    %r15,%rdi
    64cf:	48 89 de             	mov    %rbx,%rsi
    64d2:	e8 d9 50 00 00       	callq  b5b0 <_ZN4core5slice4sort25insertion_sort_shift_left17hcec5c740a3dff5daE>
    64d7:	4c 89 ff             	mov    %r15,%rdi
    64da:	48 89 de             	mov    %rbx,%rsi
    64dd:	e8 8e 52 00 00       	callq  b770 <_ZN4core5slice4sort26insertion_sort_shift_right17hdeecd44478cc37d9E>
    64e2:	4c 39 f3             	cmp    %r14,%rbx
    64e5:	73 54                	jae    653b <_ZN4core5slice4sort22partial_insertion_sort17h368fd7e2fe2deddfE+0x19b>
    64e7:	49 8d 14 ef          	lea    (%r15,%rbp,8),%rdx
    64eb:	4b 8b 04 ef          	mov    (%r15,%r13,8),%rax
    64ef:	b1 01                	mov    $0x1,%cl
    64f1:	48 3b 02             	cmp    (%rdx),%rax
    64f4:	72 3b                	jb     6531 <_ZN4core5slice4sort22partial_insertion_sort17h368fd7e2fe2deddfE+0x191>
    64f6:	4b 8d 0c ef          	lea    (%r15,%r13,8),%rcx
    64fa:	48 83 c1 18          	add    $0x18,%rcx
    64fe:	49 8d 56 ff          	lea    -0x1(%r14),%rdx
    6502:	66 66 66 66 66 2e 0f 	data16 data16 data16 data16 nopw %cs:0x0(%rax,%rax,1)
    6509:	1f 84 00 00 00 00 00 
    6510:	48 39 da             	cmp    %rbx,%rdx
    6513:	0f 84 77 02 00 00    	je     6790 <_ZN4core5slice4sort22partial_insertion_sort17h368fd7e2fe2deddfE+0x3f0>
    6519:	48 8b 31             	mov    (%rcx),%rsi
    651c:	48 83 c1 18          	add    $0x18,%rcx
    6520:	48 ff c3             	inc    %rbx
    6523:	48 39 c6             	cmp    %rax,%rsi
    6526:	48 89 f0             	mov    %rsi,%rax
    6529:	73 e5                	jae    6510 <_ZN4core5slice4sort22partial_insertion_sort17h368fd7e2fe2deddfE+0x170>
    652b:	4c 39 f3             	cmp    %r14,%rbx
    652e:	0f 92 c1             	setb   %cl
    6531:	4c 39 f3             	cmp    %r14,%rbx
    6534:	75 10                	jne    6546 <_ZN4core5slice4sort22partial_insertion_sort17h368fd7e2fe2deddfE+0x1a6>
    6536:	e9 58 02 00 00       	jmpq   6793 <_ZN4core5slice4sort22partial_insertion_sort17h368fd7e2fe2deddfE+0x3f3>
    653b:	31 c9                	xor    %ecx,%ecx
    653d:	4c 39 f3             	cmp    %r14,%rbx
    6540:	0f 84 4d 02 00 00    	je     6793 <_ZN4core5slice4sort22partial_insertion_sort17h368fd7e2fe2deddfE+0x3f3>
    6546:	48 8d 53 ff          	lea    -0x1(%rbx),%rdx
    654a:	4c 39 f2             	cmp    %r14,%rdx
    654d:	0f 83 cc 02 00 00    	jae    681f <_ZN4core5slice4sort22partial_insertion_sort17h368fd7e2fe2deddfE+0x47f>
    6553:	84 c9                	test   %cl,%cl
    6555:	0f 84 dc 02 00 00    	je     6837 <_ZN4core5slice4sort22partial_insertion_sort17h368fd7e2fe2deddfE+0x497>
    655b:	48 8d 2c 52          	lea    (%rdx,%rdx,2),%rbp
    655f:	4c 8d 2c 5b          	lea    (%rbx,%rbx,2),%r13
    6563:	49 8b 44 ef 10       	mov    0x10(%r15,%rbp,8),%rax
    6568:	48 89 44 24 10       	mov    %rax,0x10(%rsp)
    656d:	41 0f 10 04 ef       	movups (%r15,%rbp,8),%xmm0
    6572:	0f 29 04 24          	movaps %xmm0,(%rsp)
    6576:	4b 8b 44 ef 10       	mov    0x10(%r15,%r13,8),%rax
    657b:	49 89 44 ef 10       	mov    %rax,0x10(%r15,%rbp,8)
    6580:	43 0f 10 04 ef       	movups (%r15,%r13,8),%xmm0
    6585:	41 0f 11 04 ef       	movups %xmm0,(%r15,%rbp,8)
    658a:	48 8b 44 24 10       	mov    0x10(%rsp),%rax
    658f:	4b 89 44 ef 10       	mov    %rax,0x10(%r15,%r13,8)
    6594:	0f 28 04 24          	movaps (%rsp),%xmm0
    6598:	43 0f 11 04 ef       	movups %xmm0,(%r15,%r13,8)
    659d:	48 83 fb 02          	cmp    $0x2,%rbx
    65a1:	72 16                	jb     65b9 <_ZN4core5slice4sort22partial_insertion_sort17h368fd7e2fe2deddfE+0x219>
    65a3:	4c 89 ff             	mov    %r15,%rdi
    65a6:	48 89 de             	mov    %rbx,%rsi
    65a9:	e8 02 50 00 00       	callq  b5b0 <_ZN4core5slice4sort25insertion_sort_shift_left17hcec5c740a3dff5daE>
    65ae:	4c 89 ff             	mov    %r15,%rdi
    65b1:	48 89 de             	mov    %rbx,%rsi
    65b4:	e8 b7 51 00 00       	callq  b770 <_ZN4core5slice4sort26insertion_sort_shift_right17hdeecd44478cc37d9E>
    65b9:	4c 39 f3             	cmp    %r14,%rbx
    65bc:	73 54                	jae    6612 <_ZN4core5slice4sort22partial_insertion_sort17h368fd7e2fe2deddfE+0x272>
    65be:	49 8d 14 ef          	lea    (%r15,%rbp,8),%rdx
    65c2:	4b 8b 04 ef          	mov    (%r15,%r13,8),%rax
    65c6:	b1 01                	mov    $0x1,%cl
    65c8:	48 3b 02             	cmp    (%rdx),%rax
    65cb:	72 47                	jb     6614 <_ZN4core5slice4sort22partial_insertion_sort17h368fd7e2fe2deddfE+0x274>
    65cd:	4b 8d 0c ef          	lea    (%r15,%r13,8),%rcx
    65d1:	48 83 c1 18          	add    $0x18,%rcx
    65d5:	49 8d 56 ff          	lea    -0x1(%r14),%rdx
    65d9:	0f 1f 80 00 00 00 00 	nopl   0x0(%rax)
    65e0:	48 39 da             	cmp    %rbx,%rdx
    65e3:	0f 84 a7 01 00 00    	je     6790 <_ZN4core5slice4sort22partial_insertion_sort17h368fd7e2fe2deddfE+0x3f0>
    65e9:	48 8b 31             	mov    (%rcx),%rsi
    65ec:	48 83 c1 18          	add    $0x18,%rcx
    65f0:	48 ff c3             	inc    %rbx
    65f3:	48 39 c6             	cmp    %rax,%rsi
    65f6:	48 89 f0             	mov    %rsi,%rax
    65f9:	73 e5                	jae    65e0 <_ZN4core5slice4sort22partial_insertion_sort17h368fd7e2fe2deddfE+0x240>
    65fb:	4c 39 f3             	cmp    %r14,%rbx
    65fe:	0f 92 c1             	setb   %cl
    6601:	eb 11                	jmp    6614 <_ZN4core5slice4sort22partial_insertion_sort17h368fd7e2fe2deddfE+0x274>
    6603:	4c 89 f0             	mov    %r14,%rax
    6606:	4c 39 f0             	cmp    %r14,%rax
    6609:	41 0f 94 c4          	sete   %r12b
    660d:	e9 81 01 00 00       	jmpq   6793 <_ZN4core5slice4sort22partial_insertion_sort17h368fd7e2fe2deddfE+0x3f3>
    6612:	31 c9                	xor    %ecx,%ecx
    6614:	4c 39 f3             	cmp    %r14,%rbx
    6617:	0f 84 76 01 00 00    	je     6793 <_ZN4core5slice4sort22partial_insertion_sort17h368fd7e2fe2deddfE+0x3f3>
    661d:	48 8d 53 ff          	lea    -0x1(%rbx),%rdx
    6621:	4c 39 f2             	cmp    %r14,%rdx
    6624:	0f 83 f5 01 00 00    	jae    681f <_ZN4core5slice4sort22partial_insertion_sort17h368fd7e2fe2deddfE+0x47f>
    662a:	84 c9                	test   %cl,%cl
    662c:	0f 84 05 02 00 00    	je     6837 <_ZN4core5slice4sort22partial_insertion_sort17h368fd7e2fe2deddfE+0x497>
    6632:	48 8d 2c 52          	lea    (%rdx,%rdx,2),%rbp
    6636:	4c 8d 2c 5b          	lea    (%rbx,%rbx,2),%r13
    663a:	49 8b 44 ef 10       	mov    0x10(%r15,%rbp,8),%rax
    663f:	48 89 44 24 10       	mov    %rax,0x10(%rsp)
    6644:	41 0f 10 04 ef       	movups (%r15,%rbp,8),%xmm0
    6649:	0f 29 04 24          	movaps %xmm0,(%rsp)
    664d:	4b 8b 44 ef 10       	mov    0x10(%r15,%r13,8),%rax
    6652:	49 89 44 ef 10       	mov    %rax,0x10(%r15,%rbp,8)
    6657:	43 0f 10 04 ef       	movups (%r15,%r13,8),%xmm0
    665c:	41 0f 11 04 ef       	movups %xmm0,(%r15,%rbp,8)
    6661:	48 8b 44 24 10       	mov    0x10(%rsp),%rax
    6666:	4b 89 44 ef 10       	mov    %rax,0x10(%r15,%r13,8)
    666b:	0f 28 04 24          	movaps (%rsp),%xmm0
    666f:	43 0f 11 04 ef       	movups %xmm0,(%r15,%r13,8)
    6674:	48 83 fb 02          	cmp    $0x2,%rbx
    6678:	72 16                	jb     6690 <_ZN4core5slice4sort22partial_insertion_sort17h368fd7e2fe2deddfE+0x2f0>
    667a:	4c 89 ff             	mov    %r15,%rdi
    667d:	48 89 de             	mov    %rbx,%rsi
    6680:	e8 2b 4f 00 00       	callq  b5b0 <_ZN4core5slice4sort25insertion_sort_shift_left17hcec5c740a3dff5daE>
    6685:	4c 89 ff             	mov    %r15,%rdi
    6688:	48 89 de             	mov    %rbx,%rsi
    668b:	e8 e0 50 00 00       	callq  b770 <_ZN4core5slice4sort26insertion_sort_shift_right17hdeecd44478cc37d9E>
    6690:	4c 39 f3             	cmp    %r14,%rbx
    6693:	73 3e                	jae    66d3 <_ZN4core5slice4sort22partial_insertion_sort17h368fd7e2fe2deddfE+0x333>
    6695:	49 8d 14 ef          	lea    (%r15,%rbp,8),%rdx
    6699:	4b 8b 04 ef          	mov    (%r15,%r13,8),%rax
    669d:	b1 01                	mov    $0x1,%cl
    669f:	48 3b 02             	cmp    (%rdx),%rax
    66a2:	72 31                	jb     66d5 <_ZN4core5slice4sort22partial_insertion_sort17h368fd7e2fe2deddfE+0x335>
    66a4:	4b 8d 0c ef          	lea    (%r15,%r13,8),%rcx
    66a8:	48 83 c1 18          	add    $0x18,%rcx
    66ac:	49 8d 56 ff          	lea    -0x1(%r14),%rdx
    66b0:	48 39 da             	cmp    %rbx,%rdx
    66b3:	0f 84 d7 00 00 00    	je     6790 <_ZN4core5slice4sort22partial_insertion_sort17h368fd7e2fe2deddfE+0x3f0>
    66b9:	48 8b 31             	mov    (%rcx),%rsi
    66bc:	48 83 c1 18          	add    $0x18,%rcx
    66c0:	48 ff c3             	inc    %rbx
    66c3:	48 39 c6             	cmp    %rax,%rsi
    66c6:	48 89 f0             	mov    %rsi,%rax
    66c9:	73 e5                	jae    66b0 <_ZN4core5slice4sort22partial_insertion_sort17h368fd7e2fe2deddfE+0x310>
    66cb:	4c 39 f3             	cmp    %r14,%rbx
    66ce:	0f 92 c1             	setb   %cl
    66d1:	eb 02                	jmp    66d5 <_ZN4core5slice4sort22partial_insertion_sort17h368fd7e2fe2deddfE+0x335>
    66d3:	31 c9                	xor    %ecx,%ecx
    66d5:	4c 39 f3             	cmp    %r14,%rbx
    66d8:	0f 84 b5 00 00 00    	je     6793 <_ZN4core5slice4sort22partial_insertion_sort17h368fd7e2fe2deddfE+0x3f3>
    66de:	48 8d 53 ff          	lea    -0x1(%rbx),%rdx
    66e2:	4c 39 f2             	cmp    %r14,%rdx
    66e5:	0f 83 34 01 00 00    	jae    681f <_ZN4core5slice4sort22partial_insertion_sort17h368fd7e2fe2deddfE+0x47f>
    66eb:	84 c9                	test   %cl,%cl
    66ed:	0f 84 44 01 00 00    	je     6837 <_ZN4core5slice4sort22partial_insertion_sort17h368fd7e2fe2deddfE+0x497>
    66f3:	48 8d 2c 52          	lea    (%rdx,%rdx,2),%rbp
    66f7:	4c 8d 2c 5b          	lea    (%rbx,%rbx,2),%r13
    66fb:	49 8b 44 ef 10       	mov    0x10(%r15,%rbp,8),%rax
    6700:	48 89 44 24 10       	mov    %rax,0x10(%rsp)
    6705:	41 0f 10 04 ef       	movups (%r15,%rbp,8),%xmm0
    670a:	0f 29 04 24          	movaps %xmm0,(%rsp)
    670e:	4b 8b 44 ef 10       	mov    0x10(%r15,%r13,8),%rax
    6713:	49 89 44 ef 10       	mov    %rax,0x10(%r15,%rbp,8)
    6718:	43 0f 10 04 ef       	movups (%r15,%r13,8),%xmm0
    671d:	41 0f 11 04 ef       	movups %xmm0,(%r15,%rbp,8)
    6722:	48 8b 44 24 10       	mov    0x10(%rsp),%rax
    6727:	4b 89 44 ef 10       	mov    %rax,0x10(%r15,%r13,8)
    672c:	0f 28 04 24          	movaps (%rsp),%xmm0
    6730:	43 0f 11 04 ef       	movups %xmm0,(%r15,%r13,8)
    6735:	48 83 fb 02          	cmp    $0x2,%rbx
    6739:	72 16                	jb     6751 <_ZN4core5slice4sort22partial_insertion_sort17h368fd7e2fe2deddfE+0x3b1>
    673b:	4c 89 ff             	mov    %r15,%rdi
    673e:	48 89 de             	mov    %rbx,%rsi
    6741:	e8 6a 4e 00 00       	callq  b5b0 <_ZN4core5slice4sort25insertion_sort_shift_left17hcec5c740a3dff5daE>
    6746:	4c 89 ff             	mov    %r15,%rdi
    6749:	48 89 de             	mov    %rbx,%rsi
    674c:	e8 1f 50 00 00       	callq  b770 <_ZN4core5slice4sort26insertion_sort_shift_right17hdeecd44478cc37d9E>
    6751:	4c 39 f3             	cmp    %r14,%rbx
    6754:	73 4f                	jae    67a5 <_ZN4core5slice4sort22partial_insertion_sort17h368fd7e2fe2deddfE+0x405>
    6756:	49 8d 14 ef          	lea    (%r15,%rbp,8),%rdx
    675a:	4b 8b 04 ef          	mov    (%r15,%r13,8),%rax
    675e:	b1 01                	mov    $0x1,%cl
    6760:	48 3b 02             	cmp    (%rdx),%rax
    6763:	72 42                	jb     67a7 <_ZN4core5slice4sort22partial_insertion_sort17h368fd7e2fe2deddfE+0x407>
    6765:	4b 8d 0c ef          	lea    (%r15,%r13,8),%rcx
    6769:	48 83 c1 18          	add    $0x18,%rcx
    676d:	49 8d 56 ff          	lea    -0x1(%r14),%rdx
    6771:	48 39 da             	cmp    %rbx,%rdx
    6774:	74 1a                	je     6790 <_ZN4core5slice4sort22partial_insertion_sort17h368fd7e2fe2deddfE+0x3f0>
    6776:	48 8b 31             	mov    (%rcx),%rsi
    6779:	48 83 c1 18          	add    $0x18,%rcx
    677d:	48 ff c3             	inc    %rbx
    6780:	48 39 c6             	cmp    %rax,%rsi
    6783:	48 89 f0             	mov    %rsi,%rax
    6786:	73 e9                	jae    6771 <_ZN4core5slice4sort22partial_insertion_sort17h368fd7e2fe2deddfE+0x3d1>
    6788:	4c 39 f3             	cmp    %r14,%rbx
    678b:	0f 92 c1             	setb   %cl
    678e:	eb 17                	jmp    67a7 <_ZN4core5slice4sort22partial_insertion_sort17h368fd7e2fe2deddfE+0x407>
    6790:	41 b4 01             	mov    $0x1,%r12b
    6793:	44 89 e0             	mov    %r12d,%eax
    6796:	48 83 c4 18          	add    $0x18,%rsp
    679a:	5b                   	pop    %rbx
    679b:	41 5c                	pop    %r12
    679d:	41 5d                	pop    %r13
    679f:	41 5e                	pop    %r14
    67a1:	41 5f                	pop    %r15
    67a3:	5d                   	pop    %rbp
    67a4:	c3                   	retq   
    67a5:	31 c9                	xor    %ecx,%ecx
    67a7:	4c 39 f3             	cmp    %r14,%rbx
    67aa:	74 e7                	je     6793 <_ZN4core5slice4sort22partial_insertion_sort17h368fd7e2fe2deddfE+0x3f3>
    67ac:	48 8d 53 ff          	lea    -0x1(%rbx),%rdx
    67b0:	4c 39 f2             	cmp    %r14,%rdx
    67b3:	73 6a                	jae    681f <_ZN4core5slice4sort22partial_insertion_sort17h368fd7e2fe2deddfE+0x47f>
    67b5:	84 c9                	test   %cl,%cl
    67b7:	74 7e                	je     6837 <_ZN4core5slice4sort22partial_insertion_sort17h368fd7e2fe2deddfE+0x497>
    67b9:	48 8d 04 52          	lea    (%rdx,%rdx,2),%rax
    67bd:	48 8d 0c 5b          	lea    (%rbx,%rbx,2),%rcx
    67c1:	49 8b 74 c7 10       	mov    0x10(%r15,%rax,8),%rsi
    67c6:	48 89 74 24 10       	mov    %rsi,0x10(%rsp)
    67cb:	41 0f 10 04 c7       	movups (%r15,%rax,8),%xmm0
    67d0:	0f 29 04 24          	movaps %xmm0,(%rsp)
    67d4:	49 8b 74 cf 10       	mov    0x10(%r15,%rcx,8),%rsi
    67d9:	49 89 74 c7 10       	mov    %rsi,0x10(%r15,%rax,8)
    67de:	41 0f 10 04 cf       	movups (%r15,%rcx,8),%xmm0
    67e3:	41 0f 11 04 c7       	movups %xmm0,(%r15,%rax,8)
    67e8:	48 8b 44 24 10       	mov    0x10(%rsp),%rax
    67ed:	49 89 44 cf 10       	mov    %rax,0x10(%r15,%rcx,8)
    67f2:	0f 28 04 24          	movaps (%rsp),%xmm0
    67f6:	41 0f 11 04 cf       	movups %xmm0,(%r15,%rcx,8)
    67fb:	48 83 fb 02          	cmp    $0x2,%rbx
    67ff:	72 16                	jb     6817 <_ZN4core5slice4sort22partial_insertion_sort17h368fd7e2fe2deddfE+0x477>
    6801:	4c 89 ff             	mov    %r15,%rdi
    6804:	48 89 de             	mov    %rbx,%rsi
    6807:	e8 a4 4d 00 00       	callq  b5b0 <_ZN4core5slice4sort25insertion_sort_shift_left17hcec5c740a3dff5daE>
    680c:	4c 89 ff             	mov    %r15,%rdi
    680f:	48 89 de             	mov    %rbx,%rsi
    6812:	e8 59 4f 00 00       	callq  b770 <_ZN4core5slice4sort26insertion_sort_shift_right17hdeecd44478cc37d9E>
    6817:	45 31 e4             	xor    %r12d,%r12d
    681a:	e9 74 ff ff ff       	jmpq   6793 <_ZN4core5slice4sort22partial_insertion_sort17h368fd7e2fe2deddfE+0x3f3>
    681f:	48 8d 05 02 6d 04 00 	lea    0x46d02(%rip),%rax        # 4d528 <__init_array_end+0x2a0>
    6826:	48 89 d7             	mov    %rdx,%rdi
    6829:	4c 89 f6             	mov    %r14,%rsi
    682c:	48 89 c2             	mov    %rax,%rdx
    682f:	ff 15 33 93 04 00    	callq  *0x49333(%rip)        # 4fb68 <_GLOBAL_OFFSET_TABLE_+0x240>
    6835:	0f 0b                	ud2    
    6837:	48 8d 15 ea 6c 04 00 	lea    0x46cea(%rip),%rdx        # 4d528 <__init_array_end+0x2a0>
    683e:	48 89 df             	mov    %rbx,%rdi
    6841:	4c 89 f6             	mov    %r14,%rsi
    6844:	ff 15 1e 93 04 00    	callq  *0x4931e(%rip)        # 4fb68 <_GLOBAL_OFFSET_TABLE_+0x240>
    684a:	0f 0b                	ud2    
    684c:	0f 1f 40 00          	nopl   0x0(%rax)

0000000000006850 <_ZN4core5slice4sort8heapsort17h1cc075003a72c23fE>:
    6850:	48 83 ec 18          	sub    $0x18,%rsp
    6854:	48 83 fe 02          	cmp    $0x2,%rsi
    6858:	0f 82 ec 01 00 00    	jb     6a4a <_ZN4core5slice4sort8heapsort17h1cc075003a72c23fE+0x1fa>
    685e:	49 89 f1             	mov    %rsi,%r9
    6861:	49 d1 e9             	shr    %r9
    6864:	eb 13                	jmp    6879 <_ZN4core5slice4sort8heapsort17h1cc075003a72c23fE+0x29>
    6866:	66 2e 0f 1f 84 00 00 	nopw   %cs:0x0(%rax,%rax,1)
    686d:	00 00 00 
    6870:	4d 85 c9             	test   %r9,%r9
    6873:	0f 84 bd 00 00 00    	je     6936 <_ZN4core5slice4sort8heapsort17h1cc075003a72c23fE+0xe6>
    6879:	4c 89 c9             	mov    %r9,%rcx
    687c:	49 ff c9             	dec    %r9
    687f:	48 8d 04 09          	lea    (%rcx,%rcx,1),%rax
    6883:	48 ff c8             	dec    %rax
    6886:	48 39 f0             	cmp    %rsi,%rax
    6889:	73 e5                	jae    6870 <_ZN4core5slice4sort8heapsort17h1cc075003a72c23fE+0x20>
    688b:	48 8d 14 09          	lea    (%rcx,%rcx,1),%rdx
    688f:	48 83 c2 fe          	add    $0xfffffffffffffffe,%rdx
    6893:	4d 89 c8             	mov    %r9,%r8
    6896:	66 2e 0f 1f 84 00 00 	nopw   %cs:0x0(%rax,%rax,1)
    689d:	00 00 00 
    68a0:	48 83 c2 02          	add    $0x2,%rdx
    68a4:	48 39 f2             	cmp    %rsi,%rdx
    68a7:	73 14                	jae    68bd <_ZN4core5slice4sort8heapsort17h1cc075003a72c23fE+0x6d>
    68a9:	48 8d 0c 40          	lea    (%rax,%rax,2),%rcx
    68ad:	48 8d 14 52          	lea    (%rdx,%rdx,2),%rdx
    68b1:	48 8b 0c cf          	mov    (%rdi,%rcx,8),%rcx
    68b5:	48 3b 0c d7          	cmp    (%rdi,%rdx,8),%rcx
    68b9:	48 83 d0 00          	adc    $0x0,%rax
    68bd:	49 89 c2             	mov    %rax,%r10
    68c0:	49 39 f0             	cmp    %rsi,%r8
    68c3:	0f 83 86 01 00 00    	jae    6a4f <_ZN4core5slice4sort8heapsort17h1cc075003a72c23fE+0x1ff>
    68c9:	49 39 f2             	cmp    %rsi,%r10
    68cc:	0f 83 8f 01 00 00    	jae    6a61 <_ZN4core5slice4sort8heapsort17h1cc075003a72c23fE+0x211>
    68d2:	4b 8d 04 40          	lea    (%r8,%r8,2),%rax
    68d6:	4b 8d 14 52          	lea    (%r10,%r10,2),%rdx
    68da:	48 8b 0c c7          	mov    (%rdi,%rax,8),%rcx
    68de:	48 3b 0c d7          	cmp    (%rdi,%rdx,8),%rcx
    68e2:	73 8c                	jae    6870 <_ZN4core5slice4sort8heapsort17h1cc075003a72c23fE+0x20>
    68e4:	48 8d 04 c7          	lea    (%rdi,%rax,8),%rax
    68e8:	48 8d 0c d7          	lea    (%rdi,%rdx,8),%rcx
    68ec:	48 8b 50 10          	mov    0x10(%rax),%rdx
    68f0:	48 89 54 24 10       	mov    %rdx,0x10(%rsp)
    68f5:	0f 10 00             	movups (%rax),%xmm0
    68f8:	0f 29 04 24          	movaps %xmm0,(%rsp)
    68fc:	48 8b 51 10          	mov    0x10(%rcx),%rdx
    6900:	0f 10 01             	movups (%rcx),%xmm0
    6903:	0f 11 00             	movups %xmm0,(%rax)
    6906:	48 89 50 10          	mov    %rdx,0x10(%rax)
    690a:	48 8b 44 24 10       	mov    0x10(%rsp),%rax
    690f:	48 89 41 10          	mov    %rax,0x10(%rcx)
    6913:	0f 28 04 24          	movaps (%rsp),%xmm0
    6917:	0f 11 01             	movups %xmm0,(%rcx)
    691a:	4b 8d 14 12          	lea    (%r10,%r10,1),%rdx
    691e:	4b 8d 04 12          	lea    (%r10,%r10,1),%rax
    6922:	48 ff c0             	inc    %rax
    6925:	4d 89 d0             	mov    %r10,%r8
    6928:	48 39 f0             	cmp    %rsi,%rax
    692b:	0f 82 6f ff ff ff    	jb     68a0 <_ZN4core5slice4sort8heapsort17h1cc075003a72c23fE+0x50>
    6931:	e9 3a ff ff ff       	jmpq   6870 <_ZN4core5slice4sort8heapsort17h1cc075003a72c23fE+0x20>
    6936:	48 83 fe 02          	cmp    $0x2,%rsi
    693a:	0f 82 0a 01 00 00    	jb     6a4a <_ZN4core5slice4sort8heapsort17h1cc075003a72c23fE+0x1fa>
    6940:	49 89 f0             	mov    %rsi,%r8
    6943:	eb 15                	jmp    695a <_ZN4core5slice4sort8heapsort17h1cc075003a72c23fE+0x10a>
    6945:	66 66 2e 0f 1f 84 00 	data16 nopw %cs:0x0(%rax,%rax,1)
    694c:	00 00 00 00 
    6950:	49 83 f8 01          	cmp    $0x1,%r8
    6954:	0f 86 f0 00 00 00    	jbe    6a4a <_ZN4core5slice4sort8heapsort17h1cc075003a72c23fE+0x1fa>
    695a:	49 ff c8             	dec    %r8
    695d:	49 39 f0             	cmp    %rsi,%r8
    6960:	0f 83 2e 01 00 00    	jae    6a94 <_ZN4core5slice4sort8heapsort17h1cc075003a72c23fE+0x244>
    6966:	4b 8d 04 40          	lea    (%r8,%r8,2),%rax
    696a:	48 8b 4f 10          	mov    0x10(%rdi),%rcx
    696e:	48 89 4c 24 10       	mov    %rcx,0x10(%rsp)
    6973:	0f 10 07             	movups (%rdi),%xmm0
    6976:	0f 29 04 24          	movaps %xmm0,(%rsp)
    697a:	48 8b 4c c7 10       	mov    0x10(%rdi,%rax,8),%rcx
    697f:	0f 10 04 c7          	movups (%rdi,%rax,8),%xmm0
    6983:	0f 11 07             	movups %xmm0,(%rdi)
    6986:	48 89 4f 10          	mov    %rcx,0x10(%rdi)
    698a:	48 8b 4c 24 10       	mov    0x10(%rsp),%rcx
    698f:	48 89 4c c7 10       	mov    %rcx,0x10(%rdi,%rax,8)
    6994:	0f 28 04 24          	movaps (%rsp),%xmm0
    6998:	0f 11 04 c7          	movups %xmm0,(%rdi,%rax,8)
    699c:	49 83 f8 02          	cmp    $0x2,%r8
    69a0:	0f 82 a4 00 00 00    	jb     6a4a <_ZN4core5slice4sort8heapsort17h1cc075003a72c23fE+0x1fa>
    69a6:	ba 01 00 00 00       	mov    $0x1,%edx
    69ab:	31 c0                	xor    %eax,%eax
    69ad:	45 31 c9             	xor    %r9d,%r9d
    69b0:	48 83 c0 02          	add    $0x2,%rax
    69b4:	4c 39 c0             	cmp    %r8,%rax
    69b7:	73 14                	jae    69cd <_ZN4core5slice4sort8heapsort17h1cc075003a72c23fE+0x17d>
    69b9:	48 8d 0c 52          	lea    (%rdx,%rdx,2),%rcx
    69bd:	48 8d 04 40          	lea    (%rax,%rax,2),%rax
    69c1:	48 8b 0c cf          	mov    (%rdi,%rcx,8),%rcx
    69c5:	48 3b 0c c7          	cmp    (%rdi,%rax,8),%rcx
    69c9:	48 83 d2 00          	adc    $0x0,%rdx
    69cd:	49 89 d2             	mov    %rdx,%r10
    69d0:	4d 39 c1             	cmp    %r8,%r9
    69d3:	0f 83 9a 00 00 00    	jae    6a73 <_ZN4core5slice4sort8heapsort17h1cc075003a72c23fE+0x223>
    69d9:	4d 39 c2             	cmp    %r8,%r10
    69dc:	0f 83 9d 00 00 00    	jae    6a7f <_ZN4core5slice4sort8heapsort17h1cc075003a72c23fE+0x22f>
    69e2:	4b 8d 04 49          	lea    (%r9,%r9,2),%rax
    69e6:	4b 8d 14 52          	lea    (%r10,%r10,2),%rdx
    69ea:	48 8b 0c c7          	mov    (%rdi,%rax,8),%rcx
    69ee:	48 3b 0c d7          	cmp    (%rdi,%rdx,8),%rcx
    69f2:	0f 83 58 ff ff ff    	jae    6950 <_ZN4core5slice4sort8heapsort17h1cc075003a72c23fE+0x100>
    69f8:	48 8d 04 c7          	lea    (%rdi,%rax,8),%rax
    69fc:	48 8d 0c d7          	lea    (%rdi,%rdx,8),%rcx
    6a00:	48 8b 50 10          	mov    0x10(%rax),%rdx
    6a04:	48 89 54 24 10       	mov    %rdx,0x10(%rsp)
    6a09:	0f 10 00             	movups (%rax),%xmm0
    6a0c:	0f 29 04 24          	movaps %xmm0,(%rsp)
    6a10:	48 8b 51 10          	mov    0x10(%rcx),%rdx
    6a14:	0f 10 01             	movups (%rcx),%xmm0
    6a17:	0f 11 00             	movups %xmm0,(%rax)
    6a1a:	48 89 50 10          	mov    %rdx,0x10(%rax)
    6a1e:	48 8b 44 24 10       	mov    0x10(%rsp),%rax
    6a23:	48 89 41 10          	mov    %rax,0x10(%rcx)
    6a27:	0f 28 04 24          	movaps (%rsp),%xmm0
    6a2b:	0f 11 01             	movups %xmm0,(%rcx)
    6a2e:	4b 8d 04 12          	lea    (%r10,%r10,1),%rax
    6a32:	4b 8d 14 12          	lea    (%r10,%r10,1),%rdx
    6a36:	48 ff c2             	inc    %rdx
    6a39:	4d 89 d1             	mov    %r10,%r9
    6a3c:	4c 39 c2             	cmp    %r8,%rdx
    6a3f:	0f 82 6b ff ff ff    	jb     69b0 <_ZN4core5slice4sort8heapsort17h1cc075003a72c23fE+0x160>
    6a45:	e9 06 ff ff ff       	jmpq   6950 <_ZN4core5slice4sort8heapsort17h1cc075003a72c23fE+0x100>
    6a4a:	48 83 c4 18          	add    $0x18,%rsp
    6a4e:	c3                   	retq   
    6a4f:	48 8d 15 62 6b 04 00 	lea    0x46b62(%rip),%rdx        # 4d5b8 <__init_array_end+0x330>
    6a56:	4c 89 c7             	mov    %r8,%rdi
    6a59:	ff 15 09 91 04 00    	callq  *0x49109(%rip)        # 4fb68 <_GLOBAL_OFFSET_TABLE_+0x240>
    6a5f:	0f 0b                	ud2    
    6a61:	48 8d 15 68 6b 04 00 	lea    0x46b68(%rip),%rdx        # 4d5d0 <__init_array_end+0x348>
    6a68:	4c 89 d7             	mov    %r10,%rdi
    6a6b:	ff 15 f7 90 04 00    	callq  *0x490f7(%rip)        # 4fb68 <_GLOBAL_OFFSET_TABLE_+0x240>
    6a71:	0f 0b                	ud2    
    6a73:	48 8d 15 3e 6b 04 00 	lea    0x46b3e(%rip),%rdx        # 4d5b8 <__init_array_end+0x330>
    6a7a:	4c 89 cf             	mov    %r9,%rdi
    6a7d:	eb 0a                	jmp    6a89 <_ZN4core5slice4sort8heapsort17h1cc075003a72c23fE+0x239>
    6a7f:	48 8d 15 4a 6b 04 00 	lea    0x46b4a(%rip),%rdx        # 4d5d0 <__init_array_end+0x348>
    6a86:	4c 89 d7             	mov    %r10,%rdi
    6a89:	4c 89 c6             	mov    %r8,%rsi
    6a8c:	ff 15 d6 90 04 00    	callq  *0x490d6(%rip)        # 4fb68 <_GLOBAL_OFFSET_TABLE_+0x240>
    6a92:	0f 0b                	ud2    
    6a94:	48 8d 15 05 6b 04 00 	lea    0x46b05(%rip),%rdx        # 4d5a0 <__init_array_end+0x318>
    6a9b:	4c 89 c7             	mov    %r8,%rdi
    6a9e:	ff 15 c4 90 04 00    	callq  *0x490c4(%rip)        # 4fb68 <_GLOBAL_OFFSET_TABLE_+0x240>
    6aa4:	0f 0b                	ud2    
    6aa6:	66 2e 0f 1f 84 00 00 	nopw   %cs:0x0(%rax,%rax,1)
    6aad:	00 00 00 

0000000000006ab0 <_ZN4core9panicking13assert_failed17h161e6c929429f467E>:
    6ab0:	48 83 ec 58          	sub    $0x58,%rsp
    6ab4:	48 89 74 24 10       	mov    %rsi,0x10(%rsp)
    6ab9:	48 89 54 24 18       	mov    %rdx,0x18(%rsp)
    6abe:	0f 10 01             	movups (%rcx),%xmm0
    6ac1:	0f 10 49 10          	movups 0x10(%rcx),%xmm1
    6ac5:	0f 10 51 20          	movups 0x20(%rcx),%xmm2
    6ac9:	0f 29 54 24 40       	movaps %xmm2,0x40(%rsp)
    6ace:	0f 29 4c 24 30       	movaps %xmm1,0x30(%rsp)
    6ad3:	0f 29 44 24 20       	movaps %xmm0,0x20(%rsp)
    6ad8:	4c 89 04 24          	mov    %r8,(%rsp)
    6adc:	48 8d 15 ad 6b 04 00 	lea    0x46bad(%rip),%rdx        # 4d690 <__init_array_end+0x408>
    6ae3:	48 8d 74 24 10       	lea    0x10(%rsp),%rsi
    6ae8:	48 8d 4c 24 18       	lea    0x18(%rsp),%rcx
    6aed:	4c 8d 4c 24 20       	lea    0x20(%rsp),%r9
    6af2:	49 89 d0             	mov    %rdx,%r8
    6af5:	ff 15 65 8e 04 00    	callq  *0x48e65(%rip)        # 4f960 <_GLOBAL_OFFSET_TABLE_+0x38>
    6afb:	0f 0b                	ud2    
    6afd:	0f 1f 00             	nopl   (%rax)

0000000000006b00 <_ZN5alloc7raw_vec19RawVec$LT$T$C$A$GT$7reserve21do_reserve_and_handle17h3dab4bf999c76c7bE>:
    6b00:	41 56                	push   %r14
    6b02:	53                   	push   %rbx
    6b03:	48 83 ec 38          	sub    $0x38,%rsp
    6b07:	48 ff c6             	inc    %rsi
    6b0a:	0f 84 ac 00 00 00    	je     6bbc <_ZN5alloc7raw_vec19RawVec$LT$T$C$A$GT$7reserve21do_reserve_and_handle17h3dab4bf999c76c7bE+0xbc>
    6b10:	49 89 fe             	mov    %rdi,%r14
    6b13:	48 8b 07             	mov    (%rdi),%rax
    6b16:	48 8d 0c 00          	lea    (%rax,%rax,1),%rcx
    6b1a:	48 39 f1             	cmp    %rsi,%rcx
    6b1d:	48 0f 47 f1          	cmova  %rcx,%rsi
    6b21:	48 83 fe 05          	cmp    $0x5,%rsi
    6b25:	bb 04 00 00 00       	mov    $0x4,%ebx
    6b2a:	48 0f 43 de          	cmovae %rsi,%rbx
    6b2e:	31 d2                	xor    %edx,%edx
    6b30:	48 89 d9             	mov    %rbx,%rcx
    6b33:	48 c1 e9 37          	shr    $0x37,%rcx
    6b37:	0f 94 c2             	sete   %dl
    6b3a:	48 89 de             	mov    %rbx,%rsi
    6b3d:	48 c1 e6 08          	shl    $0x8,%rsi
    6b41:	48 c1 e2 03          	shl    $0x3,%rdx
    6b45:	48 85 c0             	test   %rax,%rax
    6b48:	74 1d                	je     6b67 <_ZN5alloc7raw_vec19RawVec$LT$T$C$A$GT$7reserve21do_reserve_and_handle17h3dab4bf999c76c7bE+0x67>
    6b4a:	49 8b 4e 08          	mov    0x8(%r14),%rcx
    6b4e:	48 c1 e0 08          	shl    $0x8,%rax
    6b52:	48 89 4c 24 08       	mov    %rcx,0x8(%rsp)
    6b57:	48 89 44 24 10       	mov    %rax,0x10(%rsp)
    6b5c:	48 c7 44 24 18 08 00 	movq   $0x8,0x18(%rsp)
    6b63:	00 00 
    6b65:	eb 09                	jmp    6b70 <_ZN5alloc7raw_vec19RawVec$LT$T$C$A$GT$7reserve21do_reserve_and_handle17h3dab4bf999c76c7bE+0x70>
    6b67:	48 c7 44 24 18 00 00 	movq   $0x0,0x18(%rsp)
    6b6e:	00 00 
    6b70:	48 8d 7c 24 20       	lea    0x20(%rsp),%rdi
    6b75:	48 8d 4c 24 08       	lea    0x8(%rsp),%rcx
    6b7a:	e8 81 6e 00 00       	callq  da00 <_ZN5alloc7raw_vec11finish_grow17h0e02fc2dcb2cfcadE>
    6b7f:	48 83 7c 24 20 00    	cmpq   $0x0,0x20(%rsp)
    6b85:	48 8b 7c 24 28       	mov    0x28(%rsp),%rdi
    6b8a:	74 1c                	je     6ba8 <_ZN5alloc7raw_vec19RawVec$LT$T$C$A$GT$7reserve21do_reserve_and_handle17h3dab4bf999c76c7bE+0xa8>
    6b8c:	48 8b 74 24 30       	mov    0x30(%rsp),%rsi
    6b91:	48 b8 01 00 00 00 00 	movabs $0x8000000000000001,%rax
    6b98:	00 00 80 
    6b9b:	48 39 c6             	cmp    %rax,%rsi
    6b9e:	75 17                	jne    6bb7 <_ZN5alloc7raw_vec19RawVec$LT$T$C$A$GT$7reserve21do_reserve_and_handle17h3dab4bf999c76c7bE+0xb7>
    6ba0:	48 83 c4 38          	add    $0x38,%rsp
    6ba4:	5b                   	pop    %rbx
    6ba5:	41 5e                	pop    %r14
    6ba7:	c3                   	retq   
    6ba8:	49 89 7e 08          	mov    %rdi,0x8(%r14)
    6bac:	49 89 1e             	mov    %rbx,(%r14)
    6baf:	48 83 c4 38          	add    $0x38,%rsp
    6bb3:	5b                   	pop    %rbx
    6bb4:	41 5e                	pop    %r14
    6bb6:	c3                   	retq   
    6bb7:	48 85 f6             	test   %rsi,%rsi
    6bba:	75 08                	jne    6bc4 <_ZN5alloc7raw_vec19RawVec$LT$T$C$A$GT$7reserve21do_reserve_and_handle17h3dab4bf999c76c7bE+0xc4>
    6bbc:	ff 15 a6 92 04 00    	callq  *0x492a6(%rip)        # 4fe68 <_GLOBAL_OFFSET_TABLE_+0x540>
    6bc2:	0f 0b                	ud2    
    6bc4:	ff 15 4e 91 04 00    	callq  *0x4914e(%rip)        # 4fd18 <_GLOBAL_OFFSET_TABLE_+0x3f0>
    6bca:	0f 0b                	ud2    
    6bcc:	0f 1f 40 00          	nopl   0x0(%rax)

0000000000006bd0 <_ZN5alloc7raw_vec19RawVec$LT$T$C$A$GT$7reserve21do_reserve_and_handle17h735e7267b9a37275E>:
    6bd0:	41 56                	push   %r14
    6bd2:	53                   	push   %rbx
    6bd3:	48 83 ec 38          	sub    $0x38,%rsp
    6bd7:	48 01 d6             	add    %rdx,%rsi
    6bda:	0f 82 bb 00 00 00    	jb     6c9b <_ZN5alloc7raw_vec19RawVec$LT$T$C$A$GT$7reserve21do_reserve_and_handle17h735e7267b9a37275E+0xcb>
    6be0:	49 89 fe             	mov    %rdi,%r14
    6be3:	48 8b 07             	mov    (%rdi),%rax
    6be6:	48 8d 0c 00          	lea    (%rax,%rax,1),%rcx
    6bea:	48 39 f1             	cmp    %rsi,%rcx
    6bed:	48 0f 47 f1          	cmova  %rcx,%rsi
    6bf1:	48 83 fe 05          	cmp    $0x5,%rsi
    6bf5:	bb 04 00 00 00       	mov    $0x4,%ebx
    6bfa:	48 0f 43 de          	cmovae %rsi,%rbx
    6bfe:	48 b9 56 55 55 55 55 	movabs $0x555555555555556,%rcx
    6c05:	55 55 05 
    6c08:	31 d2                	xor    %edx,%edx
    6c0a:	48 39 cb             	cmp    %rcx,%rbx
    6c0d:	0f 92 c2             	setb   %dl
    6c10:	48 8d 0c dd 00 00 00 	lea    0x0(,%rbx,8),%rcx
    6c17:	00 
    6c18:	48 8d 34 49          	lea    (%rcx,%rcx,2),%rsi
    6c1c:	48 c1 e2 03          	shl    $0x3,%rdx
    6c20:	48 85 c0             	test   %rax,%rax
    6c23:	74 21                	je     6c46 <_ZN5alloc7raw_vec19RawVec$LT$T$C$A$GT$7reserve21do_reserve_and_handle17h735e7267b9a37275E+0x76>
    6c25:	49 8b 4e 08          	mov    0x8(%r14),%rcx
    6c29:	48 c1 e0 03          	shl    $0x3,%rax
    6c2d:	48 8d 04 40          	lea    (%rax,%rax,2),%rax
    6c31:	48 89 4c 24 08       	mov    %rcx,0x8(%rsp)
    6c36:	48 89 44 24 10       	mov    %rax,0x10(%rsp)
    6c3b:	48 c7 44 24 18 08 00 	movq   $0x8,0x18(%rsp)
    6c42:	00 00 
    6c44:	eb 09                	jmp    6c4f <_ZN5alloc7raw_vec19RawVec$LT$T$C$A$GT$7reserve21do_reserve_and_handle17h735e7267b9a37275E+0x7f>
    6c46:	48 c7 44 24 18 00 00 	movq   $0x0,0x18(%rsp)
    6c4d:	00 00 
    6c4f:	48 8d 7c 24 20       	lea    0x20(%rsp),%rdi
    6c54:	48 8d 4c 24 08       	lea    0x8(%rsp),%rcx
    6c59:	e8 a2 6d 00 00       	callq  da00 <_ZN5alloc7raw_vec11finish_grow17h0e02fc2dcb2cfcadE>
    6c5e:	48 83 7c 24 20 00    	cmpq   $0x0,0x20(%rsp)
    6c64:	48 8b 7c 24 28       	mov    0x28(%rsp),%rdi
    6c69:	74 1c                	je     6c87 <_ZN5alloc7raw_vec19RawVec$LT$T$C$A$GT$7reserve21do_reserve_and_handle17h735e7267b9a37275E+0xb7>
    6c6b:	48 8b 74 24 30       	mov    0x30(%rsp),%rsi
    6c70:	48 b8 01 00 00 00 00 	movabs $0x8000000000000001,%rax
    6c77:	00 00 80 
    6c7a:	48 39 c6             	cmp    %rax,%rsi
    6c7d:	75 17                	jne    6c96 <_ZN5alloc7raw_vec19RawVec$LT$T$C$A$GT$7reserve21do_reserve_and_handle17h735e7267b9a37275E+0xc6>
    6c7f:	48 83 c4 38          	add    $0x38,%rsp
    6c83:	5b                   	pop    %rbx
    6c84:	41 5e                	pop    %r14
    6c86:	c3                   	retq   
    6c87:	49 89 7e 08          	mov    %rdi,0x8(%r14)
    6c8b:	49 89 1e             	mov    %rbx,(%r14)
    6c8e:	48 83 c4 38          	add    $0x38,%rsp
    6c92:	5b                   	pop    %rbx
    6c93:	41 5e                	pop    %r14
    6c95:	c3                   	retq   
    6c96:	48 85 f6             	test   %rsi,%rsi
    6c99:	75 08                	jne    6ca3 <_ZN5alloc7raw_vec19RawVec$LT$T$C$A$GT$7reserve21do_reserve_and_handle17h735e7267b9a37275E+0xd3>
    6c9b:	ff 15 c7 91 04 00    	callq  *0x491c7(%rip)        # 4fe68 <_GLOBAL_OFFSET_TABLE_+0x540>
    6ca1:	0f 0b                	ud2    
    6ca3:	ff 15 6f 90 04 00    	callq  *0x4906f(%rip)        # 4fd18 <_GLOBAL_OFFSET_TABLE_+0x3f0>
    6ca9:	0f 0b                	ud2    
    6cab:	0f 1f 44 00 00       	nopl   0x0(%rax,%rax,1)

0000000000006cb0 <_ZN5alloc7raw_vec19RawVec$LT$T$C$A$GT$7reserve21do_reserve_and_handle17ha57cc3a057baec40E>:
    6cb0:	41 56                	push   %r14
    6cb2:	53                   	push   %rbx
    6cb3:	48 83 ec 38          	sub    $0x38,%rsp
    6cb7:	48 01 d6             	add    %rdx,%rsi
    6cba:	0f 82 9e 00 00 00    	jb     6d5e <_ZN5alloc7raw_vec19RawVec$LT$T$C$A$GT$7reserve21do_reserve_and_handle17ha57cc3a057baec40E+0xae>
    6cc0:	49 89 fe             	mov    %rdi,%r14
    6cc3:	48 8b 07             	mov    (%rdi),%rax
    6cc6:	48 8d 0c 00          	lea    (%rax,%rax,1),%rcx
    6cca:	48 39 f1             	cmp    %rsi,%rcx
    6ccd:	48 0f 47 f1          	cmova  %rcx,%rsi
    6cd1:	48 83 fe 09          	cmp    $0x9,%rsi
    6cd5:	bb 08 00 00 00       	mov    $0x8,%ebx
    6cda:	48 0f 43 de          	cmovae %rsi,%rbx
    6cde:	48 89 da             	mov    %rbx,%rdx
    6ce1:	48 f7 d2             	not    %rdx
    6ce4:	48 c1 ea 3f          	shr    $0x3f,%rdx
    6ce8:	48 85 c0             	test   %rax,%rax
    6ceb:	74 19                	je     6d06 <_ZN5alloc7raw_vec19RawVec$LT$T$C$A$GT$7reserve21do_reserve_and_handle17ha57cc3a057baec40E+0x56>
    6ced:	49 8b 4e 08          	mov    0x8(%r14),%rcx
    6cf1:	48 89 4c 24 08       	mov    %rcx,0x8(%rsp)
    6cf6:	48 89 44 24 10       	mov    %rax,0x10(%rsp)
    6cfb:	48 c7 44 24 18 01 00 	movq   $0x1,0x18(%rsp)
    6d02:	00 00 
    6d04:	eb 09                	jmp    6d0f <_ZN5alloc7raw_vec19RawVec$LT$T$C$A$GT$7reserve21do_reserve_and_handle17ha57cc3a057baec40E+0x5f>
    6d06:	48 c7 44 24 18 00 00 	movq   $0x0,0x18(%rsp)
    6d0d:	00 00 
    6d0f:	48 8d 7c 24 20       	lea    0x20(%rsp),%rdi
    6d14:	48 8d 4c 24 08       	lea    0x8(%rsp),%rcx
    6d19:	48 89 de             	mov    %rbx,%rsi
    6d1c:	e8 df 6c 00 00       	callq  da00 <_ZN5alloc7raw_vec11finish_grow17h0e02fc2dcb2cfcadE>
    6d21:	48 83 7c 24 20 00    	cmpq   $0x0,0x20(%rsp)
    6d27:	48 8b 7c 24 28       	mov    0x28(%rsp),%rdi
    6d2c:	74 1c                	je     6d4a <_ZN5alloc7raw_vec19RawVec$LT$T$C$A$GT$7reserve21do_reserve_and_handle17ha57cc3a057baec40E+0x9a>
    6d2e:	48 8b 74 24 30       	mov    0x30(%rsp),%rsi
    6d33:	48 b8 01 00 00 00 00 	movabs $0x8000000000000001,%rax
    6d3a:	00 00 80 
    6d3d:	48 39 c6             	cmp    %rax,%rsi
    6d40:	75 17                	jne    6d59 <_ZN5alloc7raw_vec19RawVec$LT$T$C$A$GT$7reserve21do_reserve_and_handle17ha57cc3a057baec40E+0xa9>
    6d42:	48 83 c4 38          	add    $0x38,%rsp
    6d46:	5b                   	pop    %rbx
    6d47:	41 5e                	pop    %r14
    6d49:	c3                   	retq   
    6d4a:	49 89 7e 08          	mov    %rdi,0x8(%r14)
    6d4e:	49 89 1e             	mov    %rbx,(%r14)
    6d51:	48 83 c4 38          	add    $0x38,%rsp
    6d55:	5b                   	pop    %rbx
    6d56:	41 5e                	pop    %r14
    6d58:	c3                   	retq   
    6d59:	48 85 f6             	test   %rsi,%rsi
    6d5c:	75 08                	jne    6d66 <_ZN5alloc7raw_vec19RawVec$LT$T$C$A$GT$7reserve21do_reserve_and_handle17ha57cc3a057baec40E+0xb6>
    6d5e:	ff 15 04 91 04 00    	callq  *0x49104(%rip)        # 4fe68 <_GLOBAL_OFFSET_TABLE_+0x540>
    6d64:	0f 0b                	ud2    
    6d66:	ff 15 ac 8f 04 00    	callq  *0x48fac(%rip)        # 4fd18 <_GLOBAL_OFFSET_TABLE_+0x3f0>
    6d6c:	0f 0b                	ud2    
    6d6e:	66 90                	xchg   %ax,%ax

0000000000006d70 <_ZN3std6thread8ThreadId3new9exhausted17hb836fad0a4354fa3E>:
    6d70:	48 83 ec 38          	sub    $0x38,%rsp
    6d74:	48 8d 05 b5 6b 04 00 	lea    0x46bb5(%rip),%rax        # 4d930 <__init_array_end+0x6a8>
    6d7b:	48 89 44 24 18       	mov    %rax,0x18(%rsp)
    6d80:	48 c7 44 24 20 01 00 	movq   $0x1,0x20(%rsp)
    6d87:	00 00 
    6d89:	48 c7 44 24 08 00 00 	movq   $0x0,0x8(%rsp)
    6d90:	00 00 
    6d92:	48 8d 05 57 94 03 00 	lea    0x39457(%rip),%rax        # 401f0 <_fini+0x146c>
    6d99:	48 89 44 24 28       	mov    %rax,0x28(%rsp)
    6d9e:	48 c7 44 24 30 00 00 	movq   $0x0,0x30(%rsp)
    6da5:	00 00 
    6da7:	48 8d 35 92 6b 04 00 	lea    0x46b92(%rip),%rsi        # 4d940 <__init_array_end+0x6b8>
    6dae:	48 8d 7c 24 08       	lea    0x8(%rsp),%rdi
    6db3:	ff 15 57 8f 04 00    	callq  *0x48f57(%rip)        # 4fd10 <_GLOBAL_OFFSET_TABLE_+0x3e8>
    6db9:	0f 0b                	ud2    
    6dbb:	0f 1f 44 00 00       	nopl   0x0(%rax,%rax,1)

0000000000006dc0 <_ZN3std2io8buffered9bufwriter18BufWriter$LT$W$GT$14write_all_cold17h57fcd5cf1d444c8eE>:
    6dc0:	55                   	push   %rbp
    6dc1:	41 57                	push   %r15
    6dc3:	41 56                	push   %r14
    6dc5:	41 55                	push   %r13
    6dc7:	41 54                	push   %r12
    6dc9:	53                   	push   %rbx
    6dca:	50                   	push   %rax
    6dcb:	49 89 d5             	mov    %rdx,%r13
    6dce:	49 89 f7             	mov    %rsi,%r15
    6dd1:	49 89 fe             	mov    %rdi,%r14
    6dd4:	48 8b 07             	mov    (%rdi),%rax
    6dd7:	48 89 c1             	mov    %rax,%rcx
    6dda:	48 2b 4f 10          	sub    0x10(%rdi),%rcx
    6dde:	48 39 d1             	cmp    %rdx,%rcx
    6de1:	73 14                	jae    6df7 <_ZN3std2io8buffered9bufwriter18BufWriter$LT$W$GT$14write_all_cold17h57fcd5cf1d444c8eE+0x37>
    6de3:	4c 89 f7             	mov    %r14,%rdi
    6de6:	e8 35 69 01 00       	callq  1d720 <_ZN3std2io8buffered9bufwriter18BufWriter$LT$W$GT$9flush_buf17h2702e03433bfa665E>
    6deb:	48 85 c0             	test   %rax,%rax
    6dee:	0f 85 a5 00 00 00    	jne    6e99 <_ZN3std2io8buffered9bufwriter18BufWriter$LT$W$GT$14write_all_cold17h57fcd5cf1d444c8eE+0xd9>
    6df4:	49 8b 06             	mov    (%r14),%rax
    6df7:	4c 39 e8             	cmp    %r13,%rax
    6dfa:	76 22                	jbe    6e1e <_ZN3std2io8buffered9bufwriter18BufWriter$LT$W$GT$14write_all_cold17h57fcd5cf1d444c8eE+0x5e>
    6dfc:	49 8b 5e 10          	mov    0x10(%r14),%rbx
    6e00:	49 8b 7e 08          	mov    0x8(%r14),%rdi
    6e04:	48 01 df             	add    %rbx,%rdi
    6e07:	4c 89 fe             	mov    %r15,%rsi
    6e0a:	4c 89 ea             	mov    %r13,%rdx
    6e0d:	ff 15 d5 8e 04 00    	callq  *0x48ed5(%rip)        # 4fce8 <memcpy@GLIBC_2.14>
    6e13:	4c 01 eb             	add    %r13,%rbx
    6e16:	49 89 5e 10          	mov    %rbx,0x10(%r14)
    6e1a:	31 c0                	xor    %eax,%eax
    6e1c:	eb 7b                	jmp    6e99 <_ZN3std2io8buffered9bufwriter18BufWriter$LT$W$GT$14write_all_cold17h57fcd5cf1d444c8eE+0xd9>
    6e1e:	41 c6 46 18 01       	movb   $0x1,0x18(%r14)
    6e23:	4d 85 ed             	test   %r13,%r13
    6e26:	74 65                	je     6e8d <_ZN3std2io8buffered9bufwriter18BufWriter$LT$W$GT$14write_all_cold17h57fcd5cf1d444c8eE+0xcd>
    6e28:	48 bd ff ff ff ff ff 	movabs $0x7fffffffffffffff,%rbp
    6e2f:	ff ff 7f 
    6e32:	4c 8b 25 77 8c 04 00 	mov    0x48c77(%rip),%r12        # 4fab0 <write@GLIBC_2.2.5>
    6e39:	eb 1e                	jmp    6e59 <_ZN3std2io8buffered9bufwriter18BufWriter$LT$W$GT$14write_all_cold17h57fcd5cf1d444c8eE+0x99>
    6e3b:	0f 1f 44 00 00       	nopl   0x0(%rax,%rax,1)
    6e40:	ff 15 a2 8b 04 00    	callq  *0x48ba2(%rip)        # 4f9e8 <__errno_location@GLIBC_2.2.5>
    6e46:	8b 18                	mov    (%rax),%ebx
    6e48:	89 df                	mov    %ebx,%edi
    6e4a:	ff 15 88 8b 04 00    	callq  *0x48b88(%rip)        # 4f9d8 <_GLOBAL_OFFSET_TABLE_+0xb0>
    6e50:	3c 23                	cmp    $0x23,%al
    6e52:	75 5d                	jne    6eb1 <_ZN3std2io8buffered9bufwriter18BufWriter$LT$W$GT$14write_all_cold17h57fcd5cf1d444c8eE+0xf1>
    6e54:	4d 85 ed             	test   %r13,%r13
    6e57:	74 34                	je     6e8d <_ZN3std2io8buffered9bufwriter18BufWriter$LT$W$GT$14write_all_cold17h57fcd5cf1d444c8eE+0xcd>
    6e59:	4c 89 ea             	mov    %r13,%rdx
    6e5c:	49 39 ed             	cmp    %rbp,%r13
    6e5f:	72 03                	jb     6e64 <_ZN3std2io8buffered9bufwriter18BufWriter$LT$W$GT$14write_all_cold17h57fcd5cf1d444c8eE+0xa4>
    6e61:	48 89 ea             	mov    %rbp,%rdx
    6e64:	bf 01 00 00 00       	mov    $0x1,%edi
    6e69:	4c 89 fe             	mov    %r15,%rsi
    6e6c:	41 ff d4             	callq  *%r12
    6e6f:	48 83 f8 ff          	cmp    $0xffffffffffffffff,%rax
    6e73:	74 cb                	je     6e40 <_ZN3std2io8buffered9bufwriter18BufWriter$LT$W$GT$14write_all_cold17h57fcd5cf1d444c8eE+0x80>
    6e75:	48 85 c0             	test   %rax,%rax
    6e78:	74 2e                	je     6ea8 <_ZN3std2io8buffered9bufwriter18BufWriter$LT$W$GT$14write_all_cold17h57fcd5cf1d444c8eE+0xe8>
    6e7a:	4c 89 e9             	mov    %r13,%rcx
    6e7d:	48 29 c1             	sub    %rax,%rcx
    6e80:	72 3c                	jb     6ebe <_ZN3std2io8buffered9bufwriter18BufWriter$LT$W$GT$14write_all_cold17h57fcd5cf1d444c8eE+0xfe>
    6e82:	49 01 c7             	add    %rax,%r15
    6e85:	49 89 cd             	mov    %rcx,%r13
    6e88:	4d 85 ed             	test   %r13,%r13
    6e8b:	75 cc                	jne    6e59 <_ZN3std2io8buffered9bufwriter18BufWriter$LT$W$GT$14write_all_cold17h57fcd5cf1d444c8eE+0x99>
    6e8d:	31 ff                	xor    %edi,%edi
    6e8f:	e8 cc 71 01 00       	callq  1e060 <_ZN3std2io5stdio12handle_ebadf17h8ac9afe5f4fb17cbE>
    6e94:	41 c6 46 18 00       	movb   $0x0,0x18(%r14)
    6e99:	48 83 c4 08          	add    $0x8,%rsp
    6e9d:	5b                   	pop    %rbx
    6e9e:	41 5c                	pop    %r12
    6ea0:	41 5d                	pop    %r13
    6ea2:	41 5e                	pop    %r14
    6ea4:	41 5f                	pop    %r15
    6ea6:	5d                   	pop    %rbp
    6ea7:	c3                   	retq   
    6ea8:	48 8d 3d f1 6b 04 00 	lea    0x46bf1(%rip),%rdi        # 4daa0 <__init_array_end+0x818>
    6eaf:	eb de                	jmp    6e8f <_ZN3std2io8buffered9bufwriter18BufWriter$LT$W$GT$14write_all_cold17h57fcd5cf1d444c8eE+0xcf>
    6eb1:	48 c1 e3 20          	shl    $0x20,%rbx
    6eb5:	48 83 cb 02          	or     $0x2,%rbx
    6eb9:	48 89 df             	mov    %rbx,%rdi
    6ebc:	eb d1                	jmp    6e8f <_ZN3std2io8buffered9bufwriter18BufWriter$LT$W$GT$14write_all_cold17h57fcd5cf1d444c8eE+0xcf>
    6ebe:	48 8d 15 c3 6b 04 00 	lea    0x46bc3(%rip),%rdx        # 4da88 <__init_array_end+0x800>
    6ec5:	48 89 c7             	mov    %rax,%rdi
    6ec8:	4c 89 ee             	mov    %r13,%rsi
    6ecb:	ff 15 27 8e 04 00    	callq  *0x48e27(%rip)        # 4fcf8 <_GLOBAL_OFFSET_TABLE_+0x3d0>
    6ed1:	0f 0b                	ud2    
    6ed3:	66 2e 0f 1f 84 00 00 	nopw   %cs:0x0(%rax,%rax,1)
    6eda:	00 00 00 
    6edd:	0f 1f 00             	nopl   (%rax)

0000000000006ee0 <_ZN3std7process5abort17hb8296b0616ba8b69E>:
    6ee0:	50                   	push   %rax
    6ee1:	ff 15 41 8b 04 00    	callq  *0x48b41(%rip)        # 4fa28 <_GLOBAL_OFFSET_TABLE_+0x100>
    6ee7:	0f 0b                	ud2    
    6ee9:	0f 1f 80 00 00 00 00 	nopl   0x0(%rax)

0000000000006ef0 <_ZN3std4sync9once_lock17OnceLock$LT$T$GT$10initialize17h6f46b82ca88c9054E>:
    6ef0:	48 83 ec 28          	sub    $0x28,%rsp
    6ef4:	8b 05 7e 91 04 00    	mov    0x4917e(%rip),%eax        # 50078 <_ZN3std2io5stdio6STDOUT17h07548eb382b139dcE+0x38>
    6efa:	83 f8 04             	cmp    $0x4,%eax
    6efd:	75 05                	jne    6f04 <_ZN3std4sync9once_lock17OnceLock$LT$T$GT$10initialize17h6f46b82ca88c9054E+0x14>
    6eff:	48 83 c4 28          	add    $0x28,%rsp
    6f03:	c3                   	retq   
    6f04:	48 8d 05 35 91 04 00 	lea    0x49135(%rip),%rax        # 50040 <_ZN3std2io5stdio6STDOUT17h07548eb382b139dcE>
    6f0b:	48 89 44 24 18       	mov    %rax,0x18(%rsp)
    6f10:	48 8d 44 24 08       	lea    0x8(%rsp),%rax
    6f15:	48 89 44 24 20       	mov    %rax,0x20(%rsp)
    6f1a:	48 8d 44 24 18       	lea    0x18(%rsp),%rax
    6f1f:	48 89 44 24 10       	mov    %rax,0x10(%rsp)
    6f24:	48 8d 7c 24 10       	lea    0x10(%rsp),%rdi
    6f29:	e8 c2 0c 00 00       	callq  7bf0 <_ZN3std10sys_common4once5futex4Once4call17hc0ec23c12885a3deE>
    6f2e:	48 83 c4 28          	add    $0x28,%rsp
    6f32:	c3                   	retq   
    6f33:	66 2e 0f 1f 84 00 00 	nopw   %cs:0x0(%rax,%rax,1)
    6f3a:	00 00 00 
    6f3d:	0f 1f 00             	nopl   (%rax)

0000000000006f40 <_ZN3std4sync9once_lock17OnceLock$LT$T$GT$10initialize17hcf941e9a470d41d5E>:
    6f40:	48 83 ec 28          	sub    $0x28,%rsp
    6f44:	8b 05 2e 91 04 00    	mov    0x4912e(%rip),%eax        # 50078 <_ZN3std2io5stdio6STDOUT17h07548eb382b139dcE+0x38>
    6f4a:	83 f8 04             	cmp    $0x4,%eax
    6f4d:	75 05                	jne    6f54 <_ZN3std4sync9once_lock17OnceLock$LT$T$GT$10initialize17hcf941e9a470d41d5E+0x14>
    6f4f:	48 83 c4 28          	add    $0x28,%rsp
    6f53:	c3                   	retq   
    6f54:	48 89 7c 24 10       	mov    %rdi,0x10(%rsp)
    6f59:	48 8d 05 e0 90 04 00 	lea    0x490e0(%rip),%rax        # 50040 <_ZN3std2io5stdio6STDOUT17h07548eb382b139dcE>
    6f60:	48 89 44 24 18       	mov    %rax,0x18(%rsp)
    6f65:	48 89 e0             	mov    %rsp,%rax
    6f68:	48 89 44 24 20       	mov    %rax,0x20(%rsp)
    6f6d:	48 8d 44 24 10       	lea    0x10(%rsp),%rax
    6f72:	48 89 44 24 08       	mov    %rax,0x8(%rsp)
    6f77:	48 8d 7c 24 08       	lea    0x8(%rsp),%rdi
    6f7c:	e8 df 0e 00 00       	callq  7e60 <_ZN3std10sys_common4once5futex4Once4call17he7aba65f80e562a9E>
    6f81:	48 83 c4 28          	add    $0x28,%rsp
    6f85:	c3                   	retq   
    6f86:	66 2e 0f 1f 84 00 00 	nopw   %cs:0x0(%rax,%rax,1)
    6f8d:	00 00 00 

0000000000006f90 <_ZN3std3sys6common14small_c_string24run_with_cstr_allocating17h0be216e58551863aE>:
    6f90:	41 57                	push   %r15
    6f92:	41 56                	push   %r14
    6f94:	41 54                	push   %r12
    6f96:	53                   	push   %rbx
    6f97:	48 83 ec 28          	sub    $0x28,%rsp
    6f9b:	48 89 f2             	mov    %rsi,%rdx
    6f9e:	48 89 fe             	mov    %rdi,%rsi
    6fa1:	48 8d 7c 24 08       	lea    0x8(%rsp),%rdi
    6fa6:	ff 15 84 8b 04 00    	callq  *0x48b84(%rip)        # 4fb30 <_GLOBAL_OFFSET_TABLE_+0x208>
    6fac:	48 8b 7c 24 18       	mov    0x18(%rsp),%rdi
    6fb1:	48 85 ff             	test   %rdi,%rdi
    6fb4:	74 23                	je     6fd9 <_ZN3std3sys6common14small_c_string24run_with_cstr_allocating17h0be216e58551863aE+0x49>
    6fb6:	48 8b 74 24 10       	mov    0x10(%rsp),%rsi
    6fbb:	4c 8d 35 4e 6d 04 00 	lea    0x46d4e(%rip),%r14        # 4dd10 <__init_array_end+0xa88>
    6fc2:	bb 01 00 00 00       	mov    $0x1,%ebx
    6fc7:	48 85 f6             	test   %rsi,%rsi
    6fca:	74 43                	je     700f <_ZN3std3sys6common14small_c_string24run_with_cstr_allocating17h0be216e58551863aE+0x7f>
    6fcc:	ba 01 00 00 00       	mov    $0x1,%edx
    6fd1:	ff 15 d9 8b 04 00    	callq  *0x48bd9(%rip)        # 4fbb0 <_GLOBAL_OFFSET_TABLE_+0x288>
    6fd7:	eb 36                	jmp    700f <_ZN3std3sys6common14small_c_string24run_with_cstr_allocating17h0be216e58551863aE+0x7f>
    6fd9:	4c 8b 7c 24 08       	mov    0x8(%rsp),%r15
    6fde:	4c 8b 64 24 10       	mov    0x10(%rsp),%r12
    6fe3:	31 db                	xor    %ebx,%ebx
    6fe5:	4c 89 ff             	mov    %r15,%rdi
    6fe8:	31 f6                	xor    %esi,%esi
    6fea:	ff 15 f0 8c 04 00    	callq  *0x48cf0(%rip)        # 4fce0 <realpath@GLIBC_2.3>
    6ff0:	49 89 c6             	mov    %rax,%r14
    6ff3:	41 c6 07 00          	movb   $0x0,(%r15)
    6ff7:	4d 85 e4             	test   %r12,%r12
    6ffa:	74 13                	je     700f <_ZN3std3sys6common14small_c_string24run_with_cstr_allocating17h0be216e58551863aE+0x7f>
    6ffc:	ba 01 00 00 00       	mov    $0x1,%edx
    7001:	4c 89 ff             	mov    %r15,%rdi
    7004:	4c 89 e6             	mov    %r12,%rsi
    7007:	ff 15 a3 8b 04 00    	callq  *0x48ba3(%rip)        # 4fbb0 <_GLOBAL_OFFSET_TABLE_+0x288>
    700d:	31 db                	xor    %ebx,%ebx
    700f:	48 89 d8             	mov    %rbx,%rax
    7012:	4c 89 f2             	mov    %r14,%rdx
    7015:	48 83 c4 28          	add    $0x28,%rsp
    7019:	5b                   	pop    %rbx
    701a:	41 5c                	pop    %r12
    701c:	41 5e                	pop    %r14
    701e:	41 5f                	pop    %r15
    7020:	c3                   	retq   
    7021:	66 2e 0f 1f 84 00 00 	nopw   %cs:0x0(%rax,%rax,1)
    7028:	00 00 00 
    702b:	0f 1f 44 00 00       	nopl   0x0(%rax,%rax,1)

0000000000007030 <_ZN3std3sys6common14small_c_string24run_with_cstr_allocating17h271d8b0600662119E>:
    7030:	41 57                	push   %r15
    7032:	41 56                	push   %r14
    7034:	41 54                	push   %r12
    7036:	53                   	push   %rbx
    7037:	48 81 ec 78 01 00 00 	sub    $0x178,%rsp
    703e:	48 89 fb             	mov    %rdi,%rbx
    7041:	48 8d 7c 24 10       	lea    0x10(%rsp),%rdi
    7046:	ff 15 e4 8a 04 00    	callq  *0x48ae4(%rip)        # 4fb30 <_GLOBAL_OFFSET_TABLE_+0x208>
    704c:	48 8b 7c 24 20       	mov    0x20(%rsp),%rdi
    7051:	48 85 ff             	test   %rdi,%rdi
    7054:	74 39                	je     708f <_ZN3std3sys6common14small_c_string24run_with_cstr_allocating17h271d8b0600662119E+0x5f>
    7056:	48 8d 05 b3 6c 04 00 	lea    0x46cb3(%rip),%rax        # 4dd10 <__init_array_end+0xa88>
    705d:	48 89 43 08          	mov    %rax,0x8(%rbx)
    7061:	48 c7 03 02 00 00 00 	movq   $0x2,(%rbx)
    7068:	48 8b 74 24 18       	mov    0x18(%rsp),%rsi
    706d:	48 85 f6             	test   %rsi,%rsi
    7070:	0f 84 19 01 00 00    	je     718f <_ZN3std3sys6common14small_c_string24run_with_cstr_allocating17h271d8b0600662119E+0x15f>
    7076:	ba 01 00 00 00       	mov    $0x1,%edx
    707b:	48 81 c4 78 01 00 00 	add    $0x178,%rsp
    7082:	5b                   	pop    %rbx
    7083:	41 5c                	pop    %r12
    7085:	41 5e                	pop    %r14
    7087:	41 5f                	pop    %r15
    7089:	ff 25 21 8b 04 00    	jmpq   *0x48b21(%rip)        # 4fbb0 <_GLOBAL_OFFSET_TABLE_+0x288>
    708f:	4c 8b 7c 24 10       	mov    0x10(%rsp),%r15
    7094:	4c 8b 74 24 18       	mov    0x18(%rsp),%r14
    7099:	4c 89 3c 24          	mov    %r15,(%rsp)
    709d:	4c 89 74 24 08       	mov    %r14,0x8(%rsp)
    70a2:	48 8d bc 24 c8 00 00 	lea    0xc8(%rsp),%rdi
    70a9:	00 
    70aa:	be 9c ff ff ff       	mov    $0xffffff9c,%esi
    70af:	4c 89 fa             	mov    %r15,%rdx
    70b2:	31 c9                	xor    %ecx,%ecx
    70b4:	e8 f7 d5 01 00       	callq  246b0 <_ZN3std3sys4unix2fs9try_statx17h85bd7ebc709fc602E>
    70b9:	83 bc 24 c8 00 00 00 	cmpl   $0x3,0xc8(%rsp)
    70c0:	03 
    70c1:	0f 85 98 00 00 00    	jne    715f <_ZN3std3sys6common14small_c_string24run_with_cstr_allocating17h271d8b0600662119E+0x12f>
    70c7:	0f 57 c0             	xorps  %xmm0,%xmm0
    70ca:	0f 29 84 24 b0 00 00 	movaps %xmm0,0xb0(%rsp)
    70d1:	00 
    70d2:	0f 29 84 24 a0 00 00 	movaps %xmm0,0xa0(%rsp)
    70d9:	00 
    70da:	0f 29 84 24 90 00 00 	movaps %xmm0,0x90(%rsp)
    70e1:	00 
    70e2:	0f 29 84 24 80 00 00 	movaps %xmm0,0x80(%rsp)
    70e9:	00 
    70ea:	0f 29 44 24 70       	movaps %xmm0,0x70(%rsp)
    70ef:	0f 29 44 24 60       	movaps %xmm0,0x60(%rsp)
    70f4:	0f 29 44 24 50       	movaps %xmm0,0x50(%rsp)
    70f9:	0f 29 44 24 40       	movaps %xmm0,0x40(%rsp)
    70fe:	0f 29 44 24 30       	movaps %xmm0,0x30(%rsp)
    7103:	48 8d 74 24 30       	lea    0x30(%rsp),%rsi
    7108:	4c 89 ff             	mov    %r15,%rdi
    710b:	ff 15 7f 8a 04 00    	callq  *0x48a7f(%rip)        # 4fb90 <_GLOBAL_OFFSET_TABLE_+0x268>
    7111:	83 f8 ff             	cmp    $0xffffffff,%eax
    7114:	0f 84 84 00 00 00    	je     719e <_ZN3std3sys6common14small_c_string24run_with_cstr_allocating17h271d8b0600662119E+0x16e>
    711a:	48 8d bc 24 e0 00 00 	lea    0xe0(%rsp),%rdi
    7121:	00 
    7122:	48 8d 74 24 30       	lea    0x30(%rsp),%rsi
    7127:	4c 8b 25 ba 8b 04 00 	mov    0x48bba(%rip),%r12        # 4fce8 <memcpy@GLIBC_2.14>
    712e:	ba 90 00 00 00       	mov    $0x90,%edx
    7133:	41 ff d4             	callq  *%r12
    7136:	48 c7 03 00 00 00 00 	movq   $0x0,(%rbx)
    713d:	48 83 c3 08          	add    $0x8,%rbx
    7141:	48 8d b4 24 c8 00 00 	lea    0xc8(%rsp),%rsi
    7148:	00 
    7149:	ba a8 00 00 00       	mov    $0xa8,%edx
    714e:	48 89 df             	mov    %rbx,%rdi
    7151:	41 ff d4             	callq  *%r12
    7154:	41 c6 07 00          	movb   $0x0,(%r15)
    7158:	4d 85 f6             	test   %r14,%r14
    715b:	75 21                	jne    717e <_ZN3std3sys6common14small_c_string24run_with_cstr_allocating17h271d8b0600662119E+0x14e>
    715d:	eb 30                	jmp    718f <_ZN3std3sys6common14small_c_string24run_with_cstr_allocating17h271d8b0600662119E+0x15f>
    715f:	48 8d b4 24 c8 00 00 	lea    0xc8(%rsp),%rsi
    7166:	00 
    7167:	ba b0 00 00 00       	mov    $0xb0,%edx
    716c:	48 89 df             	mov    %rbx,%rdi
    716f:	ff 15 73 8b 04 00    	callq  *0x48b73(%rip)        # 4fce8 <memcpy@GLIBC_2.14>
    7175:	41 c6 07 00          	movb   $0x0,(%r15)
    7179:	4d 85 f6             	test   %r14,%r14
    717c:	74 11                	je     718f <_ZN3std3sys6common14small_c_string24run_with_cstr_allocating17h271d8b0600662119E+0x15f>
    717e:	ba 01 00 00 00       	mov    $0x1,%edx
    7183:	4c 89 ff             	mov    %r15,%rdi
    7186:	4c 89 f6             	mov    %r14,%rsi
    7189:	ff 15 21 8a 04 00    	callq  *0x48a21(%rip)        # 4fbb0 <_GLOBAL_OFFSET_TABLE_+0x288>
    718f:	48 81 c4 78 01 00 00 	add    $0x178,%rsp
    7196:	5b                   	pop    %rbx
    7197:	41 5c                	pop    %r12
    7199:	41 5e                	pop    %r14
    719b:	41 5f                	pop    %r15
    719d:	c3                   	retq   
    719e:	ff 15 44 88 04 00    	callq  *0x48844(%rip)        # 4f9e8 <__errno_location@GLIBC_2.2.5>
    71a4:	8b 00                	mov    (%rax),%eax
    71a6:	48 c1 e0 20          	shl    $0x20,%rax
    71aa:	48 83 c8 02          	or     $0x2,%rax
    71ae:	48 89 43 08          	mov    %rax,0x8(%rbx)
    71b2:	48 c7 03 02 00 00 00 	movq   $0x2,(%rbx)
    71b9:	41 c6 07 00          	movb   $0x0,(%r15)
    71bd:	4d 85 f6             	test   %r14,%r14
    71c0:	75 bc                	jne    717e <_ZN3std3sys6common14small_c_string24run_with_cstr_allocating17h271d8b0600662119E+0x14e>
    71c2:	eb cb                	jmp    718f <_ZN3std3sys6common14small_c_string24run_with_cstr_allocating17h271d8b0600662119E+0x15f>
    71c4:	48 89 c3             	mov    %rax,%rbx
    71c7:	48 89 e7             	mov    %rsp,%rdi
    71ca:	e8 d1 34 00 00       	callq  a6a0 <_ZN4core3ptr47drop_in_place$LT$alloc..ffi..c_str..CString$GT$17hd6c091a5d1e80d78E>
    71cf:	48 89 df             	mov    %rbx,%rdi
    71d2:	e8 89 ee ff ff       	callq  6060 <_Unwind_Resume@plt>
    71d7:	0f 0b                	ud2    
    71d9:	ff 15 b1 8b 04 00    	callq  *0x48bb1(%rip)        # 4fd90 <_GLOBAL_OFFSET_TABLE_+0x468>
    71df:	0f 0b                	ud2    
    71e1:	66 2e 0f 1f 84 00 00 	nopw   %cs:0x0(%rax,%rax,1)
    71e8:	00 00 00 
    71eb:	0f 1f 44 00 00       	nopl   0x0(%rax,%rax,1)

00000000000071f0 <_ZN3std3sys6common14small_c_string24run_with_cstr_allocating17h68a68e9ca9a5af4cE>:
    71f0:	41 56                	push   %r14
    71f2:	53                   	push   %rbx
    71f3:	48 83 ec 38          	sub    $0x38,%rsp
    71f7:	48 89 f2             	mov    %rsi,%rdx
    71fa:	48 89 fe             	mov    %rdi,%rsi
    71fd:	48 8d 7c 24 18       	lea    0x18(%rsp),%rdi
    7202:	ff 15 28 89 04 00    	callq  *0x48928(%rip)        # 4fb30 <_GLOBAL_OFFSET_TABLE_+0x208>
    7208:	48 8b 7c 24 28       	mov    0x28(%rsp),%rdi
    720d:	48 85 ff             	test   %rdi,%rdi
    7210:	74 11                	je     7223 <_ZN3std3sys6common14small_c_string24run_with_cstr_allocating17h68a68e9ca9a5af4cE+0x33>
    7212:	4c 8d 35 f7 6a 04 00 	lea    0x46af7(%rip),%r14        # 4dd10 <__init_array_end+0xa88>
    7219:	bb 01 00 00 00       	mov    $0x1,%ebx
    721e:	e9 b1 00 00 00       	jmpq   72d4 <_ZN3std3sys6common14small_c_string24run_with_cstr_allocating17h68a68e9ca9a5af4cE+0xe4>
    7223:	48 8b 5c 24 18       	mov    0x18(%rsp),%rbx
    7228:	48 8b 44 24 20       	mov    0x20(%rsp),%rax
    722d:	48 89 5c 24 08       	mov    %rbx,0x8(%rsp)
    7232:	48 89 44 24 10       	mov    %rax,0x10(%rsp)
    7237:	8b 05 9b 8e 04 00    	mov    0x48e9b(%rip),%eax        # 500d8 <_ZN3std3sys4unix2os8ENV_LOCK17h715880af3c3cf031E>
    723d:	3d ff ff ff 3f       	cmp    $0x3fffffff,%eax
    7242:	77 1d                	ja     7261 <_ZN3std3sys6common14small_c_string24run_with_cstr_allocating17h68a68e9ca9a5af4cE+0x71>
    7244:	89 c1                	mov    %eax,%ecx
    7246:	81 e1 fe ff ff 3f    	and    $0x3ffffffe,%ecx
    724c:	81 f9 fe ff ff 3f    	cmp    $0x3ffffffe,%ecx
    7252:	74 0d                	je     7261 <_ZN3std3sys6common14small_c_string24run_with_cstr_allocating17h68a68e9ca9a5af4cE+0x71>
    7254:	8d 48 01             	lea    0x1(%rax),%ecx
    7257:	f0 0f b1 0d 79 8e 04 	lock cmpxchg %ecx,0x48e79(%rip)        # 500d8 <_ZN3std3sys4unix2os8ENV_LOCK17h715880af3c3cf031E>
    725e:	00 
    725f:	74 0d                	je     726e <_ZN3std3sys6common14small_c_string24run_with_cstr_allocating17h68a68e9ca9a5af4cE+0x7e>
    7261:	48 8d 3d 70 8e 04 00 	lea    0x48e70(%rip),%rdi        # 500d8 <_ZN3std3sys4unix2os8ENV_LOCK17h715880af3c3cf031E>
    7268:	ff 15 1a 8d 04 00    	callq  *0x48d1a(%rip)        # 4ff88 <_GLOBAL_OFFSET_TABLE_+0x660>
    726e:	0f b6 05 6b 8e 04 00 	movzbl 0x48e6b(%rip),%eax        # 500e0 <_ZN3std3sys4unix2os8ENV_LOCK17h715880af3c3cf031E+0x8>
    7275:	48 89 df             	mov    %rbx,%rdi
    7278:	ff 15 f2 86 04 00    	callq  *0x486f2(%rip)        # 4f970 <getenv@GLIBC_2.2.5>
    727e:	49 89 c6             	mov    %rax,%r14
    7281:	be ff ff ff ff       	mov    $0xffffffff,%esi
    7286:	f0 0f c1 35 4a 8e 04 	lock xadd %esi,0x48e4a(%rip)        # 500d8 <_ZN3std3sys4unix2os8ENV_LOCK17h715880af3c3cf031E>
    728d:	00 
    728e:	ff ce                	dec    %esi
    7290:	89 f0                	mov    %esi,%eax
    7292:	25 ff ff ff bf       	and    $0xbfffffff,%eax
    7297:	3d 00 00 00 80       	cmp    $0x80000000,%eax
    729c:	75 0d                	jne    72ab <_ZN3std3sys6common14small_c_string24run_with_cstr_allocating17h68a68e9ca9a5af4cE+0xbb>
    729e:	48 8d 3d 33 8e 04 00 	lea    0x48e33(%rip),%rdi        # 500d8 <_ZN3std3sys4unix2os8ENV_LOCK17h715880af3c3cf031E>
    72a5:	ff 15 65 88 04 00    	callq  *0x48865(%rip)        # 4fb10 <_GLOBAL_OFFSET_TABLE_+0x1e8>
    72ab:	48 8b 7c 24 08       	mov    0x8(%rsp),%rdi
    72b0:	c6 07 00             	movb   $0x0,(%rdi)
    72b3:	48 8b 74 24 10       	mov    0x10(%rsp),%rsi
    72b8:	48 85 f6             	test   %rsi,%rsi
    72bb:	74 0b                	je     72c8 <_ZN3std3sys6common14small_c_string24run_with_cstr_allocating17h68a68e9ca9a5af4cE+0xd8>
    72bd:	ba 01 00 00 00       	mov    $0x1,%edx
    72c2:	ff 15 e8 88 04 00    	callq  *0x488e8(%rip)        # 4fbb0 <_GLOBAL_OFFSET_TABLE_+0x288>
    72c8:	48 8b 7c 24 28       	mov    0x28(%rsp),%rdi
    72cd:	31 db                	xor    %ebx,%ebx
    72cf:	48 85 ff             	test   %rdi,%rdi
    72d2:	74 15                	je     72e9 <_ZN3std3sys6common14small_c_string24run_with_cstr_allocating17h68a68e9ca9a5af4cE+0xf9>
    72d4:	48 8b 74 24 20       	mov    0x20(%rsp),%rsi
    72d9:	48 85 f6             	test   %rsi,%rsi
    72dc:	74 0b                	je     72e9 <_ZN3std3sys6common14small_c_string24run_with_cstr_allocating17h68a68e9ca9a5af4cE+0xf9>
    72de:	ba 01 00 00 00       	mov    $0x1,%edx
    72e3:	ff 15 c7 88 04 00    	callq  *0x488c7(%rip)        # 4fbb0 <_GLOBAL_OFFSET_TABLE_+0x288>
    72e9:	48 89 d8             	mov    %rbx,%rax
    72ec:	4c 89 f2             	mov    %r14,%rdx
    72ef:	48 83 c4 38          	add    $0x38,%rsp
    72f3:	5b                   	pop    %rbx
    72f4:	41 5e                	pop    %r14
    72f6:	c3                   	retq   
    72f7:	48 89 c3             	mov    %rax,%rbx
    72fa:	48 8d 7c 24 08       	lea    0x8(%rsp),%rdi
    72ff:	e8 9c 33 00 00       	callq  a6a0 <_ZN4core3ptr47drop_in_place$LT$alloc..ffi..c_str..CString$GT$17hd6c091a5d1e80d78E>
    7304:	48 83 7c 24 28 00    	cmpq   $0x0,0x28(%rsp)
    730a:	74 0a                	je     7316 <_ZN3std3sys6common14small_c_string24run_with_cstr_allocating17h68a68e9ca9a5af4cE+0x126>
    730c:	48 8d 7c 24 18       	lea    0x18(%rsp),%rdi
    7311:	e8 7a 28 00 00       	callq  9b90 <_ZN4core3ptr105drop_in_place$LT$core..result..Result$LT$alloc..ffi..c_str..CString$C$alloc..ffi..c_str..NulError$GT$$GT$17h7651a0aeb6c115d6E>
    7316:	48 89 df             	mov    %rbx,%rdi
    7319:	e8 42 ed ff ff       	callq  6060 <_Unwind_Resume@plt>
    731e:	0f 0b                	ud2    
    7320:	ff 15 6a 8a 04 00    	callq  *0x48a6a(%rip)        # 4fd90 <_GLOBAL_OFFSET_TABLE_+0x468>
    7326:	0f 0b                	ud2    
    7328:	0f 1f 84 00 00 00 00 	nopl   0x0(%rax,%rax,1)
    732f:	00 

0000000000007330 <_ZN3std3sys6common14small_c_string24run_with_cstr_allocating17haf4063f85acdbbebE>:
    7330:	41 57                	push   %r15
    7332:	41 56                	push   %r14
    7334:	41 54                	push   %r12
    7336:	53                   	push   %rbx
    7337:	48 83 ec 38          	sub    $0x38,%rsp
    733b:	49 89 ce             	mov    %rcx,%r14
    733e:	48 89 fb             	mov    %rdi,%rbx
    7341:	48 8d 7c 24 18       	lea    0x18(%rsp),%rdi
    7346:	ff 15 e4 87 04 00    	callq  *0x487e4(%rip)        # 4fb30 <_GLOBAL_OFFSET_TABLE_+0x208>
    734c:	48 8b 7c 24 28       	mov    0x28(%rsp),%rdi
    7351:	48 85 ff             	test   %rdi,%rdi
    7354:	74 31                	je     7387 <_ZN3std3sys6common14small_c_string24run_with_cstr_allocating17haf4063f85acdbbebE+0x57>
    7356:	48 8d 05 b3 69 04 00 	lea    0x469b3(%rip),%rax        # 4dd10 <__init_array_end+0xa88>
    735d:	48 89 43 08          	mov    %rax,0x8(%rbx)
    7361:	c7 03 01 00 00 00    	movl   $0x1,(%rbx)
    7367:	48 8b 74 24 20       	mov    0x20(%rsp),%rsi
    736c:	48 85 f6             	test   %rsi,%rsi
    736f:	74 55                	je     73c6 <_ZN3std3sys6common14small_c_string24run_with_cstr_allocating17haf4063f85acdbbebE+0x96>
    7371:	ba 01 00 00 00       	mov    $0x1,%edx
    7376:	48 83 c4 38          	add    $0x38,%rsp
    737a:	5b                   	pop    %rbx
    737b:	41 5c                	pop    %r12
    737d:	41 5e                	pop    %r14
    737f:	41 5f                	pop    %r15
    7381:	ff 25 29 88 04 00    	jmpq   *0x48829(%rip)        # 4fbb0 <_GLOBAL_OFFSET_TABLE_+0x288>
    7387:	4c 8b 7c 24 18       	mov    0x18(%rsp),%r15
    738c:	4c 8b 64 24 20       	mov    0x20(%rsp),%r12
    7391:	4c 89 7c 24 08       	mov    %r15,0x8(%rsp)
    7396:	4c 89 64 24 10       	mov    %r12,0x10(%rsp)
    739b:	48 89 df             	mov    %rbx,%rdi
    739e:	4c 89 fe             	mov    %r15,%rsi
    73a1:	4c 89 e2             	mov    %r12,%rdx
    73a4:	4c 89 f1             	mov    %r14,%rcx
    73a7:	e8 c4 c4 01 00       	callq  23870 <_ZN3std3sys4unix2fs4File6open_c17hdc2927625bc443c3E>
    73ac:	41 c6 07 00          	movb   $0x0,(%r15)
    73b0:	4d 85 e4             	test   %r12,%r12
    73b3:	74 11                	je     73c6 <_ZN3std3sys6common14small_c_string24run_with_cstr_allocating17haf4063f85acdbbebE+0x96>
    73b5:	ba 01 00 00 00       	mov    $0x1,%edx
    73ba:	4c 89 ff             	mov    %r15,%rdi
    73bd:	4c 89 e6             	mov    %r12,%rsi
    73c0:	ff 15 ea 87 04 00    	callq  *0x487ea(%rip)        # 4fbb0 <_GLOBAL_OFFSET_TABLE_+0x288>
    73c6:	48 83 c4 38          	add    $0x38,%rsp
    73ca:	5b                   	pop    %rbx
    73cb:	41 5c                	pop    %r12
    73cd:	41 5e                	pop    %r14
    73cf:	41 5f                	pop    %r15
    73d1:	c3                   	retq   
    73d2:	48 89 c3             	mov    %rax,%rbx
    73d5:	48 8d 7c 24 08       	lea    0x8(%rsp),%rdi
    73da:	e8 c1 32 00 00       	callq  a6a0 <_ZN4core3ptr47drop_in_place$LT$alloc..ffi..c_str..CString$GT$17hd6c091a5d1e80d78E>
    73df:	48 89 df             	mov    %rbx,%rdi
    73e2:	e8 79 ec ff ff       	callq  6060 <_Unwind_Resume@plt>
    73e7:	0f 0b                	ud2    
    73e9:	ff 15 a1 89 04 00    	callq  *0x489a1(%rip)        # 4fd90 <_GLOBAL_OFFSET_TABLE_+0x468>
    73ef:	0f 0b                	ud2    
    73f1:	66 2e 0f 1f 84 00 00 	nopw   %cs:0x0(%rax,%rax,1)
    73f8:	00 00 00 
    73fb:	0f 1f 44 00 00       	nopl   0x0(%rax,%rax,1)

0000000000007400 <_ZN3std9panicking11panic_count17is_zero_slow_path17ha7f6bcde013480c8E>:
    7400:	50                   	push   %rax
    7401:	66 66 66 64 48 8b 04 	data16 data16 data16 mov %fs:0x0,%rax
    7408:	25 00 00 00 00 
    740d:	48 83 b8 f8 ff ff ff 	cmpq   $0x0,-0x8(%rax)
    7414:	00 
    7415:	0f 94 c0             	sete   %al
    7418:	59                   	pop    %rcx
    7419:	c3                   	retq   
    741a:	66 0f 1f 44 00 00    	nopw   0x0(%rax,%rax,1)

0000000000007420 <_ZN3std3sys4unix5locks11futex_mutex5Mutex14lock_contended17hcc98669fd45401b0E>:
    7420:	41 57                	push   %r15
    7422:	41 56                	push   %r14
    7424:	41 54                	push   %r12
    7426:	53                   	push   %rbx
    7427:	48 83 ec 28          	sub    $0x28,%rsp
    742b:	48 89 fb             	mov    %rdi,%rbx
    742e:	8b 07                	mov    (%rdi),%eax
    7430:	83 f8 01             	cmp    $0x1,%eax
    7433:	75 1d                	jne    7452 <_ZN3std3sys4unix5locks11futex_mutex5Mutex14lock_contended17hcc98669fd45401b0E+0x32>
    7435:	b9 9d ff ff ff       	mov    $0xffffff9d,%ecx
    743a:	66 0f 1f 44 00 00    	nopw   0x0(%rax,%rax,1)
    7440:	f3 90                	pause  
    7442:	8b 03                	mov    (%rbx),%eax
    7444:	83 f8 01             	cmp    $0x1,%eax
    7447:	75 09                	jne    7452 <_ZN3std3sys4unix5locks11futex_mutex5Mutex14lock_contended17hcc98669fd45401b0E+0x32>
    7449:	8d 51 01             	lea    0x1(%rcx),%edx
    744c:	85 c9                	test   %ecx,%ecx
    744e:	89 d1                	mov    %edx,%ecx
    7450:	75 ee                	jne    7440 <_ZN3std3sys4unix5locks11futex_mutex5Mutex14lock_contended17hcc98669fd45401b0E+0x20>
    7452:	85 c0                	test   %eax,%eax
    7454:	75 19                	jne    746f <_ZN3std3sys4unix5locks11futex_mutex5Mutex14lock_contended17hcc98669fd45401b0E+0x4f>
    7456:	b9 01 00 00 00       	mov    $0x1,%ecx
    745b:	31 c0                	xor    %eax,%eax
    745d:	f0 0f b1 0b          	lock cmpxchg %ecx,(%rbx)
    7461:	75 0c                	jne    746f <_ZN3std3sys4unix5locks11futex_mutex5Mutex14lock_contended17hcc98669fd45401b0E+0x4f>
    7463:	48 83 c4 28          	add    $0x28,%rsp
    7467:	5b                   	pop    %rbx
    7468:	41 5c                	pop    %r12
    746a:	41 5e                	pop    %r14
    746c:	41 5f                	pop    %r15
    746e:	c3                   	retq   
    746f:	4c 8d 74 24 18       	lea    0x18(%rsp),%r14
    7474:	4c 8b 3d 1d 88 04 00 	mov    0x4881d(%rip),%r15        # 4fc98 <syscall@GLIBC_2.2.5>
    747b:	4c 8b 25 66 85 04 00 	mov    0x48566(%rip),%r12        # 4f9e8 <__errno_location@GLIBC_2.2.5>
    7482:	66 66 66 66 66 2e 0f 	data16 data16 data16 data16 nopw %cs:0x0(%rax,%rax,1)
    7489:	1f 84 00 00 00 00 00 
    7490:	83 f8 02             	cmp    $0x2,%eax
    7493:	74 0b                	je     74a0 <_ZN3std3sys4unix5locks11futex_mutex5Mutex14lock_contended17hcc98669fd45401b0E+0x80>
    7495:	b8 02 00 00 00       	mov    $0x2,%eax
    749a:	87 03                	xchg   %eax,(%rbx)
    749c:	85 c0                	test   %eax,%eax
    749e:	74 c3                	je     7463 <_ZN3std3sys4unix5locks11futex_mutex5Mutex14lock_contended17hcc98669fd45401b0E+0x43>
    74a0:	48 c7 44 24 10 00 00 	movq   $0x0,0x10(%rsp)
    74a7:	00 00 
    74a9:	0f 1f 80 00 00 00 00 	nopl   0x0(%rax)
    74b0:	8b 03                	mov    (%rbx),%eax
    74b2:	83 f8 02             	cmp    $0x2,%eax
    74b5:	75 3a                	jne    74f1 <_ZN3std3sys4unix5locks11futex_mutex5Mutex14lock_contended17hcc98669fd45401b0E+0xd1>
    74b7:	4c 8b 44 24 10       	mov    0x10(%rsp),%r8
    74bc:	4d 85 c0             	test   %r8,%r8
    74bf:	4d 0f 45 c6          	cmovne %r14,%r8
    74c3:	c7 04 24 ff ff ff ff 	movl   $0xffffffff,(%rsp)
    74ca:	bf ca 00 00 00       	mov    $0xca,%edi
    74cf:	48 89 de             	mov    %rbx,%rsi
    74d2:	ba 89 00 00 00       	mov    $0x89,%edx
    74d7:	b9 02 00 00 00       	mov    $0x2,%ecx
    74dc:	45 31 c9             	xor    %r9d,%r9d
    74df:	31 c0                	xor    %eax,%eax
    74e1:	41 ff d7             	callq  *%r15
    74e4:	48 85 c0             	test   %rax,%rax
    74e7:	79 08                	jns    74f1 <_ZN3std3sys4unix5locks11futex_mutex5Mutex14lock_contended17hcc98669fd45401b0E+0xd1>
    74e9:	41 ff d4             	callq  *%r12
    74ec:	83 38 04             	cmpl   $0x4,(%rax)
    74ef:	74 bf                	je     74b0 <_ZN3std3sys4unix5locks11futex_mutex5Mutex14lock_contended17hcc98669fd45401b0E+0x90>
    74f1:	8b 03                	mov    (%rbx),%eax
    74f3:	83 f8 01             	cmp    $0x1,%eax
    74f6:	75 98                	jne    7490 <_ZN3std3sys4unix5locks11futex_mutex5Mutex14lock_contended17hcc98669fd45401b0E+0x70>
    74f8:	b9 9d ff ff ff       	mov    $0xffffff9d,%ecx
    74fd:	0f 1f 00             	nopl   (%rax)
    7500:	f3 90                	pause  
    7502:	8b 03                	mov    (%rbx),%eax
    7504:	8d 51 01             	lea    0x1(%rcx),%edx
    7507:	83 f8 01             	cmp    $0x1,%eax
    750a:	75 84                	jne    7490 <_ZN3std3sys4unix5locks11futex_mutex5Mutex14lock_contended17hcc98669fd45401b0E+0x70>
    750c:	85 c9                	test   %ecx,%ecx
    750e:	89 d1                	mov    %edx,%ecx
    7510:	75 ee                	jne    7500 <_ZN3std3sys4unix5locks11futex_mutex5Mutex14lock_contended17hcc98669fd45401b0E+0xe0>
    7512:	e9 79 ff ff ff       	jmpq   7490 <_ZN3std3sys4unix5locks11futex_mutex5Mutex14lock_contended17hcc98669fd45401b0E+0x70>
    7517:	66 0f 1f 84 00 00 00 	nopw   0x0(%rax,%rax,1)
    751e:	00 00 

0000000000007520 <_ZN3std3sys4unix5locks12futex_rwlock6RwLock14read_contended17hc81894bc50067549E>:
    7520:	55                   	push   %rbp
    7521:	41 57                	push   %r15
    7523:	41 56                	push   %r14
    7525:	41 54                	push   %r12
    7527:	53                   	push   %rbx
    7528:	48 83 ec 40          	sub    $0x40,%rsp
    752c:	48 89 fb             	mov    %rdi,%rbx
    752f:	8b 07                	mov    (%rdi),%eax
    7531:	3d ff ff ff 3f       	cmp    $0x3fffffff,%eax
    7536:	75 1c                	jne    7554 <_ZN3std3sys4unix5locks12futex_rwlock6RwLock14read_contended17hc81894bc50067549E+0x34>
    7538:	b9 9d ff ff ff       	mov    $0xffffff9d,%ecx
    753d:	0f 1f 00             	nopl   (%rax)
    7540:	f3 90                	pause  
    7542:	8b 03                	mov    (%rbx),%eax
    7544:	3d ff ff ff 3f       	cmp    $0x3fffffff,%eax
    7549:	75 09                	jne    7554 <_ZN3std3sys4unix5locks12futex_rwlock6RwLock14read_contended17hc81894bc50067549E+0x34>
    754b:	8d 51 01             	lea    0x1(%rcx),%edx
    754e:	85 c9                	test   %ecx,%ecx
    7550:	89 d1                	mov    %edx,%ecx
    7552:	75 ec                	jne    7540 <_ZN3std3sys4unix5locks12futex_rwlock6RwLock14read_contended17hc81894bc50067549E+0x20>
    7554:	4c 8d 74 24 18       	lea    0x18(%rsp),%r14
    7559:	4c 8b 3d 38 87 04 00 	mov    0x48738(%rip),%r15        # 4fc98 <syscall@GLIBC_2.2.5>
    7560:	4c 8b 25 81 84 04 00 	mov    0x48481(%rip),%r12        # 4f9e8 <__errno_location@GLIBC_2.2.5>
    7567:	eb 14                	jmp    757d <_ZN3std3sys4unix5locks12futex_rwlock6RwLock14read_contended17hc81894bc50067549E+0x5d>
    7569:	0f 1f 80 00 00 00 00 	nopl   0x0(%rax)
    7570:	8d 48 01             	lea    0x1(%rax),%ecx
    7573:	f0 0f b1 0b          	lock cmpxchg %ecx,(%rbx)
    7577:	0f 84 c0 00 00 00    	je     763d <_ZN3std3sys4unix5locks12futex_rwlock6RwLock14read_contended17hc81894bc50067549E+0x11d>
    757d:	3d ff ff ff 3f       	cmp    $0x3fffffff,%eax
    7582:	77 10                	ja     7594 <_ZN3std3sys4unix5locks12futex_rwlock6RwLock14read_contended17hc81894bc50067549E+0x74>
    7584:	89 c1                	mov    %eax,%ecx
    7586:	81 e1 fe ff ff 3f    	and    $0x3ffffffe,%ecx
    758c:	81 f9 fe ff ff 3f    	cmp    $0x3ffffffe,%ecx
    7592:	75 dc                	jne    7570 <_ZN3std3sys4unix5locks12futex_rwlock6RwLock14read_contended17hc81894bc50067549E+0x50>
    7594:	89 c1                	mov    %eax,%ecx
    7596:	81 e1 ff ff ff 3f    	and    $0x3fffffff,%ecx
    759c:	81 f9 fe ff ff 3f    	cmp    $0x3ffffffe,%ecx
    75a2:	0f 84 a2 00 00 00    	je     764a <_ZN3std3sys4unix5locks12futex_rwlock6RwLock14read_contended17hc81894bc50067549E+0x12a>
    75a8:	89 c5                	mov    %eax,%ebp
    75aa:	81 cd 00 00 00 40    	or     $0x40000000,%ebp
    75b0:	a9 00 00 00 40       	test   $0x40000000,%eax
    75b5:	75 06                	jne    75bd <_ZN3std3sys4unix5locks12futex_rwlock6RwLock14read_contended17hc81894bc50067549E+0x9d>
    75b7:	f0 0f b1 2b          	lock cmpxchg %ebp,(%rbx)
    75bb:	75 c0                	jne    757d <_ZN3std3sys4unix5locks12futex_rwlock6RwLock14read_contended17hc81894bc50067549E+0x5d>
    75bd:	48 c7 44 24 10 00 00 	movq   $0x0,0x10(%rsp)
    75c4:	00 00 
    75c6:	66 2e 0f 1f 84 00 00 	nopw   %cs:0x0(%rax,%rax,1)
    75cd:	00 00 00 
    75d0:	8b 03                	mov    (%rbx),%eax
    75d2:	39 e8                	cmp    %ebp,%eax
    75d4:	75 37                	jne    760d <_ZN3std3sys4unix5locks12futex_rwlock6RwLock14read_contended17hc81894bc50067549E+0xed>
    75d6:	4c 8b 44 24 10       	mov    0x10(%rsp),%r8
    75db:	4d 85 c0             	test   %r8,%r8
    75de:	4d 0f 45 c6          	cmovne %r14,%r8
    75e2:	c7 04 24 ff ff ff ff 	movl   $0xffffffff,(%rsp)
    75e9:	bf ca 00 00 00       	mov    $0xca,%edi
    75ee:	48 89 de             	mov    %rbx,%rsi
    75f1:	ba 89 00 00 00       	mov    $0x89,%edx
    75f6:	89 e9                	mov    %ebp,%ecx
    75f8:	45 31 c9             	xor    %r9d,%r9d
    75fb:	31 c0                	xor    %eax,%eax
    75fd:	41 ff d7             	callq  *%r15
    7600:	48 85 c0             	test   %rax,%rax
    7603:	79 08                	jns    760d <_ZN3std3sys4unix5locks12futex_rwlock6RwLock14read_contended17hc81894bc50067549E+0xed>
    7605:	41 ff d4             	callq  *%r12
    7608:	83 38 04             	cmpl   $0x4,(%rax)
    760b:	74 c3                	je     75d0 <_ZN3std3sys4unix5locks12futex_rwlock6RwLock14read_contended17hc81894bc50067549E+0xb0>
    760d:	8b 03                	mov    (%rbx),%eax
    760f:	3d ff ff ff 3f       	cmp    $0x3fffffff,%eax
    7614:	0f 85 63 ff ff ff    	jne    757d <_ZN3std3sys4unix5locks12futex_rwlock6RwLock14read_contended17hc81894bc50067549E+0x5d>
    761a:	b9 9d ff ff ff       	mov    $0xffffff9d,%ecx
    761f:	90                   	nop
    7620:	f3 90                	pause  
    7622:	8b 03                	mov    (%rbx),%eax
    7624:	8d 51 01             	lea    0x1(%rcx),%edx
    7627:	3d ff ff ff 3f       	cmp    $0x3fffffff,%eax
    762c:	0f 85 4b ff ff ff    	jne    757d <_ZN3std3sys4unix5locks12futex_rwlock6RwLock14read_contended17hc81894bc50067549E+0x5d>
    7632:	85 c9                	test   %ecx,%ecx
    7634:	89 d1                	mov    %edx,%ecx
    7636:	75 e8                	jne    7620 <_ZN3std3sys4unix5locks12futex_rwlock6RwLock14read_contended17hc81894bc50067549E+0x100>
    7638:	e9 40 ff ff ff       	jmpq   757d <_ZN3std3sys4unix5locks12futex_rwlock6RwLock14read_contended17hc81894bc50067549E+0x5d>
    763d:	48 83 c4 40          	add    $0x40,%rsp
    7641:	5b                   	pop    %rbx
    7642:	41 5c                	pop    %r12
    7644:	41 5e                	pop    %r14
    7646:	41 5f                	pop    %r15
    7648:	5d                   	pop    %rbp
    7649:	c3                   	retq   
    764a:	48 8d 05 a7 6c 04 00 	lea    0x46ca7(%rip),%rax        # 4e2f8 <__init_array_end+0x1070>
    7651:	48 89 44 24 20       	mov    %rax,0x20(%rsp)
    7656:	48 c7 44 24 28 01 00 	movq   $0x1,0x28(%rsp)
    765d:	00 00 
    765f:	48 c7 44 24 10 00 00 	movq   $0x0,0x10(%rsp)
    7666:	00 00 
    7668:	48 8d 05 81 8b 03 00 	lea    0x38b81(%rip),%rax        # 401f0 <_fini+0x146c>
    766f:	48 89 44 24 30       	mov    %rax,0x30(%rsp)
    7674:	48 c7 44 24 38 00 00 	movq   $0x0,0x38(%rsp)
    767b:	00 00 
    767d:	48 8d 35 84 6c 04 00 	lea    0x46c84(%rip),%rsi        # 4e308 <__init_array_end+0x1080>
    7684:	48 8d 7c 24 10       	lea    0x10(%rsp),%rdi
    7689:	ff 15 81 86 04 00    	callq  *0x48681(%rip)        # 4fd10 <_GLOBAL_OFFSET_TABLE_+0x3e8>
    768f:	0f 0b                	ud2    
    7691:	66 2e 0f 1f 84 00 00 	nopw   %cs:0x0(%rax,%rax,1)
    7698:	00 00 00 
    769b:	0f 1f 44 00 00       	nopl   0x0(%rax,%rax,1)

00000000000076a0 <_ZN3std3sys4unix5locks12futex_rwlock6RwLock22wake_writer_or_readers17hb9218b06d1a23b7cE>:
    76a0:	53                   	push   %rbx
    76a1:	f7 c6 ff ff ff 3f    	test   $0x3fffffff,%esi
    76a7:	0f 85 ab 00 00 00    	jne    7758 <_ZN3std3sys4unix5locks12futex_rwlock6RwLock22wake_writer_or_readers17hb9218b06d1a23b7cE+0xb8>
    76ad:	48 89 fb             	mov    %rdi,%rbx
    76b0:	81 fe 00 00 00 80    	cmp    $0x80000000,%esi
    76b6:	75 32                	jne    76ea <_ZN3std3sys4unix5locks12futex_rwlock6RwLock22wake_writer_or_readers17hb9218b06d1a23b7cE+0x4a>
    76b8:	31 c9                	xor    %ecx,%ecx
    76ba:	b8 00 00 00 80       	mov    $0x80000000,%eax
    76bf:	f0 0f b1 0b          	lock cmpxchg %ecx,(%rbx)
    76c3:	75 23                	jne    76e8 <_ZN3std3sys4unix5locks12futex_rwlock6RwLock22wake_writer_or_readers17hb9218b06d1a23b7cE+0x48>
    76c5:	f0 ff 43 04          	lock incl 0x4(%rbx)
    76c9:	48 83 c3 04          	add    $0x4,%rbx
    76cd:	bf ca 00 00 00       	mov    $0xca,%edi
    76d2:	48 89 de             	mov    %rbx,%rsi
    76d5:	ba 81 00 00 00       	mov    $0x81,%edx
    76da:	b9 01 00 00 00       	mov    $0x1,%ecx
    76df:	31 c0                	xor    %eax,%eax
    76e1:	5b                   	pop    %rbx
    76e2:	ff 25 b0 85 04 00    	jmpq   *0x485b0(%rip)        # 4fc98 <syscall@GLIBC_2.2.5>
    76e8:	89 c6                	mov    %eax,%esi
    76ea:	81 fe 00 00 00 c0    	cmp    $0xc0000000,%esi
    76f0:	74 30                	je     7722 <_ZN3std3sys4unix5locks12futex_rwlock6RwLock22wake_writer_or_readers17hb9218b06d1a23b7cE+0x82>
    76f2:	81 fe 00 00 00 40    	cmp    $0x40000000,%esi
    76f8:	75 5c                	jne    7756 <_ZN3std3sys4unix5locks12futex_rwlock6RwLock22wake_writer_or_readers17hb9218b06d1a23b7cE+0xb6>
    76fa:	31 c9                	xor    %ecx,%ecx
    76fc:	b8 00 00 00 40       	mov    $0x40000000,%eax
    7701:	f0 0f b1 0b          	lock cmpxchg %ecx,(%rbx)
    7705:	75 4f                	jne    7756 <_ZN3std3sys4unix5locks12futex_rwlock6RwLock22wake_writer_or_readers17hb9218b06d1a23b7cE+0xb6>
    7707:	bf ca 00 00 00       	mov    $0xca,%edi
    770c:	48 89 de             	mov    %rbx,%rsi
    770f:	ba 81 00 00 00       	mov    $0x81,%edx
    7714:	b9 ff ff ff 7f       	mov    $0x7fffffff,%ecx
    7719:	31 c0                	xor    %eax,%eax
    771b:	5b                   	pop    %rbx
    771c:	ff 25 76 85 04 00    	jmpq   *0x48576(%rip)        # 4fc98 <syscall@GLIBC_2.2.5>
    7722:	b9 00 00 00 40       	mov    $0x40000000,%ecx
    7727:	b8 00 00 00 c0       	mov    $0xc0000000,%eax
    772c:	f0 0f b1 0b          	lock cmpxchg %ecx,(%rbx)
    7730:	75 24                	jne    7756 <_ZN3std3sys4unix5locks12futex_rwlock6RwLock22wake_writer_or_readers17hb9218b06d1a23b7cE+0xb6>
    7732:	48 8d 73 04          	lea    0x4(%rbx),%rsi
    7736:	f0 ff 43 04          	lock incl 0x4(%rbx)
    773a:	bf ca 00 00 00       	mov    $0xca,%edi
    773f:	ba 81 00 00 00       	mov    $0x81,%edx
    7744:	b9 01 00 00 00       	mov    $0x1,%ecx
    7749:	31 c0                	xor    %eax,%eax
    774b:	ff 15 47 85 04 00    	callq  *0x48547(%rip)        # 4fc98 <syscall@GLIBC_2.2.5>
    7751:	48 85 c0             	test   %rax,%rax
    7754:	7e a4                	jle    76fa <_ZN3std3sys4unix5locks12futex_rwlock6RwLock22wake_writer_or_readers17hb9218b06d1a23b7cE+0x5a>
    7756:	5b                   	pop    %rbx
    7757:	c3                   	retq   
    7758:	48 8d 3d 55 9d 03 00 	lea    0x39d55(%rip),%rdi        # 414b4 <str.5+0xea4>
    775f:	48 8d 15 ba 6b 04 00 	lea    0x46bba(%rip),%rdx        # 4e320 <__init_array_end+0x1098>
    7766:	be 24 00 00 00       	mov    $0x24,%esi
    776b:	ff 15 bf 82 04 00    	callq  *0x482bf(%rip)        # 4fa30 <_GLOBAL_OFFSET_TABLE_+0x108>
    7771:	0f 0b                	ud2    
    7773:	66 2e 0f 1f 84 00 00 	nopw   %cs:0x0(%rax,%rax,1)
    777a:	00 00 00 
    777d:	0f 1f 00             	nopl   (%rax)

0000000000007780 <_ZN3std10sys_common4once5futex4Once4call17h80eab11baf2ec7eeE>:
    7780:	55                   	push   %rbp
    7781:	41 57                	push   %r15
    7783:	41 56                	push   %r14
    7785:	41 55                	push   %r13
    7787:	41 54                	push   %r12
    7789:	53                   	push   %rbx
    778a:	48 81 ec 88 00 00 00 	sub    $0x88,%rsp
    7791:	48 89 7c 24 40       	mov    %rdi,0x40(%rsp)
    7796:	8b 05 98 88 04 00    	mov    0x48898(%rip),%eax        # 50034 <_ZN3std2rt7cleanup7CLEANUP17h695028d9b30b6480E>
    779c:	4c 8d 7c 24 18       	lea    0x18(%rsp),%r15
    77a1:	4c 8d 25 0c 8a 03 00 	lea    0x38a0c(%rip),%r12        # 401b4 <_fini+0x1430>
    77a8:	bd 03 00 00 00       	mov    $0x3,%ebp
    77ad:	48 8d 1d 80 88 04 00 	lea    0x48880(%rip),%rbx        # 50034 <_ZN3std2rt7cleanup7CLEANUP17h695028d9b30b6480E>
    77b4:	4c 8b 35 dd 84 04 00 	mov    0x484dd(%rip),%r14        # 4fc98 <syscall@GLIBC_2.2.5>
    77bb:	4c 8b 2d 26 82 04 00 	mov    0x48226(%rip),%r13        # 4f9e8 <__errno_location@GLIBC_2.2.5>
    77c2:	eb 12                	jmp    77d6 <_ZN3std10sys_common4once5futex4Once4call17h80eab11baf2ec7eeE+0x56>
    77c4:	66 66 66 2e 0f 1f 84 	data16 data16 nopw %cs:0x0(%rax,%rax,1)
    77cb:	00 00 00 00 00 
    77d0:	8b 05 5e 88 04 00    	mov    0x4885e(%rip),%eax        # 50034 <_ZN3std2rt7cleanup7CLEANUP17h695028d9b30b6480E>
    77d6:	83 f8 04             	cmp    $0x4,%eax
    77d9:	0f 87 d6 02 00 00    	ja     7ab5 <_ZN3std10sys_common4once5futex4Once4call17h80eab11baf2ec7eeE+0x335>
    77df:	89 c0                	mov    %eax,%eax
    77e1:	49 63 04 84          	movslq (%r12,%rax,4),%rax
    77e5:	4c 01 e0             	add    %r12,%rax
    77e8:	ff e0                	jmpq   *%rax
    77ea:	31 c0                	xor    %eax,%eax
    77ec:	b9 02 00 00 00       	mov    $0x2,%ecx
    77f1:	f0 0f b1 0d 3b 88 04 	lock cmpxchg %ecx,0x4883b(%rip)        # 50034 <_ZN3std2rt7cleanup7CLEANUP17h695028d9b30b6480E>
    77f8:	00 
    77f9:	75 db                	jne    77d6 <_ZN3std10sys_common4once5futex4Once4call17h80eab11baf2ec7eeE+0x56>
    77fb:	eb 71                	jmp    786e <_ZN3std10sys_common4once5futex4Once4call17h80eab11baf2ec7eeE+0xee>
    77fd:	0f 1f 00             	nopl   (%rax)
    7800:	b8 02 00 00 00       	mov    $0x2,%eax
    7805:	f0 0f b1 2d 27 88 04 	lock cmpxchg %ebp,0x48827(%rip)        # 50034 <_ZN3std2rt7cleanup7CLEANUP17h695028d9b30b6480E>
    780c:	00 
    780d:	75 c7                	jne    77d6 <_ZN3std10sys_common4once5futex4Once4call17h80eab11baf2ec7eeE+0x56>
    780f:	48 c7 44 24 10 00 00 	movq   $0x0,0x10(%rsp)
    7816:	00 00 
    7818:	0f 1f 84 00 00 00 00 	nopl   0x0(%rax,%rax,1)
    781f:	00 
    7820:	8b 05 0e 88 04 00    	mov    0x4880e(%rip),%eax        # 50034 <_ZN3std2rt7cleanup7CLEANUP17h695028d9b30b6480E>
    7826:	83 f8 03             	cmp    $0x3,%eax
    7829:	75 a5                	jne    77d0 <_ZN3std10sys_common4once5futex4Once4call17h80eab11baf2ec7eeE+0x50>
    782b:	4c 8b 44 24 10       	mov    0x10(%rsp),%r8
    7830:	4d 85 c0             	test   %r8,%r8
    7833:	4d 0f 45 c7          	cmovne %r15,%r8
    7837:	c7 04 24 ff ff ff ff 	movl   $0xffffffff,(%rsp)
    783e:	bf ca 00 00 00       	mov    $0xca,%edi
    7843:	48 89 de             	mov    %rbx,%rsi
    7846:	ba 89 00 00 00       	mov    $0x89,%edx
    784b:	b9 03 00 00 00       	mov    $0x3,%ecx
    7850:	45 31 c9             	xor    %r9d,%r9d
    7853:	31 c0                	xor    %eax,%eax
    7855:	41 ff d6             	callq  *%r14
    7858:	48 85 c0             	test   %rax,%rax
    785b:	0f 89 6f ff ff ff    	jns    77d0 <_ZN3std10sys_common4once5futex4Once4call17h80eab11baf2ec7eeE+0x50>
    7861:	41 ff d5             	callq  *%r13
    7864:	83 38 04             	cmpl   $0x4,(%rax)
    7867:	74 b7                	je     7820 <_ZN3std10sys_common4once5futex4Once4call17h80eab11baf2ec7eeE+0xa0>
    7869:	e9 62 ff ff ff       	jmpq   77d0 <_ZN3std10sys_common4once5futex4Once4call17h80eab11baf2ec7eeE+0x50>
    786e:	48 89 5c 24 48       	mov    %rbx,0x48(%rsp)
    7873:	c7 44 24 50 01 00 00 	movl   $0x1,0x50(%rsp)
    787a:	00 
    787b:	48 8b 44 24 40       	mov    0x40(%rsp),%rax
    7880:	48 8b 00             	mov    (%rax),%rax
    7883:	f6 00 01             	testb  $0x1,(%rax)
    7886:	c6 00 00             	movb   $0x0,(%rax)
    7889:	0f 84 b7 02 00 00    	je     7b46 <_ZN3std10sys_common4once5futex4Once4call17h80eab11baf2ec7eeE+0x3c6>
    788f:	c6 44 24 0f 00       	movb   $0x0,0xf(%rsp)
    7894:	8b 05 de 87 04 00    	mov    0x487de(%rip),%eax        # 50078 <_ZN3std2io5stdio6STDOUT17h07548eb382b139dcE+0x38>
    789a:	83 f8 04             	cmp    $0x4,%eax
    789d:	74 0a                	je     78a9 <_ZN3std10sys_common4once5futex4Once4call17h80eab11baf2ec7eeE+0x129>
    789f:	48 8d 7c 24 0f       	lea    0xf(%rsp),%rdi
    78a4:	e8 97 f6 ff ff       	callq  6f40 <_ZN3std4sync9once_lock17OnceLock$LT$T$GT$10initialize17hcf941e9a470d41d5E>
    78a9:	80 7c 24 0f 00       	cmpb   $0x0,0xf(%rsp)
    78ae:	0f 85 18 01 00 00    	jne    79cc <_ZN3std10sys_common4once5futex4Once4call17h80eab11baf2ec7eeE+0x24c>
    78b4:	48 8b 1d 85 87 04 00 	mov    0x48785(%rip),%rbx        # 50040 <_ZN3std2io5stdio6STDOUT17h07548eb382b139dcE>
    78bb:	66 66 66 64 48 8b 04 	data16 data16 data16 mov %fs:0x0,%rax
    78c2:	25 00 00 00 00 
    78c7:	48 89 c1             	mov    %rax,%rcx
    78ca:	48 8d 80 f0 ff ff ff 	lea    -0x10(%rax),%rax
    78d1:	48 39 c3             	cmp    %rax,%rbx
    78d4:	75 28                	jne    78fe <_ZN3std10sys_common4once5futex4Once4call17h80eab11baf2ec7eeE+0x17e>
    78d6:	8b 15 98 87 04 00    	mov    0x48798(%rip),%edx        # 50074 <_ZN3std2io5stdio6STDOUT17h07548eb382b139dcE+0x34>
    78dc:	ff c2                	inc    %edx
    78de:	75 44                	jne    7924 <_ZN3std10sys_common4once5futex4Once4call17h80eab11baf2ec7eeE+0x1a4>
    78e0:	48 8d 3d f4 95 03 00 	lea    0x395f4(%rip),%rdi        # 40edb <str.5+0x8cb>
    78e7:	48 8d 15 0a 64 04 00 	lea    0x4640a(%rip),%rdx        # 4dcf8 <__init_array_end+0xa70>
    78ee:	be 26 00 00 00       	mov    $0x26,%esi
    78f3:	ff 15 7f 82 04 00    	callq  *0x4827f(%rip)        # 4fb78 <_GLOBAL_OFFSET_TABLE_+0x250>
    78f9:	e9 88 02 00 00       	jmpq   7b86 <_ZN3std10sys_common4once5futex4Once4call17h80eab11baf2ec7eeE+0x406>
    78fe:	ba 01 00 00 00       	mov    $0x1,%edx
    7903:	31 c0                	xor    %eax,%eax
    7905:	f0 0f b1 15 63 87 04 	lock cmpxchg %edx,0x48763(%rip)        # 50070 <_ZN3std2io5stdio6STDOUT17h07548eb382b139dcE+0x30>
    790c:	00 
    790d:	0f 85 b9 00 00 00    	jne    79cc <_ZN3std10sys_common4once5futex4Once4call17h80eab11baf2ec7eeE+0x24c>
    7913:	48 89 c8             	mov    %rcx,%rax
    7916:	48 8d 81 f0 ff ff ff 	lea    -0x10(%rcx),%rax
    791d:	48 89 05 1c 87 04 00 	mov    %rax,0x4871c(%rip)        # 50040 <_ZN3std2io5stdio6STDOUT17h07548eb382b139dcE>
    7924:	89 15 4a 87 04 00    	mov    %edx,0x4874a(%rip)        # 50074 <_ZN3std2io5stdio6STDOUT17h07548eb382b139dcE+0x34>
    792a:	48 c7 44 24 10 00 00 	movq   $0x0,0x10(%rsp)
    7931:	00 00 
    7933:	48 c7 44 24 18 01 00 	movq   $0x1,0x18(%rsp)
    793a:	00 00 
    793c:	48 c7 44 24 20 00 00 	movq   $0x0,0x20(%rsp)
    7943:	00 00 
    7945:	c6 44 24 28 00       	movb   $0x0,0x28(%rsp)
    794a:	48 83 3d f6 86 04 00 	cmpq   $0x0,0x486f6(%rip)        # 50048 <_ZN3std2io5stdio6STDOUT17h07548eb382b139dcE+0x8>
    7951:	00 
    7952:	0f 85 09 02 00 00    	jne    7b61 <_ZN3std10sys_common4once5futex4Once4call17h80eab11baf2ec7eeE+0x3e1>
    7958:	48 c7 05 e5 86 04 00 	movq   $0xffffffffffffffff,0x486e5(%rip)        # 50048 <_ZN3std2io5stdio6STDOUT17h07548eb382b139dcE+0x8>
    795f:	ff ff ff ff 
    7963:	48 8d 3d e6 86 04 00 	lea    0x486e6(%rip),%rdi        # 50050 <_ZN3std2io5stdio6STDOUT17h07548eb382b139dcE+0x10>
    796a:	e8 91 37 00 00       	callq  b100 <_ZN4core3ptr95drop_in_place$LT$std..io..buffered..linewriter..LineWriter$LT$std..io..stdio..StdoutRaw$GT$$GT$17ha50d2e5d84845602E>
    796f:	0f 10 44 24 10       	movups 0x10(%rsp),%xmm0
    7974:	0f 10 4c 24 20       	movups 0x20(%rsp),%xmm1
    7979:	0f 11 0d e0 86 04 00 	movups %xmm1,0x486e0(%rip)        # 50060 <_ZN3std2io5stdio6STDOUT17h07548eb382b139dcE+0x20>
    7980:	0f 11 05 c9 86 04 00 	movups %xmm0,0x486c9(%rip)        # 50050 <_ZN3std2io5stdio6STDOUT17h07548eb382b139dcE+0x10>
    7987:	48 ff 05 ba 86 04 00 	incq   0x486ba(%rip)        # 50048 <_ZN3std2io5stdio6STDOUT17h07548eb382b139dcE+0x8>
    798e:	ff 0d e0 86 04 00    	decl   0x486e0(%rip)        # 50074 <_ZN3std2io5stdio6STDOUT17h07548eb382b139dcE+0x34>
    7994:	75 36                	jne    79cc <_ZN3std10sys_common4once5futex4Once4call17h80eab11baf2ec7eeE+0x24c>
    7996:	48 c7 05 9f 86 04 00 	movq   $0x0,0x4869f(%rip)        # 50040 <_ZN3std2io5stdio6STDOUT17h07548eb382b139dcE>
    799d:	00 00 00 00 
    79a1:	31 c0                	xor    %eax,%eax
    79a3:	87 05 c7 86 04 00    	xchg   %eax,0x486c7(%rip)        # 50070 <_ZN3std2io5stdio6STDOUT17h07548eb382b139dcE+0x30>
    79a9:	83 f8 02             	cmp    $0x2,%eax
    79ac:	75 1e                	jne    79cc <_ZN3std10sys_common4once5futex4Once4call17h80eab11baf2ec7eeE+0x24c>
    79ae:	48 8d 35 bb 86 04 00 	lea    0x486bb(%rip),%rsi        # 50070 <_ZN3std2io5stdio6STDOUT17h07548eb382b139dcE+0x30>
    79b5:	bf ca 00 00 00       	mov    $0xca,%edi
    79ba:	ba 81 00 00 00       	mov    $0x81,%edx
    79bf:	b9 01 00 00 00       	mov    $0x1,%ecx
    79c4:	31 c0                	xor    %eax,%eax
    79c6:	ff 15 cc 82 04 00    	callq  *0x482cc(%rip)        # 4fc98 <syscall@GLIBC_2.2.5>
    79cc:	48 8b 1d 15 87 04 00 	mov    0x48715(%rip),%rbx        # 500e8 <_ZN3std3sys4unix14stack_overflow3imp13MAIN_ALTSTACK17h4a68ef0f90492c75E.0>
    79d3:	48 85 db             	test   %rbx,%rbx
    79d6:	74 4f                	je     7a27 <_ZN3std10sys_common4once5futex4Once4call17h80eab11baf2ec7eeE+0x2a7>
    79d8:	48 c7 44 24 10 00 00 	movq   $0x0,0x10(%rsp)
    79df:	00 00 
    79e1:	c7 44 24 18 02 00 00 	movl   $0x2,0x18(%rsp)
    79e8:	00 
    79e9:	48 c7 44 24 20 00 20 	movq   $0x2000,0x20(%rsp)
    79f0:	00 00 
    79f2:	48 8d 7c 24 10       	lea    0x10(%rsp),%rdi
    79f7:	31 f6                	xor    %esi,%esi
    79f9:	ff 15 69 85 04 00    	callq  *0x48569(%rip)        # 4ff68 <sigaltstack@GLIBC_2.2.5>
    79ff:	48 8b 2d 72 84 04 00 	mov    0x48472(%rip),%rbp        # 4fe78 <sysconf@GLIBC_2.2.5>
    7a06:	bf 1e 00 00 00       	mov    $0x1e,%edi
    7a0b:	ff d5                	callq  *%rbp
    7a0d:	48 29 c3             	sub    %rax,%rbx
    7a10:	bf 1e 00 00 00       	mov    $0x1e,%edi
    7a15:	ff d5                	callq  *%rbp
    7a17:	48 8d b0 00 20 00 00 	lea    0x2000(%rax),%rsi
    7a1e:	48 89 df             	mov    %rbx,%rdi
    7a21:	ff 15 a1 83 04 00    	callq  *0x483a1(%rip)        # 4fdc8 <munmap@GLIBC_2.2.5>
    7a27:	c7 44 24 50 04 00 00 	movl   $0x4,0x50(%rsp)
    7a2e:	00 
    7a2f:	48 8b 44 24 48       	mov    0x48(%rsp),%rax
    7a34:	b9 04 00 00 00       	mov    $0x4,%ecx
    7a39:	87 08                	xchg   %ecx,(%rax)
    7a3b:	83 f9 03             	cmp    $0x3,%ecx
    7a3e:	75 1c                	jne    7a5c <_ZN3std10sys_common4once5futex4Once4call17h80eab11baf2ec7eeE+0x2dc>
    7a40:	48 8b 74 24 48       	mov    0x48(%rsp),%rsi
    7a45:	bf ca 00 00 00       	mov    $0xca,%edi
    7a4a:	ba 81 00 00 00       	mov    $0x81,%edx
    7a4f:	b9 ff ff ff 7f       	mov    $0x7fffffff,%ecx
    7a54:	31 c0                	xor    %eax,%eax
    7a56:	ff 15 3c 82 04 00    	callq  *0x4823c(%rip)        # 4fc98 <syscall@GLIBC_2.2.5>
    7a5c:	48 81 c4 88 00 00 00 	add    $0x88,%rsp
    7a63:	5b                   	pop    %rbx
    7a64:	41 5c                	pop    %r12
    7a66:	41 5d                	pop    %r13
    7a68:	41 5e                	pop    %r14
    7a6a:	41 5f                	pop    %r15
    7a6c:	5d                   	pop    %rbp
    7a6d:	c3                   	retq   
    7a6e:	48 8d 05 d3 68 04 00 	lea    0x468d3(%rip),%rax        # 4e348 <__init_array_end+0x10c0>
    7a75:	48 89 44 24 20       	mov    %rax,0x20(%rsp)
    7a7a:	48 c7 44 24 28 01 00 	movq   $0x1,0x28(%rsp)
    7a81:	00 00 
    7a83:	48 c7 44 24 10 00 00 	movq   $0x0,0x10(%rsp)
    7a8a:	00 00 
    7a8c:	48 8d 05 5d 87 03 00 	lea    0x3875d(%rip),%rax        # 401f0 <_fini+0x146c>
    7a93:	48 89 44 24 30       	mov    %rax,0x30(%rsp)
    7a98:	48 c7 44 24 38 00 00 	movq   $0x0,0x38(%rsp)
    7a9f:	00 00 
    7aa1:	48 8d 35 20 5e 04 00 	lea    0x45e20(%rip),%rsi        # 4d8c8 <__init_array_end+0x640>
    7aa8:	48 8d 7c 24 10       	lea    0x10(%rsp),%rdi
    7aad:	ff 15 5d 82 04 00    	callq  *0x4825d(%rip)        # 4fd10 <_GLOBAL_OFFSET_TABLE_+0x3e8>
    7ab3:	0f 0b                	ud2    
    7ab5:	48 8d 05 7c 68 04 00 	lea    0x4687c(%rip),%rax        # 4e338 <__init_array_end+0x10b0>
    7abc:	48 89 44 24 20       	mov    %rax,0x20(%rsp)
    7ac1:	48 c7 44 24 28 01 00 	movq   $0x1,0x28(%rsp)
    7ac8:	00 00 
    7aca:	48 c7 44 24 10 00 00 	movq   $0x0,0x10(%rsp)
    7ad1:	00 00 
    7ad3:	48 8d 05 16 87 03 00 	lea    0x38716(%rip),%rax        # 401f0 <_fini+0x146c>
    7ada:	48 89 44 24 30       	mov    %rax,0x30(%rsp)
    7adf:	48 c7 44 24 38 00 00 	movq   $0x0,0x38(%rsp)
    7ae6:	00 00 
    7ae8:	48 8d 44 24 10       	lea    0x10(%rsp),%rax
    7aed:	48 89 44 24 78       	mov    %rax,0x78(%rsp)
    7af2:	48 8d 05 d7 2f 03 00 	lea    0x32fd7(%rip),%rax        # 3aad0 <_ZN59_$LT$core..fmt..Arguments$u20$as$u20$core..fmt..Display$GT$3fmt17h0d17e948d52fa184E>
    7af9:	48 89 84 24 80 00 00 	mov    %rax,0x80(%rsp)
    7b00:	00 
    7b01:	48 8d 05 a8 5b 04 00 	lea    0x45ba8(%rip),%rax        # 4d6b0 <__init_array_end+0x428>
    7b08:	48 89 44 24 58       	mov    %rax,0x58(%rsp)
    7b0d:	48 c7 44 24 60 01 00 	movq   $0x1,0x60(%rsp)
    7b14:	00 00 
    7b16:	48 c7 44 24 48 00 00 	movq   $0x0,0x48(%rsp)
    7b1d:	00 00 
    7b1f:	48 8d 44 24 78       	lea    0x78(%rsp),%rax
    7b24:	48 89 44 24 68       	mov    %rax,0x68(%rsp)
    7b29:	48 c7 44 24 70 01 00 	movq   $0x1,0x70(%rsp)
    7b30:	00 00 
    7b32:	48 8d 35 8f 5d 04 00 	lea    0x45d8f(%rip),%rsi        # 4d8c8 <__init_array_end+0x640>
    7b39:	48 8d 7c 24 48       	lea    0x48(%rsp),%rdi
    7b3e:	ff 15 cc 81 04 00    	callq  *0x481cc(%rip)        # 4fd10 <_GLOBAL_OFFSET_TABLE_+0x3e8>
    7b44:	0f 0b                	ud2    
    7b46:	48 8d 3d 9d 87 03 00 	lea    0x3879d(%rip),%rdi        # 402ea <str.4+0x8a>
    7b4d:	48 8d 15 5c 61 04 00 	lea    0x4615c(%rip),%rdx        # 4dcb0 <__init_array_end+0xa28>
    7b54:	be 2b 00 00 00       	mov    $0x2b,%esi
    7b59:	ff 15 d1 7e 04 00    	callq  *0x47ed1(%rip)        # 4fa30 <_GLOBAL_OFFSET_TABLE_+0x108>
    7b5f:	eb 25                	jmp    7b86 <_ZN3std10sys_common4once5futex4Once4call17h80eab11baf2ec7eeE+0x406>
    7b61:	48 8d 3d 88 76 03 00 	lea    0x37688(%rip),%rdi        # 3f1f0 <_fini+0x46c>
    7b68:	48 8d 0d e1 5a 04 00 	lea    0x45ae1(%rip),%rcx        # 4d650 <__init_array_end+0x3c8>
    7b6f:	4c 8d 05 6a 5e 04 00 	lea    0x45e6a(%rip),%r8        # 4d9e0 <__init_array_end+0x758>
    7b76:	48 8d 54 24 78       	lea    0x78(%rsp),%rdx
    7b7b:	be 10 00 00 00       	mov    $0x10,%esi
    7b80:	ff 15 42 84 04 00    	callq  *0x48442(%rip)        # 4ffc8 <_GLOBAL_OFFSET_TABLE_+0x6a0>
    7b86:	0f 0b                	ud2    
    7b88:	48 89 c3             	mov    %rax,%rbx
    7b8b:	0f 10 44 24 10       	movups 0x10(%rsp),%xmm0
    7b90:	0f 10 4c 24 20       	movups 0x20(%rsp),%xmm1
    7b95:	0f 11 0d c4 84 04 00 	movups %xmm1,0x484c4(%rip)        # 50060 <_ZN3std2io5stdio6STDOUT17h07548eb382b139dcE+0x20>
    7b9c:	0f 11 05 ad 84 04 00 	movups %xmm0,0x484ad(%rip)        # 50050 <_ZN3std2io5stdio6STDOUT17h07548eb382b139dcE+0x10>
    7ba3:	48 8d 3d 9e 84 04 00 	lea    0x4849e(%rip),%rdi        # 50048 <_ZN3std2io5stdio6STDOUT17h07548eb382b139dcE+0x8>
    7baa:	e8 51 20 00 00       	callq  9c00 <_ZN4core3ptr115drop_in_place$LT$core..cell..RefMut$LT$core..option..Option$LT$std..sys_common..thread_info..ThreadInfo$GT$$GT$$GT$17h7bbac4f0e46ecbb5E>
    7baf:	eb 0d                	jmp    7bbe <_ZN3std10sys_common4once5futex4Once4call17h80eab11baf2ec7eeE+0x43e>
    7bb1:	48 89 c3             	mov    %rax,%rbx
    7bb4:	48 8d 7c 24 10       	lea    0x10(%rsp),%rdi
    7bb9:	e8 42 35 00 00       	callq  b100 <_ZN4core3ptr95drop_in_place$LT$std..io..buffered..linewriter..LineWriter$LT$std..io..stdio..StdoutRaw$GT$$GT$17ha50d2e5d84845602E>
    7bbe:	48 8d 3d 7b 84 04 00 	lea    0x4847b(%rip),%rdi        # 50040 <_ZN3std2io5stdio6STDOUT17h07548eb382b139dcE>
    7bc5:	e8 76 24 00 00       	callq  a040 <_ZN4core3ptr169drop_in_place$LT$std..sync..remutex..ReentrantMutexGuard$LT$core..cell..RefCell$LT$std..io..buffered..linewriter..LineWriter$LT$std..io..stdio..StdoutRaw$GT$$GT$$GT$$GT$17h116fa6c24eb2664bE>
    7bca:	eb 0b                	jmp    7bd7 <_ZN3std10sys_common4once5futex4Once4call17h80eab11baf2ec7eeE+0x457>
    7bcc:	ff 15 be 81 04 00    	callq  *0x481be(%rip)        # 4fd90 <_GLOBAL_OFFSET_TABLE_+0x468>
    7bd2:	0f 0b                	ud2    
    7bd4:	48 89 c3             	mov    %rax,%rbx
    7bd7:	48 8d 7c 24 48       	lea    0x48(%rsp),%rdi
    7bdc:	e8 af 2e 00 00       	callq  aa90 <_ZN4core3ptr66drop_in_place$LT$std..sys_common..once..futex..CompletionGuard$GT$17hc6572ac98c528759E>
    7be1:	48 89 df             	mov    %rbx,%rdi
    7be4:	e8 77 e4 ff ff       	callq  6060 <_Unwind_Resume@plt>
    7be9:	0f 0b                	ud2    
    7beb:	0f 1f 44 00 00       	nopl   0x0(%rax,%rax,1)

0000000000007bf0 <_ZN3std10sys_common4once5futex4Once4call17hc0ec23c12885a3deE>:
    7bf0:	55                   	push   %rbp
    7bf1:	41 57                	push   %r15
    7bf3:	41 56                	push   %r14
    7bf5:	41 55                	push   %r13
    7bf7:	41 54                	push   %r12
    7bf9:	53                   	push   %rbx
    7bfa:	48 81 ec 88 00 00 00 	sub    $0x88,%rsp
    7c01:	48 89 7c 24 40       	mov    %rdi,0x40(%rsp)
    7c06:	8b 05 6c 84 04 00    	mov    0x4846c(%rip),%eax        # 50078 <_ZN3std2io5stdio6STDOUT17h07548eb382b139dcE+0x38>
    7c0c:	4c 8d 7c 24 18       	lea    0x18(%rsp),%r15
    7c11:	4c 8d 25 b0 85 03 00 	lea    0x385b0(%rip),%r12        # 401c8 <_fini+0x1444>
    7c18:	bd 02 00 00 00       	mov    $0x2,%ebp
    7c1d:	48 8d 1d 54 84 04 00 	lea    0x48454(%rip),%rbx        # 50078 <_ZN3std2io5stdio6STDOUT17h07548eb382b139dcE+0x38>
    7c24:	4c 8b 35 6d 80 04 00 	mov    0x4806d(%rip),%r14        # 4fc98 <syscall@GLIBC_2.2.5>
    7c2b:	4c 8b 2d b6 7d 04 00 	mov    0x47db6(%rip),%r13        # 4f9e8 <__errno_location@GLIBC_2.2.5>
    7c32:	eb 12                	jmp    7c46 <_ZN3std10sys_common4once5futex4Once4call17hc0ec23c12885a3deE+0x56>
    7c34:	66 66 66 2e 0f 1f 84 	data16 data16 nopw %cs:0x0(%rax,%rax,1)
    7c3b:	00 00 00 00 00 
    7c40:	8b 05 32 84 04 00    	mov    0x48432(%rip),%eax        # 50078 <_ZN3std2io5stdio6STDOUT17h07548eb382b139dcE+0x38>
    7c46:	83 f8 04             	cmp    $0x4,%eax
    7c49:	0f 87 3c 01 00 00    	ja     7d8b <_ZN3std10sys_common4once5futex4Once4call17hc0ec23c12885a3deE+0x19b>
    7c4f:	89 c1                	mov    %eax,%ecx
    7c51:	49 63 0c 8c          	movslq (%r12,%rcx,4),%rcx
    7c55:	4c 01 e1             	add    %r12,%rcx
    7c58:	ff e1                	jmpq   *%rcx
    7c5a:	f0 0f b1 2d 16 84 04 	lock cmpxchg %ebp,0x48416(%rip)        # 50078 <_ZN3std2io5stdio6STDOUT17h07548eb382b139dcE+0x38>
    7c61:	00 
    7c62:	75 e2                	jne    7c46 <_ZN3std10sys_common4once5futex4Once4call17hc0ec23c12885a3deE+0x56>
    7c64:	eb 78                	jmp    7cde <_ZN3std10sys_common4once5futex4Once4call17hc0ec23c12885a3deE+0xee>
    7c66:	66 2e 0f 1f 84 00 00 	nopw   %cs:0x0(%rax,%rax,1)
    7c6d:	00 00 00 
    7c70:	b8 02 00 00 00       	mov    $0x2,%eax
    7c75:	b9 03 00 00 00       	mov    $0x3,%ecx
    7c7a:	f0 0f b1 0d f6 83 04 	lock cmpxchg %ecx,0x483f6(%rip)        # 50078 <_ZN3std2io5stdio6STDOUT17h07548eb382b139dcE+0x38>
    7c81:	00 
    7c82:	75 c2                	jne    7c46 <_ZN3std10sys_common4once5futex4Once4call17hc0ec23c12885a3deE+0x56>
    7c84:	48 c7 44 24 10 00 00 	movq   $0x0,0x10(%rsp)
    7c8b:	00 00 
    7c8d:	0f 1f 00             	nopl   (%rax)
    7c90:	8b 05 e2 83 04 00    	mov    0x483e2(%rip),%eax        # 50078 <_ZN3std2io5stdio6STDOUT17h07548eb382b139dcE+0x38>
    7c96:	83 f8 03             	cmp    $0x3,%eax
    7c99:	75 a5                	jne    7c40 <_ZN3std10sys_common4once5futex4Once4call17hc0ec23c12885a3deE+0x50>
    7c9b:	4c 8b 44 24 10       	mov    0x10(%rsp),%r8
    7ca0:	4d 85 c0             	test   %r8,%r8
    7ca3:	4d 0f 45 c7          	cmovne %r15,%r8
    7ca7:	c7 04 24 ff ff ff ff 	movl   $0xffffffff,(%rsp)
    7cae:	bf ca 00 00 00       	mov    $0xca,%edi
    7cb3:	48 89 de             	mov    %rbx,%rsi
    7cb6:	ba 89 00 00 00       	mov    $0x89,%edx
    7cbb:	b9 03 00 00 00       	mov    $0x3,%ecx
    7cc0:	45 31 c9             	xor    %r9d,%r9d
    7cc3:	31 c0                	xor    %eax,%eax
    7cc5:	41 ff d6             	callq  *%r14
    7cc8:	48 85 c0             	test   %rax,%rax
    7ccb:	0f 89 6f ff ff ff    	jns    7c40 <_ZN3std10sys_common4once5futex4Once4call17hc0ec23c12885a3deE+0x50>
    7cd1:	41 ff d5             	callq  *%r13
    7cd4:	83 38 04             	cmpl   $0x4,(%rax)
    7cd7:	74 b7                	je     7c90 <_ZN3std10sys_common4once5futex4Once4call17hc0ec23c12885a3deE+0xa0>
    7cd9:	e9 62 ff ff ff       	jmpq   7c40 <_ZN3std10sys_common4once5futex4Once4call17hc0ec23c12885a3deE+0x50>
    7cde:	48 89 5c 24 10       	mov    %rbx,0x10(%rsp)
    7ce3:	c7 44 24 18 01 00 00 	movl   $0x1,0x18(%rsp)
    7cea:	00 
    7ceb:	48 8b 44 24 40       	mov    0x40(%rsp),%rax
    7cf0:	48 8b 00             	mov    (%rax),%rax
    7cf3:	48 8b 18             	mov    (%rax),%rbx
    7cf6:	48 c7 00 00 00 00 00 	movq   $0x0,(%rax)
    7cfd:	48 85 db             	test   %rbx,%rbx
    7d00:	0f 84 16 01 00 00    	je     7e1c <_ZN3std10sys_common4once5futex4Once4call17hc0ec23c12885a3deE+0x22c>
    7d06:	bf 00 04 00 00       	mov    $0x400,%edi
    7d0b:	be 01 00 00 00       	mov    $0x1,%esi
    7d10:	ff 15 2a 7e 04 00    	callq  *0x47e2a(%rip)        # 4fb40 <_GLOBAL_OFFSET_TABLE_+0x218>
    7d16:	48 85 c0             	test   %rax,%rax
    7d19:	0f 84 18 01 00 00    	je     7e37 <_ZN3std10sys_common4once5futex4Once4call17hc0ec23c12885a3deE+0x247>
    7d1f:	0f 57 c0             	xorps  %xmm0,%xmm0
    7d22:	0f 11 03             	movups %xmm0,(%rbx)
    7d25:	48 c7 43 10 00 04 00 	movq   $0x400,0x10(%rbx)
    7d2c:	00 
    7d2d:	48 89 43 18          	mov    %rax,0x18(%rbx)
    7d31:	48 c7 43 20 00 00 00 	movq   $0x0,0x20(%rbx)
    7d38:	00 
    7d39:	c6 43 28 00          	movb   $0x0,0x28(%rbx)
    7d3d:	48 c7 43 30 00 00 00 	movq   $0x0,0x30(%rbx)
    7d44:	00 
    7d45:	c7 44 24 18 04 00 00 	movl   $0x4,0x18(%rsp)
    7d4c:	00 
    7d4d:	b8 04 00 00 00       	mov    $0x4,%eax
    7d52:	87 05 20 83 04 00    	xchg   %eax,0x48320(%rip)        # 50078 <_ZN3std2io5stdio6STDOUT17h07548eb382b139dcE+0x38>
    7d58:	83 f8 03             	cmp    $0x3,%eax
    7d5b:	75 1c                	jne    7d79 <_ZN3std10sys_common4once5futex4Once4call17hc0ec23c12885a3deE+0x189>
    7d5d:	48 8b 74 24 10       	mov    0x10(%rsp),%rsi
    7d62:	bf ca 00 00 00       	mov    $0xca,%edi
    7d67:	ba 81 00 00 00       	mov    $0x81,%edx
    7d6c:	b9 ff ff ff 7f       	mov    $0x7fffffff,%ecx
    7d71:	31 c0                	xor    %eax,%eax
    7d73:	ff 15 1f 7f 04 00    	callq  *0x47f1f(%rip)        # 4fc98 <syscall@GLIBC_2.2.5>
    7d79:	48 81 c4 88 00 00 00 	add    $0x88,%rsp
    7d80:	5b                   	pop    %rbx
    7d81:	41 5c                	pop    %r12
    7d83:	41 5d                	pop    %r13
    7d85:	41 5e                	pop    %r14
    7d87:	41 5f                	pop    %r15
    7d89:	5d                   	pop    %rbp
    7d8a:	c3                   	retq   
    7d8b:	48 8d 05 a6 65 04 00 	lea    0x465a6(%rip),%rax        # 4e338 <__init_array_end+0x10b0>
    7d92:	48 89 44 24 20       	mov    %rax,0x20(%rsp)
    7d97:	48 c7 44 24 28 01 00 	movq   $0x1,0x28(%rsp)
    7d9e:	00 00 
    7da0:	48 c7 44 24 10 00 00 	movq   $0x0,0x10(%rsp)
    7da7:	00 00 
    7da9:	48 8d 05 40 84 03 00 	lea    0x38440(%rip),%rax        # 401f0 <_fini+0x146c>
    7db0:	48 89 44 24 30       	mov    %rax,0x30(%rsp)
    7db5:	48 c7 44 24 38 00 00 	movq   $0x0,0x38(%rsp)
    7dbc:	00 00 
    7dbe:	48 8d 44 24 10       	lea    0x10(%rsp),%rax
    7dc3:	48 89 44 24 48       	mov    %rax,0x48(%rsp)
    7dc8:	48 8d 05 01 2d 03 00 	lea    0x32d01(%rip),%rax        # 3aad0 <_ZN59_$LT$core..fmt..Arguments$u20$as$u20$core..fmt..Display$GT$3fmt17h0d17e948d52fa184E>
    7dcf:	48 89 44 24 50       	mov    %rax,0x50(%rsp)
    7dd4:	48 8d 05 d5 58 04 00 	lea    0x458d5(%rip),%rax        # 4d6b0 <__init_array_end+0x428>
    7ddb:	48 89 44 24 68       	mov    %rax,0x68(%rsp)
    7de0:	48 c7 44 24 70 01 00 	movq   $0x1,0x70(%rsp)
    7de7:	00 00 
    7de9:	48 c7 44 24 58 00 00 	movq   $0x0,0x58(%rsp)
    7df0:	00 00 
    7df2:	48 8d 44 24 48       	lea    0x48(%rsp),%rax
    7df7:	48 89 44 24 78       	mov    %rax,0x78(%rsp)
    7dfc:	48 c7 84 24 80 00 00 	movq   $0x1,0x80(%rsp)
    7e03:	00 01 00 00 00 
    7e08:	48 8d 35 b9 5e 04 00 	lea    0x45eb9(%rip),%rsi        # 4dcc8 <__init_array_end+0xa40>
    7e0f:	48 8d 7c 24 58       	lea    0x58(%rsp),%rdi
    7e14:	ff 15 f6 7e 04 00    	callq  *0x47ef6(%rip)        # 4fd10 <_GLOBAL_OFFSET_TABLE_+0x3e8>
    7e1a:	0f 0b                	ud2    
    7e1c:	48 8d 3d c7 84 03 00 	lea    0x384c7(%rip),%rdi        # 402ea <str.4+0x8a>
    7e23:	48 8d 15 b6 5e 04 00 	lea    0x45eb6(%rip),%rdx        # 4dce0 <__init_array_end+0xa58>
    7e2a:	be 2b 00 00 00       	mov    $0x2b,%esi
    7e2f:	ff 15 fb 7b 04 00    	callq  *0x47bfb(%rip)        # 4fa30 <_GLOBAL_OFFSET_TABLE_+0x108>
    7e35:	eb 10                	jmp    7e47 <_ZN3std10sys_common4once5futex4Once4call17hc0ec23c12885a3deE+0x257>
    7e37:	bf 00 04 00 00       	mov    $0x400,%edi
    7e3c:	be 01 00 00 00       	mov    $0x1,%esi
    7e41:	ff 15 d1 7e 04 00    	callq  *0x47ed1(%rip)        # 4fd18 <_GLOBAL_OFFSET_TABLE_+0x3f0>
    7e47:	0f 0b                	ud2    
    7e49:	48 89 c3             	mov    %rax,%rbx
    7e4c:	48 8d 7c 24 10       	lea    0x10(%rsp),%rdi
    7e51:	e8 3a 2c 00 00       	callq  aa90 <_ZN4core3ptr66drop_in_place$LT$std..sys_common..once..futex..CompletionGuard$GT$17hc6572ac98c528759E>
    7e56:	48 89 df             	mov    %rbx,%rdi
    7e59:	e8 02 e2 ff ff       	callq  6060 <_Unwind_Resume@plt>
    7e5e:	0f 0b                	ud2    

0000000000007e60 <_ZN3std10sys_common4once5futex4Once4call17he7aba65f80e562a9E>:
    7e60:	55                   	push   %rbp
    7e61:	41 57                	push   %r15
    7e63:	41 56                	push   %r14
    7e65:	41 55                	push   %r13
    7e67:	41 54                	push   %r12
    7e69:	53                   	push   %rbx
    7e6a:	48 81 ec 88 00 00 00 	sub    $0x88,%rsp
    7e71:	48 89 7c 24 40       	mov    %rdi,0x40(%rsp)
    7e76:	8b 05 fc 81 04 00    	mov    0x481fc(%rip),%eax        # 50078 <_ZN3std2io5stdio6STDOUT17h07548eb382b139dcE+0x38>
    7e7c:	4c 8d 7c 24 18       	lea    0x18(%rsp),%r15
    7e81:	4c 8d 25 54 83 03 00 	lea    0x38354(%rip),%r12        # 401dc <_fini+0x1458>
    7e88:	bd 02 00 00 00       	mov    $0x2,%ebp
    7e8d:	48 8d 1d e4 81 04 00 	lea    0x481e4(%rip),%rbx        # 50078 <_ZN3std2io5stdio6STDOUT17h07548eb382b139dcE+0x38>
    7e94:	4c 8b 35 fd 7d 04 00 	mov    0x47dfd(%rip),%r14        # 4fc98 <syscall@GLIBC_2.2.5>
    7e9b:	4c 8b 2d 46 7b 04 00 	mov    0x47b46(%rip),%r13        # 4f9e8 <__errno_location@GLIBC_2.2.5>
    7ea2:	eb 12                	jmp    7eb6 <_ZN3std10sys_common4once5futex4Once4call17he7aba65f80e562a9E+0x56>
    7ea4:	66 66 66 2e 0f 1f 84 	data16 data16 nopw %cs:0x0(%rax,%rax,1)
    7eab:	00 00 00 00 00 
    7eb0:	8b 05 c2 81 04 00    	mov    0x481c2(%rip),%eax        # 50078 <_ZN3std2io5stdio6STDOUT17h07548eb382b139dcE+0x38>
    7eb6:	83 f8 04             	cmp    $0x4,%eax
    7eb9:	0f 87 2e 01 00 00    	ja     7fed <_ZN3std10sys_common4once5futex4Once4call17he7aba65f80e562a9E+0x18d>
    7ebf:	89 c1                	mov    %eax,%ecx
    7ec1:	49 63 0c 8c          	movslq (%r12,%rcx,4),%rcx
    7ec5:	4c 01 e1             	add    %r12,%rcx
    7ec8:	ff e1                	jmpq   *%rcx
    7eca:	f0 0f b1 2d a6 81 04 	lock cmpxchg %ebp,0x481a6(%rip)        # 50078 <_ZN3std2io5stdio6STDOUT17h07548eb382b139dcE+0x38>
    7ed1:	00 
    7ed2:	75 e2                	jne    7eb6 <_ZN3std10sys_common4once5futex4Once4call17he7aba65f80e562a9E+0x56>
    7ed4:	eb 78                	jmp    7f4e <_ZN3std10sys_common4once5futex4Once4call17he7aba65f80e562a9E+0xee>
    7ed6:	66 2e 0f 1f 84 00 00 	nopw   %cs:0x0(%rax,%rax,1)
    7edd:	00 00 00 
    7ee0:	b8 02 00 00 00       	mov    $0x2,%eax
    7ee5:	b9 03 00 00 00       	mov    $0x3,%ecx
    7eea:	f0 0f b1 0d 86 81 04 	lock cmpxchg %ecx,0x48186(%rip)        # 50078 <_ZN3std2io5stdio6STDOUT17h07548eb382b139dcE+0x38>
    7ef1:	00 
    7ef2:	75 c2                	jne    7eb6 <_ZN3std10sys_common4once5futex4Once4call17he7aba65f80e562a9E+0x56>
    7ef4:	48 c7 44 24 10 00 00 	movq   $0x0,0x10(%rsp)
    7efb:	00 00 
    7efd:	0f 1f 00             	nopl   (%rax)
    7f00:	8b 05 72 81 04 00    	mov    0x48172(%rip),%eax        # 50078 <_ZN3std2io5stdio6STDOUT17h07548eb382b139dcE+0x38>
    7f06:	83 f8 03             	cmp    $0x3,%eax
    7f09:	75 a5                	jne    7eb0 <_ZN3std10sys_common4once5futex4Once4call17he7aba65f80e562a9E+0x50>
    7f0b:	4c 8b 44 24 10       	mov    0x10(%rsp),%r8
    7f10:	4d 85 c0             	test   %r8,%r8
    7f13:	4d 0f 45 c7          	cmovne %r15,%r8
    7f17:	c7 04 24 ff ff ff ff 	movl   $0xffffffff,(%rsp)
    7f1e:	bf ca 00 00 00       	mov    $0xca,%edi
    7f23:	48 89 de             	mov    %rbx,%rsi
    7f26:	ba 89 00 00 00       	mov    $0x89,%edx
    7f2b:	b9 03 00 00 00       	mov    $0x3,%ecx
    7f30:	45 31 c9             	xor    %r9d,%r9d
    7f33:	31 c0                	xor    %eax,%eax
    7f35:	41 ff d6             	callq  *%r14
    7f38:	48 85 c0             	test   %rax,%rax
    7f3b:	0f 89 6f ff ff ff    	jns    7eb0 <_ZN3std10sys_common4once5futex4Once4call17he7aba65f80e562a9E+0x50>
    7f41:	41 ff d5             	callq  *%r13
    7f44:	83 38 04             	cmpl   $0x4,(%rax)
    7f47:	74 b7                	je     7f00 <_ZN3std10sys_common4once5futex4Once4call17he7aba65f80e562a9E+0xa0>
    7f49:	e9 62 ff ff ff       	jmpq   7eb0 <_ZN3std10sys_common4once5futex4Once4call17he7aba65f80e562a9E+0x50>
    7f4e:	48 89 5c 24 10       	mov    %rbx,0x10(%rsp)
    7f53:	c7 44 24 18 01 00 00 	movl   $0x1,0x18(%rsp)
    7f5a:	00 
    7f5b:	48 8b 44 24 40       	mov    0x40(%rsp),%rax
    7f60:	48 8b 10             	mov    (%rax),%rdx
    7f63:	48 8b 0a             	mov    (%rdx),%rcx
    7f66:	48 8b 42 08          	mov    0x8(%rdx),%rax
    7f6a:	48 c7 02 00 00 00 00 	movq   $0x0,(%rdx)
    7f71:	48 85 c9             	test   %rcx,%rcx
    7f74:	0f 84 04 01 00 00    	je     807e <_ZN3std10sys_common4once5futex4Once4call17he7aba65f80e562a9E+0x21e>
    7f7a:	c6 01 01             	movb   $0x1,(%rcx)
    7f7d:	0f 57 c0             	xorps  %xmm0,%xmm0
    7f80:	0f 11 00             	movups %xmm0,(%rax)
    7f83:	48 c7 40 10 00 00 00 	movq   $0x0,0x10(%rax)
    7f8a:	00 
    7f8b:	48 c7 40 18 01 00 00 	movq   $0x1,0x18(%rax)
    7f92:	00 
    7f93:	48 c7 40 20 00 00 00 	movq   $0x0,0x20(%rax)
    7f9a:	00 
    7f9b:	c6 40 28 00          	movb   $0x0,0x28(%rax)
    7f9f:	48 c7 40 30 00 00 00 	movq   $0x0,0x30(%rax)
    7fa6:	00 
    7fa7:	c7 44 24 18 04 00 00 	movl   $0x4,0x18(%rsp)
    7fae:	00 
    7faf:	b8 04 00 00 00       	mov    $0x4,%eax
    7fb4:	87 05 be 80 04 00    	xchg   %eax,0x480be(%rip)        # 50078 <_ZN3std2io5stdio6STDOUT17h07548eb382b139dcE+0x38>
    7fba:	83 f8 03             	cmp    $0x3,%eax
    7fbd:	75 1c                	jne    7fdb <_ZN3std10sys_common4once5futex4Once4call17he7aba65f80e562a9E+0x17b>
    7fbf:	48 8b 74 24 10       	mov    0x10(%rsp),%rsi
    7fc4:	bf ca 00 00 00       	mov    $0xca,%edi
    7fc9:	ba 81 00 00 00       	mov    $0x81,%edx
    7fce:	b9 ff ff ff 7f       	mov    $0x7fffffff,%ecx
    7fd3:	31 c0                	xor    %eax,%eax
    7fd5:	ff 15 bd 7c 04 00    	callq  *0x47cbd(%rip)        # 4fc98 <syscall@GLIBC_2.2.5>
    7fdb:	48 81 c4 88 00 00 00 	add    $0x88,%rsp
    7fe2:	5b                   	pop    %rbx
    7fe3:	41 5c                	pop    %r12
    7fe5:	41 5d                	pop    %r13
    7fe7:	41 5e                	pop    %r14
    7fe9:	41 5f                	pop    %r15
    7feb:	5d                   	pop    %rbp
    7fec:	c3                   	retq   
    7fed:	48 8d 05 44 63 04 00 	lea    0x46344(%rip),%rax        # 4e338 <__init_array_end+0x10b0>
    7ff4:	48 89 44 24 20       	mov    %rax,0x20(%rsp)
    7ff9:	48 c7 44 24 28 01 00 	movq   $0x1,0x28(%rsp)
    8000:	00 00 
    8002:	48 c7 44 24 10 00 00 	movq   $0x0,0x10(%rsp)
    8009:	00 00 
    800b:	48 8d 05 de 81 03 00 	lea    0x381de(%rip),%rax        # 401f0 <_fini+0x146c>
    8012:	48 89 44 24 30       	mov    %rax,0x30(%rsp)
    8017:	48 c7 44 24 38 00 00 	movq   $0x0,0x38(%rsp)
    801e:	00 00 
    8020:	48 8d 44 24 10       	lea    0x10(%rsp),%rax
    8025:	48 89 44 24 48       	mov    %rax,0x48(%rsp)
    802a:	48 8d 05 9f 2a 03 00 	lea    0x32a9f(%rip),%rax        # 3aad0 <_ZN59_$LT$core..fmt..Arguments$u20$as$u20$core..fmt..Display$GT$3fmt17h0d17e948d52fa184E>
    8031:	48 89 44 24 50       	mov    %rax,0x50(%rsp)
    8036:	48 8d 05 73 56 04 00 	lea    0x45673(%rip),%rax        # 4d6b0 <__init_array_end+0x428>
    803d:	48 89 44 24 68       	mov    %rax,0x68(%rsp)
    8042:	48 c7 44 24 70 01 00 	movq   $0x1,0x70(%rsp)
    8049:	00 00 
    804b:	48 c7 44 24 58 00 00 	movq   $0x0,0x58(%rsp)
    8052:	00 00 
    8054:	48 8d 44 24 48       	lea    0x48(%rsp),%rax
    8059:	48 89 44 24 78       	mov    %rax,0x78(%rsp)
    805e:	48 c7 84 24 80 00 00 	movq   $0x1,0x80(%rsp)
    8065:	00 01 00 00 00 
    806a:	48 8d 35 57 5c 04 00 	lea    0x45c57(%rip),%rsi        # 4dcc8 <__init_array_end+0xa40>
    8071:	48 8d 7c 24 58       	lea    0x58(%rsp),%rdi
    8076:	ff 15 94 7c 04 00    	callq  *0x47c94(%rip)        # 4fd10 <_GLOBAL_OFFSET_TABLE_+0x3e8>
    807c:	0f 0b                	ud2    
    807e:	48 8d 3d 65 82 03 00 	lea    0x38265(%rip),%rdi        # 402ea <str.4+0x8a>
    8085:	48 8d 15 54 5c 04 00 	lea    0x45c54(%rip),%rdx        # 4dce0 <__init_array_end+0xa58>
    808c:	be 2b 00 00 00       	mov    $0x2b,%esi
    8091:	ff 15 99 79 04 00    	callq  *0x47999(%rip)        # 4fa30 <_GLOBAL_OFFSET_TABLE_+0x108>
    8097:	0f 0b                	ud2    
    8099:	48 89 c3             	mov    %rax,%rbx
    809c:	48 8d 7c 24 10       	lea    0x10(%rsp),%rdi
    80a1:	e8 ea 29 00 00       	callq  aa90 <_ZN4core3ptr66drop_in_place$LT$std..sys_common..once..futex..CompletionGuard$GT$17hc6572ac98c528759E>
    80a6:	48 89 df             	mov    %rbx,%rdi
    80a9:	e8 b2 df ff ff       	callq  6060 <_Unwind_Resume@plt>
    80ae:	0f 0b                	ud2    

00000000000080b0 <_ZN5alloc7raw_vec19RawVec$LT$T$C$A$GT$7reserve21do_reserve_and_handle17h57bda5d12c54a4c7E>:
    80b0:	41 56                	push   %r14
    80b2:	53                   	push   %rbx
    80b3:	48 83 ec 38          	sub    $0x38,%rsp
    80b7:	48 01 d6             	add    %rdx,%rsi
    80ba:	0f 82 9e 00 00 00    	jb     815e <_ZN5alloc7raw_vec19RawVec$LT$T$C$A$GT$7reserve21do_reserve_and_handle17h57bda5d12c54a4c7E+0xae>
    80c0:	49 89 fe             	mov    %rdi,%r14
    80c3:	48 8b 07             	mov    (%rdi),%rax
    80c6:	48 8d 0c 00          	lea    (%rax,%rax,1),%rcx
    80ca:	48 39 f1             	cmp    %rsi,%rcx
    80cd:	48 0f 47 f1          	cmova  %rcx,%rsi
    80d1:	48 83 fe 09          	cmp    $0x9,%rsi
    80d5:	bb 08 00 00 00       	mov    $0x8,%ebx
    80da:	48 0f 43 de          	cmovae %rsi,%rbx
    80de:	48 89 da             	mov    %rbx,%rdx
    80e1:	48 f7 d2             	not    %rdx
    80e4:	48 c1 ea 3f          	shr    $0x3f,%rdx
    80e8:	48 85 c0             	test   %rax,%rax
    80eb:	74 19                	je     8106 <_ZN5alloc7raw_vec19RawVec$LT$T$C$A$GT$7reserve21do_reserve_and_handle17h57bda5d12c54a4c7E+0x56>
    80ed:	49 8b 4e 08          	mov    0x8(%r14),%rcx
    80f1:	48 89 4c 24 08       	mov    %rcx,0x8(%rsp)
    80f6:	48 89 44 24 10       	mov    %rax,0x10(%rsp)
    80fb:	48 c7 44 24 18 01 00 	movq   $0x1,0x18(%rsp)
    8102:	00 00 
    8104:	eb 09                	jmp    810f <_ZN5alloc7raw_vec19RawVec$LT$T$C$A$GT$7reserve21do_reserve_and_handle17h57bda5d12c54a4c7E+0x5f>
    8106:	48 c7 44 24 18 00 00 	movq   $0x0,0x18(%rsp)
    810d:	00 00 
    810f:	48 8d 7c 24 20       	lea    0x20(%rsp),%rdi
    8114:	48 8d 4c 24 08       	lea    0x8(%rsp),%rcx
    8119:	48 89 de             	mov    %rbx,%rsi
    811c:	e8 7f 52 02 00       	callq  2d3a0 <_ZN5alloc7raw_vec11finish_grow17h176d969ce3e70a3fE>
    8121:	48 83 7c 24 20 00    	cmpq   $0x0,0x20(%rsp)
    8127:	48 8b 7c 24 28       	mov    0x28(%rsp),%rdi
    812c:	74 1c                	je     814a <_ZN5alloc7raw_vec19RawVec$LT$T$C$A$GT$7reserve21do_reserve_and_handle17h57bda5d12c54a4c7E+0x9a>
    812e:	48 8b 74 24 30       	mov    0x30(%rsp),%rsi
    8133:	48 b8 01 00 00 00 00 	movabs $0x8000000000000001,%rax
    813a:	00 00 80 
    813d:	48 39 c6             	cmp    %rax,%rsi
    8140:	75 17                	jne    8159 <_ZN5alloc7raw_vec19RawVec$LT$T$C$A$GT$7reserve21do_reserve_and_handle17h57bda5d12c54a4c7E+0xa9>
    8142:	48 83 c4 38          	add    $0x38,%rsp
    8146:	5b                   	pop    %rbx
    8147:	41 5e                	pop    %r14
    8149:	c3                   	retq   
    814a:	49 89 7e 08          	mov    %rdi,0x8(%r14)
    814e:	49 89 1e             	mov    %rbx,(%r14)
    8151:	48 83 c4 38          	add    $0x38,%rsp
    8155:	5b                   	pop    %rbx
    8156:	41 5e                	pop    %r14
    8158:	c3                   	retq   
    8159:	48 85 f6             	test   %rsi,%rsi
    815c:	75 08                	jne    8166 <_ZN5alloc7raw_vec19RawVec$LT$T$C$A$GT$7reserve21do_reserve_and_handle17h57bda5d12c54a4c7E+0xb6>
    815e:	ff 15 04 7d 04 00    	callq  *0x47d04(%rip)        # 4fe68 <_GLOBAL_OFFSET_TABLE_+0x540>
    8164:	0f 0b                	ud2    
    8166:	ff 15 ac 7b 04 00    	callq  *0x47bac(%rip)        # 4fd18 <_GLOBAL_OFFSET_TABLE_+0x3f0>
    816c:	0f 0b                	ud2    
    816e:	66 90                	xchg   %ax,%ax

0000000000008170 <_ZN4core9panicking13assert_failed17h76521bc56687a527E>:
    8170:	48 83 ec 58          	sub    $0x58,%rsp
    8174:	48 89 7c 24 10       	mov    %rdi,0x10(%rsp)
    8179:	48 8d 05 00 89 03 00 	lea    0x38900(%rip),%rax        # 40a80 <str.5+0x470>
    8180:	48 89 44 24 18       	mov    %rax,0x18(%rsp)
    8185:	0f 10 06             	movups (%rsi),%xmm0
    8188:	0f 10 4e 10          	movups 0x10(%rsi),%xmm1
    818c:	0f 10 56 20          	movups 0x20(%rsi),%xmm2
    8190:	0f 29 54 24 40       	movaps %xmm2,0x40(%rsp)
    8195:	0f 29 4c 24 30       	movaps %xmm1,0x30(%rsp)
    819a:	0f 29 44 24 20       	movaps %xmm0,0x20(%rsp)
    819f:	48 8d 05 5a 63 04 00 	lea    0x4635a(%rip),%rax        # 4e500 <_ZN6object3elf12ELF_NOTE_GNU17hde7887b0cc7bcec0E+0xa8>
    81a6:	48 89 04 24          	mov    %rax,(%rsp)
    81aa:	48 8d 15 b7 62 04 00 	lea    0x462b7(%rip),%rdx        # 4e468 <_ZN6object3elf12ELF_NOTE_GNU17hde7887b0cc7bcec0E+0x10>
    81b1:	48 8d 74 24 10       	lea    0x10(%rsp),%rsi
    81b6:	48 8d 4c 24 18       	lea    0x18(%rsp),%rcx
    81bb:	4c 8d 4c 24 20       	lea    0x20(%rsp),%r9
    81c0:	bf 01 00 00 00       	mov    $0x1,%edi
    81c5:	49 89 d0             	mov    %rdx,%r8
    81c8:	ff 15 92 77 04 00    	callq  *0x47792(%rip)        # 4f960 <_GLOBAL_OFFSET_TABLE_+0x38>
    81ce:	0f 0b                	ud2    

00000000000081d0 <_ZN5alloc7raw_vec19RawVec$LT$T$C$A$GT$7reserve21do_reserve_and_handle17h582baaf9c72669e6E>:
    81d0:	41 56                	push   %r14
    81d2:	53                   	push   %rbx
    81d3:	48 83 ec 38          	sub    $0x38,%rsp
    81d7:	48 01 d6             	add    %rdx,%rsi
    81da:	0f 82 9e 00 00 00    	jb     827e <_ZN5alloc7raw_vec19RawVec$LT$T$C$A$GT$7reserve21do_reserve_and_handle17h582baaf9c72669e6E+0xae>
    81e0:	49 89 fe             	mov    %rdi,%r14
    81e3:	48 8b 07             	mov    (%rdi),%rax
    81e6:	48 8d 0c 00          	lea    (%rax,%rax,1),%rcx
    81ea:	48 39 f1             	cmp    %rsi,%rcx
    81ed:	48 0f 47 f1          	cmova  %rcx,%rsi
    81f1:	48 83 fe 09          	cmp    $0x9,%rsi
    81f5:	bb 08 00 00 00       	mov    $0x8,%ebx
    81fa:	48 0f 43 de          	cmovae %rsi,%rbx
    81fe:	48 89 da             	mov    %rbx,%rdx
    8201:	48 f7 d2             	not    %rdx
    8204:	48 c1 ea 3f          	shr    $0x3f,%rdx
    8208:	48 85 c0             	test   %rax,%rax
    820b:	74 19                	je     8226 <_ZN5alloc7raw_vec19RawVec$LT$T$C$A$GT$7reserve21do_reserve_and_handle17h582baaf9c72669e6E+0x56>
    820d:	49 8b 4e 08          	mov    0x8(%r14),%rcx
    8211:	48 89 4c 24 08       	mov    %rcx,0x8(%rsp)
    8216:	48 89 44 24 10       	mov    %rax,0x10(%rsp)
    821b:	48 c7 44 24 18 01 00 	movq   $0x1,0x18(%rsp)
    8222:	00 00 
    8224:	eb 09                	jmp    822f <_ZN5alloc7raw_vec19RawVec$LT$T$C$A$GT$7reserve21do_reserve_and_handle17h582baaf9c72669e6E+0x5f>
    8226:	48 c7 44 24 18 00 00 	movq   $0x0,0x18(%rsp)
    822d:	00 00 
    822f:	48 8d 7c 24 20       	lea    0x20(%rsp),%rdi
    8234:	48 8d 4c 24 08       	lea    0x8(%rsp),%rcx
    8239:	48 89 de             	mov    %rbx,%rsi
    823c:	e8 1f 10 03 00       	callq  39260 <_ZN5alloc7raw_vec11finish_grow17h2698e14933be2498E>
    8241:	48 83 7c 24 20 00    	cmpq   $0x0,0x20(%rsp)
    8247:	48 8b 7c 24 28       	mov    0x28(%rsp),%rdi
    824c:	74 1c                	je     826a <_ZN5alloc7raw_vec19RawVec$LT$T$C$A$GT$7reserve21do_reserve_and_handle17h582baaf9c72669e6E+0x9a>
    824e:	48 8b 74 24 30       	mov    0x30(%rsp),%rsi
    8253:	48 b8 01 00 00 00 00 	movabs $0x8000000000000001,%rax
    825a:	00 00 80 
    825d:	48 39 c6             	cmp    %rax,%rsi
    8260:	75 17                	jne    8279 <_ZN5alloc7raw_vec19RawVec$LT$T$C$A$GT$7reserve21do_reserve_and_handle17h582baaf9c72669e6E+0xa9>
    8262:	48 83 c4 38          	add    $0x38,%rsp
    8266:	5b                   	pop    %rbx
    8267:	41 5e                	pop    %r14
    8269:	c3                   	retq   
    826a:	49 89 7e 08          	mov    %rdi,0x8(%r14)
    826e:	49 89 1e             	mov    %rbx,(%r14)
    8271:	48 83 c4 38          	add    $0x38,%rsp
    8275:	5b                   	pop    %rbx
    8276:	41 5e                	pop    %r14
    8278:	c3                   	retq   
    8279:	48 85 f6             	test   %rsi,%rsi
    827c:	75 08                	jne    8286 <_ZN5alloc7raw_vec19RawVec$LT$T$C$A$GT$7reserve21do_reserve_and_handle17h582baaf9c72669e6E+0xb6>
    827e:	ff 15 e4 7b 04 00    	callq  *0x47be4(%rip)        # 4fe68 <_GLOBAL_OFFSET_TABLE_+0x540>
    8284:	0f 0b                	ud2    
    8286:	ff 15 8c 7a 04 00    	callq  *0x47a8c(%rip)        # 4fd18 <_GLOBAL_OFFSET_TABLE_+0x3f0>
    828c:	0f 0b                	ud2    
    828e:	66 90                	xchg   %ax,%ax

0000000000008290 <_ZN5alloc5alloc18handle_alloc_error17ha75697b971790499E>:
    8290:	50                   	push   %rax
    8291:	ff 15 09 79 04 00    	callq  *0x47909(%rip)        # 4fba0 <_GLOBAL_OFFSET_TABLE_+0x278>
    8297:	0f 0b                	ud2    
    8299:	0f 1f 80 00 00 00 00 	nopl   0x0(%rax)

00000000000082a0 <_ZN4core6option13expect_failed17h243f17cca5c66f87E>:
    82a0:	50                   	push   %rax
    82a1:	e8 aa 1e 03 00       	callq  3a150 <_ZN4core9panicking9panic_str17hbf6d706891b2fe44E>
    82a6:	0f 0b                	ud2    
    82a8:	0f 1f 84 00 00 00 00 	nopl   0x0(%rax,%rax,1)
    82af:	00 

00000000000082b0 <_ZN4core9panicking9panic_fmt17h28cbdee921d72b75E>:
    82b0:	48 83 ec 28          	sub    $0x28,%rsp
    82b4:	48 8d 05 f5 ab 03 00 	lea    0x3abf5(%rip),%rax        # 42eb0 <_ZN12panic_unwind8real_imp6CANARY17h14985c46fa943241E+0x1866>
    82bb:	48 89 04 24          	mov    %rax,(%rsp)
    82bf:	48 8d 05 da 6f 04 00 	lea    0x46fda(%rip),%rax        # 4f2a0 <_ZN6object3elf12ELF_NOTE_GNU17hde7887b0cc7bcec0E+0xe48>
    82c6:	48 89 44 24 08       	mov    %rax,0x8(%rsp)
    82cb:	48 89 7c 24 10       	mov    %rdi,0x10(%rsp)
    82d0:	48 89 74 24 18       	mov    %rsi,0x18(%rsp)
    82d5:	c6 44 24 20 01       	movb   $0x1,0x20(%rsp)
    82da:	48 89 e7             	mov    %rsp,%rdi
    82dd:	ff 15 9d 78 04 00    	callq  *0x4789d(%rip)        # 4fb80 <_GLOBAL_OFFSET_TABLE_+0x258>
    82e3:	0f 0b                	ud2    
    82e5:	66 2e 0f 1f 84 00 00 	nopw   %cs:0x0(%rax,%rax,1)
    82ec:	00 00 00 
    82ef:	90                   	nop

00000000000082f0 <_ZN4core9panicking18panic_nounwind_fmt17h7a7b6b4f97def48dE>:
    82f0:	48 83 ec 28          	sub    $0x28,%rsp
    82f4:	48 8d 05 b5 ab 03 00 	lea    0x3abb5(%rip),%rax        # 42eb0 <_ZN12panic_unwind8real_imp6CANARY17h14985c46fa943241E+0x1866>
    82fb:	48 89 04 24          	mov    %rax,(%rsp)
    82ff:	48 8d 05 9a 6f 04 00 	lea    0x46f9a(%rip),%rax        # 4f2a0 <_ZN6object3elf12ELF_NOTE_GNU17hde7887b0cc7bcec0E+0xe48>
    8306:	48 89 44 24 08       	mov    %rax,0x8(%rsp)
    830b:	48 89 7c 24 10       	mov    %rdi,0x10(%rsp)
    8310:	48 89 74 24 18       	mov    %rsi,0x18(%rsp)
    8315:	c6 44 24 20 00       	movb   $0x0,0x20(%rsp)
    831a:	48 89 e7             	mov    %rsp,%rdi
    831d:	ff 15 5d 78 04 00    	callq  *0x4785d(%rip)        # 4fb80 <_GLOBAL_OFFSET_TABLE_+0x258>
    8323:	eb 06                	jmp    832b <_ZN4core9panicking18panic_nounwind_fmt17h7a7b6b4f97def48dE+0x3b>
    8325:	ff 15 65 7a 04 00    	callq  *0x47a65(%rip)        # 4fd90 <_GLOBAL_OFFSET_TABLE_+0x468>
    832b:	0f 0b                	ud2    
    832d:	0f 1f 00             	nopl   (%rax)

0000000000008330 <_ZN4core9panicking5panic17h0489a66e8ddd489cE>:
    8330:	48 83 ec 48          	sub    $0x48,%rsp
    8334:	48 89 7c 24 08       	mov    %rdi,0x8(%rsp)
    8339:	48 89 74 24 10       	mov    %rsi,0x10(%rsp)
    833e:	48 8d 44 24 08       	lea    0x8(%rsp),%rax
    8343:	48 89 44 24 28       	mov    %rax,0x28(%rsp)
    8348:	48 c7 44 24 30 01 00 	movq   $0x1,0x30(%rsp)
    834f:	00 00 
    8351:	48 c7 44 24 18 00 00 	movq   $0x0,0x18(%rsp)
    8358:	00 00 
    835a:	48 8d 05 4f ab 03 00 	lea    0x3ab4f(%rip),%rax        # 42eb0 <_ZN12panic_unwind8real_imp6CANARY17h14985c46fa943241E+0x1866>
    8361:	48 89 44 24 38       	mov    %rax,0x38(%rsp)
    8366:	48 c7 44 24 40 00 00 	movq   $0x0,0x40(%rsp)
    836d:	00 00 
    836f:	48 8d 7c 24 18       	lea    0x18(%rsp),%rdi
    8374:	48 89 d6             	mov    %rdx,%rsi
    8377:	ff 15 93 79 04 00    	callq  *0x47993(%rip)        # 4fd10 <_GLOBAL_OFFSET_TABLE_+0x3e8>
    837d:	0f 0b                	ud2    
    837f:	90                   	nop

0000000000008380 <_ZN4core9panicking14panic_nounwind17hd67e214ab222d0c1E>:
    8380:	48 83 ec 48          	sub    $0x48,%rsp
    8384:	48 89 7c 24 08       	mov    %rdi,0x8(%rsp)
    8389:	48 89 74 24 10       	mov    %rsi,0x10(%rsp)
    838e:	48 8d 44 24 08       	lea    0x8(%rsp),%rax
    8393:	48 89 44 24 28       	mov    %rax,0x28(%rsp)
    8398:	48 c7 44 24 30 01 00 	movq   $0x1,0x30(%rsp)
    839f:	00 00 
    83a1:	48 c7 44 24 18 00 00 	movq   $0x0,0x18(%rsp)
    83a8:	00 00 
    83aa:	48 8d 05 ff aa 03 00 	lea    0x3aaff(%rip),%rax        # 42eb0 <_ZN12panic_unwind8real_imp6CANARY17h14985c46fa943241E+0x1866>
    83b1:	48 89 44 24 38       	mov    %rax,0x38(%rsp)
    83b6:	48 c7 44 24 40 00 00 	movq   $0x0,0x40(%rsp)
    83bd:	00 00 
    83bf:	48 8d 35 fa 6e 04 00 	lea    0x46efa(%rip),%rsi        # 4f2c0 <_ZN6object3elf12ELF_NOTE_GNU17hde7887b0cc7bcec0E+0xe68>
    83c6:	48 8d 7c 24 18       	lea    0x18(%rsp),%rdi
    83cb:	ff 15 d7 7b 04 00    	callq  *0x47bd7(%rip)        # 4ffa8 <_GLOBAL_OFFSET_TABLE_+0x680>
    83d1:	0f 0b                	ud2    
    83d3:	66 2e 0f 1f 84 00 00 	nopw   %cs:0x0(%rax,%rax,1)
    83da:	00 00 00 
    83dd:	0f 1f 00             	nopl   (%rax)

00000000000083e0 <_ZN4core9panicking18panic_bounds_check17he3128e0a6749543fE>:
    83e0:	48 83 ec 68          	sub    $0x68,%rsp
    83e4:	48 89 7c 24 08       	mov    %rdi,0x8(%rsp)
    83e9:	48 89 74 24 10       	mov    %rsi,0x10(%rsp)
    83ee:	48 8d 44 24 10       	lea    0x10(%rsp),%rax
    83f3:	48 89 44 24 18       	mov    %rax,0x18(%rsp)
    83f8:	48 8d 05 41 63 03 00 	lea    0x36341(%rip),%rax        # 3e740 <_ZN4core3fmt3num3imp52_$LT$impl$u20$core..fmt..Display$u20$for$u20$u64$GT$3fmt17hbdf8ede888998fcaE>
    83ff:	48 89 44 24 20       	mov    %rax,0x20(%rsp)
    8404:	48 8d 4c 24 08       	lea    0x8(%rsp),%rcx
    8409:	48 89 4c 24 28       	mov    %rcx,0x28(%rsp)
    840e:	48 89 44 24 30       	mov    %rax,0x30(%rsp)
    8413:	48 8d 05 06 6e 04 00 	lea    0x46e06(%rip),%rax        # 4f220 <_ZN6object3elf12ELF_NOTE_GNU17hde7887b0cc7bcec0E+0xdc8>
    841a:	48 89 44 24 48       	mov    %rax,0x48(%rsp)
    841f:	48 c7 44 24 50 02 00 	movq   $0x2,0x50(%rsp)
    8426:	00 00 
    8428:	48 c7 44 24 38 00 00 	movq   $0x0,0x38(%rsp)
    842f:	00 00 
    8431:	48 8d 44 24 18       	lea    0x18(%rsp),%rax
    8436:	48 89 44 24 58       	mov    %rax,0x58(%rsp)
    843b:	48 c7 44 24 60 02 00 	movq   $0x2,0x60(%rsp)
    8442:	00 00 
    8444:	48 8d 7c 24 38       	lea    0x38(%rsp),%rdi
    8449:	48 89 d6             	mov    %rdx,%rsi
    844c:	ff 15 be 78 04 00    	callq  *0x478be(%rip)        # 4fd10 <_GLOBAL_OFFSET_TABLE_+0x3e8>
    8452:	0f 0b                	ud2    
    8454:	66 2e 0f 1f 84 00 00 	nopw   %cs:0x0(%rax,%rax,1)
    845b:	00 00 00 
    845e:	66 90                	xchg   %ax,%ax

0000000000008460 <_ZN4core9panicking19panic_cannot_unwind17h93259dbfbf2cf12eE>:
    8460:	50                   	push   %rax
    8461:	48 8d 3d 9d ab 03 00 	lea    0x3ab9d(%rip),%rdi        # 43005 <_ZN12panic_unwind8real_imp6CANARY17h14985c46fa943241E+0x19bb>
    8468:	be 26 00 00 00       	mov    $0x26,%esi
    846d:	ff 15 6d 76 04 00    	callq  *0x4766d(%rip)        # 4fae0 <_GLOBAL_OFFSET_TABLE_+0x1b8>
    8473:	0f 0b                	ud2    
    8475:	66 2e 0f 1f 84 00 00 	nopw   %cs:0x0(%rax,%rax,1)
    847c:	00 00 00 
    847f:	90                   	nop

0000000000008480 <_ZN4core9panicking19assert_failed_inner17hc66dcd773a929126E>:
    8480:	48 81 ec d8 00 00 00 	sub    $0xd8,%rsp
    8487:	48 89 74 24 10       	mov    %rsi,0x10(%rsp)
    848c:	48 89 54 24 18       	mov    %rdx,0x18(%rsp)
    8491:	48 89 4c 24 20       	mov    %rcx,0x20(%rsp)
    8496:	4c 89 44 24 28       	mov    %r8,0x28(%rsp)
    849b:	40 84 ff             	test   %dil,%dil
    849e:	74 16                	je     84b6 <_ZN4core9panicking19assert_failed_inner17hc66dcd773a929126E+0x36>
    84a0:	40 0f b6 c7          	movzbl %dil,%eax
    84a4:	83 f8 01             	cmp    $0x1,%eax
    84a7:	0f 85 b4 00 00 00    	jne    8561 <_ZN4core9panicking19assert_failed_inner17hc66dcd773a929126E+0xe1>
    84ad:	48 8d 05 7e ab 03 00 	lea    0x3ab7e(%rip),%rax        # 43032 <_ZN12panic_unwind8real_imp6CANARY17h14985c46fa943241E+0x19e8>
    84b4:	eb 07                	jmp    84bd <_ZN4core9panicking19assert_failed_inner17hc66dcd773a929126E+0x3d>
    84b6:	48 8d 05 77 ab 03 00 	lea    0x3ab77(%rip),%rax        # 43034 <_ZN12panic_unwind8real_imp6CANARY17h14985c46fa943241E+0x19ea>
    84bd:	48 89 04 24          	mov    %rax,(%rsp)
    84c1:	b8 02 00 00 00       	mov    $0x2,%eax
    84c6:	48 8b b4 24 e0 00 00 	mov    0xe0(%rsp),%rsi
    84cd:	00 
    84ce:	48 89 44 24 08       	mov    %rax,0x8(%rsp)
    84d3:	49 83 79 10 00       	cmpq   $0x0,0x10(%r9)
    84d8:	0f 85 ab 00 00 00    	jne    8589 <_ZN4core9panicking19assert_failed_inner17hc66dcd773a929126E+0x109>
    84de:	48 89 e0             	mov    %rsp,%rax
    84e1:	48 89 44 24 30       	mov    %rax,0x30(%rsp)
    84e6:	48 8d 05 03 64 03 00 	lea    0x36403(%rip),%rax        # 3e8f0 <_ZN44_$LT$$RF$T$u20$as$u20$core..fmt..Display$GT$3fmt17h7252db0e6fd1e121E>
    84ed:	48 89 44 24 38       	mov    %rax,0x38(%rsp)
    84f2:	48 8d 44 24 10       	lea    0x10(%rsp),%rax
    84f7:	48 89 44 24 40       	mov    %rax,0x40(%rsp)
    84fc:	48 8d 05 8d 63 03 00 	lea    0x3638d(%rip),%rax        # 3e890 <_ZN42_$LT$$RF$T$u20$as$u20$core..fmt..Debug$GT$3fmt17h19311f701305c3adE>
    8503:	48 89 44 24 48       	mov    %rax,0x48(%rsp)
    8508:	48 8d 4c 24 20       	lea    0x20(%rsp),%rcx
    850d:	48 89 4c 24 50       	mov    %rcx,0x50(%rsp)
    8512:	48 89 44 24 58       	mov    %rax,0x58(%rsp)
    8517:	48 8d 05 fa 6d 04 00 	lea    0x46dfa(%rip),%rax        # 4f318 <_ZN6object3elf12ELF_NOTE_GNU17hde7887b0cc7bcec0E+0xec0>
    851e:	48 89 84 24 80 00 00 	mov    %rax,0x80(%rsp)
    8525:	00 
    8526:	48 c7 84 24 88 00 00 	movq   $0x4,0x88(%rsp)
    852d:	00 04 00 00 00 
    8532:	48 c7 44 24 70 00 00 	movq   $0x0,0x70(%rsp)
    8539:	00 00 
    853b:	48 8d 44 24 30       	lea    0x30(%rsp),%rax
    8540:	48 89 84 24 90 00 00 	mov    %rax,0x90(%rsp)
    8547:	00 
    8548:	48 c7 84 24 98 00 00 	movq   $0x3,0x98(%rsp)
    854f:	00 03 00 00 00 
    8554:	48 8d 7c 24 70       	lea    0x70(%rsp),%rdi
    8559:	ff 15 b1 77 04 00    	callq  *0x477b1(%rip)        # 4fd10 <_GLOBAL_OFFSET_TABLE_+0x3e8>
    855f:	0f 0b                	ud2    
    8561:	48 8d 05 c3 aa 03 00 	lea    0x3aac3(%rip),%rax        # 4302b <_ZN12panic_unwind8real_imp6CANARY17h14985c46fa943241E+0x19e1>
    8568:	48 89 04 24          	mov    %rax,(%rsp)
    856c:	b8 07 00 00 00       	mov    $0x7,%eax
    8571:	48 8b b4 24 e0 00 00 	mov    0xe0(%rsp),%rsi
    8578:	00 
    8579:	48 89 44 24 08       	mov    %rax,0x8(%rsp)
    857e:	49 83 79 10 00       	cmpq   $0x0,0x10(%r9)
    8583:	0f 84 55 ff ff ff    	je     84de <_ZN4core9panicking19assert_failed_inner17hc66dcd773a929126E+0x5e>
    8589:	41 0f 10 01          	movups (%r9),%xmm0
    858d:	41 0f 10 49 10       	movups 0x10(%r9),%xmm1
    8592:	41 0f 10 51 20       	movups 0x20(%r9),%xmm2
    8597:	0f 29 94 24 c0 00 00 	movaps %xmm2,0xc0(%rsp)
    859e:	00 
    859f:	0f 29 8c 24 b0 00 00 	movaps %xmm1,0xb0(%rsp)
    85a6:	00 
    85a7:	0f 29 84 24 a0 00 00 	movaps %xmm0,0xa0(%rsp)
    85ae:	00 
    85af:	48 89 e0             	mov    %rsp,%rax
    85b2:	48 89 44 24 30       	mov    %rax,0x30(%rsp)
    85b7:	48 8d 05 32 63 03 00 	lea    0x36332(%rip),%rax        # 3e8f0 <_ZN44_$LT$$RF$T$u20$as$u20$core..fmt..Display$GT$3fmt17h7252db0e6fd1e121E>
    85be:	48 89 44 24 38       	mov    %rax,0x38(%rsp)
    85c3:	48 8d 44 24 10       	lea    0x10(%rsp),%rax
    85c8:	48 89 44 24 40       	mov    %rax,0x40(%rsp)
    85cd:	48 8d 05 bc 62 03 00 	lea    0x362bc(%rip),%rax        # 3e890 <_ZN42_$LT$$RF$T$u20$as$u20$core..fmt..Debug$GT$3fmt17h19311f701305c3adE>
    85d4:	48 89 44 24 48       	mov    %rax,0x48(%rsp)
    85d9:	48 8d 4c 24 20       	lea    0x20(%rsp),%rcx
    85de:	48 89 4c 24 50       	mov    %rcx,0x50(%rsp)
    85e3:	48 89 44 24 58       	mov    %rax,0x58(%rsp)
    85e8:	48 8d 84 24 a0 00 00 	lea    0xa0(%rsp),%rax
    85ef:	00 
    85f0:	48 89 44 24 60       	mov    %rax,0x60(%rsp)
    85f5:	48 8d 05 d4 24 03 00 	lea    0x324d4(%rip),%rax        # 3aad0 <_ZN59_$LT$core..fmt..Arguments$u20$as$u20$core..fmt..Display$GT$3fmt17h0d17e948d52fa184E>
    85fc:	48 89 44 24 68       	mov    %rax,0x68(%rsp)
    8601:	48 8d 05 d0 6c 04 00 	lea    0x46cd0(%rip),%rax        # 4f2d8 <_ZN6object3elf12ELF_NOTE_GNU17hde7887b0cc7bcec0E+0xe80>
    8608:	48 89 84 24 80 00 00 	mov    %rax,0x80(%rsp)
    860f:	00 
    8610:	48 c7 84 24 88 00 00 	movq   $0x4,0x88(%rsp)
    8617:	00 04 00 00 00 
    861c:	48 c7 44 24 70 00 00 	movq   $0x0,0x70(%rsp)
    8623:	00 00 
    8625:	48 8d 44 24 30       	lea    0x30(%rsp),%rax
    862a:	48 89 84 24 90 00 00 	mov    %rax,0x90(%rsp)
    8631:	00 
    8632:	48 c7 84 24 98 00 00 	movq   $0x4,0x98(%rsp)
    8639:	00 04 00 00 00 
    863e:	48 8d 7c 24 70       	lea    0x70(%rsp),%rdi
    8643:	ff 15 c7 76 04 00    	callq  *0x476c7(%rip)        # 4fd10 <_GLOBAL_OFFSET_TABLE_+0x3e8>
    8649:	0f 0b                	ud2    
    864b:	0f 1f 44 00 00       	nopl   0x0(%rax,%rax,1)

0000000000008650 <_ZN4core6result13unwrap_failed17h06888dc16524e883E>:
    8650:	48 83 ec 78          	sub    $0x78,%rsp
    8654:	48 89 7c 24 08       	mov    %rdi,0x8(%rsp)
    8659:	48 89 74 24 10       	mov    %rsi,0x10(%rsp)
    865e:	48 89 54 24 18       	mov    %rdx,0x18(%rsp)
    8663:	48 89 4c 24 20       	mov    %rcx,0x20(%rsp)
    8668:	48 8d 44 24 08       	lea    0x8(%rsp),%rax
    866d:	48 89 44 24 28       	mov    %rax,0x28(%rsp)
    8672:	48 8d 05 77 62 03 00 	lea    0x36277(%rip),%rax        # 3e8f0 <_ZN44_$LT$$RF$T$u20$as$u20$core..fmt..Display$GT$3fmt17h7252db0e6fd1e121E>
    8679:	48 89 44 24 30       	mov    %rax,0x30(%rsp)
    867e:	48 8d 44 24 18       	lea    0x18(%rsp),%rax
    8683:	48 89 44 24 38       	mov    %rax,0x38(%rsp)
    8688:	48 8d 05 01 62 03 00 	lea    0x36201(%rip),%rax        # 3e890 <_ZN42_$LT$$RF$T$u20$as$u20$core..fmt..Debug$GT$3fmt17h19311f701305c3adE>
    868f:	48 89 44 24 40       	mov    %rax,0x40(%rsp)
    8694:	48 8d 05 bd 6c 04 00 	lea    0x46cbd(%rip),%rax        # 4f358 <_ZN6object3elf12ELF_NOTE_GNU17hde7887b0cc7bcec0E+0xf00>
    869b:	48 89 44 24 58       	mov    %rax,0x58(%rsp)
    86a0:	48 c7 44 24 60 02 00 	movq   $0x2,0x60(%rsp)
    86a7:	00 00 
    86a9:	48 c7 44 24 48 00 00 	movq   $0x0,0x48(%rsp)
    86b0:	00 00 
    86b2:	48 8d 44 24 28       	lea    0x28(%rsp),%rax
    86b7:	48 89 44 24 68       	mov    %rax,0x68(%rsp)
    86bc:	48 c7 44 24 70 02 00 	movq   $0x2,0x70(%rsp)
    86c3:	00 00 
    86c5:	48 8d 7c 24 48       	lea    0x48(%rsp),%rdi
    86ca:	4c 89 c6             	mov    %r8,%rsi
    86cd:	ff 15 3d 76 04 00    	callq  *0x4763d(%rip)        # 4fd10 <_GLOBAL_OFFSET_TABLE_+0x3e8>
    86d3:	0f 0b                	ud2    
    86d5:	66 2e 0f 1f 84 00 00 	nopw   %cs:0x0(%rax,%rax,1)
    86dc:	00 00 00 
    86df:	90                   	nop

00000000000086e0 <_ZN4core5slice5index26slice_start_index_len_fail17hd713efee191f6371E>:
    86e0:	50                   	push   %rax
    86e1:	e8 6a 3c 03 00       	callq  3c350 <_ZN4core5slice5index29slice_start_index_len_fail_rt17hef50ef320c1883cbE>
    86e6:	0f 0b                	ud2    
    86e8:	0f 1f 84 00 00 00 00 	nopl   0x0(%rax,%rax,1)
    86ef:	00 

00000000000086f0 <_ZN4core5slice5index24slice_end_index_len_fail17h437aa6b178188beeE>:
    86f0:	50                   	push   %rax
    86f1:	e8 da 3c 03 00       	callq  3c3d0 <_ZN4core5slice5index27slice_end_index_len_fail_rt17hd2ce4179d3f79d27E>
    86f6:	0f 0b                	ud2    
    86f8:	0f 1f 84 00 00 00 00 	nopl   0x0(%rax,%rax,1)
    86ff:	00 

0000000000008700 <_ZN4core5slice5index22slice_index_order_fail17h8315ec93d6381103E>:
    8700:	50                   	push   %rax
    8701:	e8 4a 3d 03 00       	callq  3c450 <_ZN4core5slice5index25slice_index_order_fail_rt17hfee0016bb98b8a77E>
    8706:	0f 0b                	ud2    
    8708:	0f 1f 84 00 00 00 00 	nopl   0x0(%rax,%rax,1)
    870f:	00 

0000000000008710 <_ZN4core5slice29_$LT$impl$u20$$u5b$T$u5d$$GT$15copy_from_slice17len_mismatch_fail17ha279e1108cc39633E>:
    8710:	48 83 ec 68          	sub    $0x68,%rsp
    8714:	48 89 7c 24 08       	mov    %rdi,0x8(%rsp)
    8719:	48 89 74 24 10       	mov    %rsi,0x10(%rsp)
    871e:	48 8d 44 24 10       	lea    0x10(%rsp),%rax
    8723:	48 89 44 24 18       	mov    %rax,0x18(%rsp)
    8728:	48 8d 05 11 60 03 00 	lea    0x36011(%rip),%rax        # 3e740 <_ZN4core3fmt3num3imp52_$LT$impl$u20$core..fmt..Display$u20$for$u20$u64$GT$3fmt17hbdf8ede888998fcaE>
    872f:	48 89 44 24 20       	mov    %rax,0x20(%rsp)
    8734:	48 8d 4c 24 08       	lea    0x8(%rsp),%rcx
    8739:	48 89 4c 24 28       	mov    %rcx,0x28(%rsp)
    873e:	48 89 44 24 30       	mov    %rax,0x30(%rsp)
    8743:	48 8d 05 4e 6d 04 00 	lea    0x46d4e(%rip),%rax        # 4f498 <_ZN6object3elf12ELF_NOTE_GNU17hde7887b0cc7bcec0E+0x1040>
    874a:	48 89 44 24 48       	mov    %rax,0x48(%rsp)
    874f:	48 c7 44 24 50 03 00 	movq   $0x3,0x50(%rsp)
    8756:	00 00 
    8758:	48 c7 44 24 38 00 00 	movq   $0x0,0x38(%rsp)
    875f:	00 00 
    8761:	48 8d 44 24 18       	lea    0x18(%rsp),%rax
    8766:	48 89 44 24 58       	mov    %rax,0x58(%rsp)
    876b:	48 c7 44 24 60 02 00 	movq   $0x2,0x60(%rsp)
    8772:	00 00 
    8774:	48 8d 7c 24 38       	lea    0x38(%rsp),%rdi
    8779:	48 89 d6             	mov    %rdx,%rsi
    877c:	ff 15 8e 75 04 00    	callq  *0x4758e(%rip)        # 4fd10 <_GLOBAL_OFFSET_TABLE_+0x3e8>
    8782:	0f 0b                	ud2    
    8784:	66 2e 0f 1f 84 00 00 	nopw   %cs:0x0(%rax,%rax,1)
    878b:	00 00 00 
    878e:	66 90                	xchg   %ax,%ax

0000000000008790 <_ZN4core3str6traits23str_index_overflow_fail17h3f0cb2eef8145b8dE>:
    8790:	48 83 ec 38          	sub    $0x38,%rsp
    8794:	48 89 fe             	mov    %rdi,%rsi
    8797:	48 8d 05 2a 6d 04 00 	lea    0x46d2a(%rip),%rax        # 4f4c8 <_ZN6object3elf12ELF_NOTE_GNU17hde7887b0cc7bcec0E+0x1070>
    879e:	48 89 44 24 18       	mov    %rax,0x18(%rsp)
    87a3:	48 c7 44 24 20 01 00 	movq   $0x1,0x20(%rsp)
    87aa:	00 00 
    87ac:	48 c7 44 24 08 00 00 	movq   $0x0,0x8(%rsp)
    87b3:	00 00 
    87b5:	48 8d 05 f4 a6 03 00 	lea    0x3a6f4(%rip),%rax        # 42eb0 <_ZN12panic_unwind8real_imp6CANARY17h14985c46fa943241E+0x1866>
    87bc:	48 89 44 24 28       	mov    %rax,0x28(%rsp)
    87c1:	48 c7 44 24 30 00 00 	movq   $0x0,0x30(%rsp)
    87c8:	00 00 
    87ca:	48 8d 7c 24 08       	lea    0x8(%rsp),%rdi
    87cf:	ff 15 3b 75 04 00    	callq  *0x4753b(%rip)        # 4fd10 <_GLOBAL_OFFSET_TABLE_+0x3e8>
    87d5:	0f 0b                	ud2    
    87d7:	66 0f 1f 84 00 00 00 	nopw   0x0(%rax,%rax,1)
    87de:	00 00 

00000000000087e0 <_ZN4core3str16slice_error_fail17h1ee7580d5ad95df9E>:
    87e0:	50                   	push   %rax
    87e1:	ff 15 31 77 04 00    	callq  *0x47731(%rip)        # 4ff18 <_GLOBAL_OFFSET_TABLE_+0x5f0>
    87e7:	0f 0b                	ud2    
    87e9:	0f 1f 80 00 00 00 00 	nopl   0x0(%rax)

00000000000087f0 <_start>:
    87f0:	f3 0f 1e fa          	endbr64 
    87f4:	31 ed                	xor    %ebp,%ebp
    87f6:	49 89 d1             	mov    %rdx,%r9
    87f9:	5e                   	pop    %rsi
    87fa:	48 89 e2             	mov    %rsp,%rdx
    87fd:	48 83 e4 f0          	and    $0xfffffffffffffff0,%rsp
    8801:	50                   	push   %rax
    8802:	54                   	push   %rsp
    8803:	4c 8d 05 36 65 03 00 	lea    0x36536(%rip),%r8        # 3ed40 <__libc_csu_fini>
    880a:	48 8d 0d bf 64 03 00 	lea    0x364bf(%rip),%rcx        # 3ecd0 <__libc_csu_init>
    8811:	48 8d 3d 68 0d 00 00 	lea    0xd68(%rip),%rdi        # 9580 <main>
    8818:	ff 15 1a 74 04 00    	callq  *0x4741a(%rip)        # 4fc38 <__libc_start_main@GLIBC_2.2.5>
    881e:	f4                   	hlt    
    881f:	90                   	nop

0000000000008820 <deregister_tm_clones>:
    8820:	48 8d 3d 09 78 04 00 	lea    0x47809(%rip),%rdi        # 50030 <__TMC_END__>
    8827:	48 8d 05 02 78 04 00 	lea    0x47802(%rip),%rax        # 50030 <__TMC_END__>
    882e:	48 39 f8             	cmp    %rdi,%rax
    8831:	74 15                	je     8848 <deregister_tm_clones+0x28>
    8833:	48 8b 05 d6 71 04 00 	mov    0x471d6(%rip),%rax        # 4fa10 <_ITM_deregisterTMCloneTable>
    883a:	48 85 c0             	test   %rax,%rax
    883d:	74 09                	je     8848 <deregister_tm_clones+0x28>
    883f:	ff e0                	jmpq   *%rax
    8841:	0f 1f 80 00 00 00 00 	nopl   0x0(%rax)
    8848:	c3                   	retq   
    8849:	0f 1f 80 00 00 00 00 	nopl   0x0(%rax)

0000000000008850 <register_tm_clones>:
    8850:	48 8d 3d d9 77 04 00 	lea    0x477d9(%rip),%rdi        # 50030 <__TMC_END__>
    8857:	48 8d 35 d2 77 04 00 	lea    0x477d2(%rip),%rsi        # 50030 <__TMC_END__>
    885e:	48 29 fe             	sub    %rdi,%rsi
    8861:	48 89 f0             	mov    %rsi,%rax
    8864:	48 c1 ee 3f          	shr    $0x3f,%rsi
    8868:	48 c1 f8 03          	sar    $0x3,%rax
    886c:	48 01 c6             	add    %rax,%rsi
    886f:	48 d1 fe             	sar    %rsi
    8872:	74 14                	je     8888 <register_tm_clones+0x38>
    8874:	48 8b 05 bd 76 04 00 	mov    0x476bd(%rip),%rax        # 4ff38 <_ITM_registerTMCloneTable>
    887b:	48 85 c0             	test   %rax,%rax
    887e:	74 08                	je     8888 <register_tm_clones+0x38>
    8880:	ff e0                	jmpq   *%rax
    8882:	66 0f 1f 44 00 00    	nopw   0x0(%rax,%rax,1)
    8888:	c3                   	retq   
    8889:	0f 1f 80 00 00 00 00 	nopl   0x0(%rax)

0000000000008890 <__do_global_dtors_aux>:
    8890:	f3 0f 1e fa          	endbr64 
    8894:	80 3d 95 77 04 00 00 	cmpb   $0x0,0x47795(%rip)        # 50030 <__TMC_END__>
    889b:	75 2b                	jne    88c8 <__do_global_dtors_aux+0x38>
    889d:	55                   	push   %rbp
    889e:	48 83 3d f2 76 04 00 	cmpq   $0x0,0x476f2(%rip)        # 4ff98 <__cxa_finalize@GLIBC_2.2.5>
    88a5:	00 
    88a6:	48 89 e5             	mov    %rsp,%rbp
    88a9:	74 0c                	je     88b7 <__do_global_dtors_aux+0x27>
    88ab:	48 8b 3d 4e 77 04 00 	mov    0x4774e(%rip),%rdi        # 50000 <__dso_handle>
    88b2:	e8 b9 d7 ff ff       	callq  6070 <__cxa_finalize@plt>
    88b7:	e8 64 ff ff ff       	callq  8820 <deregister_tm_clones>
    88bc:	c6 05 6d 77 04 00 01 	movb   $0x1,0x4776d(%rip)        # 50030 <__TMC_END__>
    88c3:	5d                   	pop    %rbp
    88c4:	c3                   	retq   
    88c5:	0f 1f 00             	nopl   (%rax)
    88c8:	c3                   	retq   
    88c9:	0f 1f 80 00 00 00 00 	nopl   0x0(%rax)

00000000000088d0 <frame_dummy>:
    88d0:	f3 0f 1e fa          	endbr64 
    88d4:	e9 77 ff ff ff       	jmpq   8850 <register_tm_clones>
    88d9:	0f 1f 80 00 00 00 00 	nopl   0x0(%rax)

00000000000088e0 <_ZN4core3fmt3num50_$LT$impl$u20$core..fmt..Debug$u20$for$u20$i32$GT$3fmt17h6426ebb45c7cc5deE>:
    88e0:	48 83 ec 38          	sub    $0x38,%rsp
    88e4:	48 89 74 24 08       	mov    %rsi,0x8(%rsp)
    88e9:	48 89 f8             	mov    %rdi,%rax
    88ec:	48 8b 7c 24 08       	mov    0x8(%rsp),%rdi
    88f1:	48 89 44 24 10       	mov    %rax,0x10(%rsp)
    88f6:	48 89 7c 24 18       	mov    %rdi,0x18(%rsp)
    88fb:	48 89 44 24 28       	mov    %rax,0x28(%rsp)
    8900:	48 89 7c 24 30       	mov    %rdi,0x30(%rsp)
    8905:	ff 15 cd 74 04 00    	callq  *0x474cd(%rip)        # 4fdd8 <_GLOBAL_OFFSET_TABLE_+0x4b0>
    890b:	a8 01                	test   $0x1,%al
    890d:	75 11                	jne    8920 <_ZN4core3fmt3num50_$LT$impl$u20$core..fmt..Debug$u20$for$u20$i32$GT$3fmt17h6426ebb45c7cc5deE+0x40>
    890f:	48 8b 7c 24 18       	mov    0x18(%rsp),%rdi
    8914:	ff 15 86 74 04 00    	callq  *0x47486(%rip)        # 4fda0 <_GLOBAL_OFFSET_TABLE_+0x478>
    891a:	a8 01                	test   $0x1,%al
    891c:	75 3e                	jne    895c <_ZN4core3fmt3num50_$LT$impl$u20$core..fmt..Debug$u20$for$u20$i32$GT$3fmt17h6426ebb45c7cc5deE+0x7c>
    891e:	eb 24                	jmp    8944 <_ZN4core3fmt3num50_$LT$impl$u20$core..fmt..Debug$u20$for$u20$i32$GT$3fmt17h6426ebb45c7cc5deE+0x64>
    8920:	48 8b 74 24 18       	mov    0x18(%rsp),%rsi
    8925:	48 8b 7c 24 10       	mov    0x10(%rsp),%rdi
    892a:	ff 15 70 76 04 00    	callq  *0x47670(%rip)        # 4ffa0 <_GLOBAL_OFFSET_TABLE_+0x678>
    8930:	24 01                	and    $0x1,%al
    8932:	88 44 24 27          	mov    %al,0x27(%rsp)
    8936:	8a 44 24 27          	mov    0x27(%rsp),%al
    893a:	24 01                	and    $0x1,%al
    893c:	0f b6 c0             	movzbl %al,%eax
    893f:	48 83 c4 38          	add    $0x38,%rsp
    8943:	c3                   	retq   
    8944:	48 8b 74 24 18       	mov    0x18(%rsp),%rsi
    8949:	48 8b 7c 24 10       	mov    0x10(%rsp),%rdi
    894e:	ff 15 fc 74 04 00    	callq  *0x474fc(%rip)        # 4fe50 <_GLOBAL_OFFSET_TABLE_+0x528>
    8954:	24 01                	and    $0x1,%al
    8956:	88 44 24 27          	mov    %al,0x27(%rsp)
    895a:	eb 16                	jmp    8972 <_ZN4core3fmt3num50_$LT$impl$u20$core..fmt..Debug$u20$for$u20$i32$GT$3fmt17h6426ebb45c7cc5deE+0x92>
    895c:	48 8b 74 24 18       	mov    0x18(%rsp),%rsi
    8961:	48 8b 7c 24 10       	mov    0x10(%rsp),%rdi
    8966:	ff 15 5c 73 04 00    	callq  *0x4735c(%rip)        # 4fcc8 <_GLOBAL_OFFSET_TABLE_+0x3a0>
    896c:	24 01                	and    $0x1,%al
    896e:	88 44 24 27          	mov    %al,0x27(%rsp)
    8972:	eb c2                	jmp    8936 <_ZN4core3fmt3num50_$LT$impl$u20$core..fmt..Debug$u20$for$u20$i32$GT$3fmt17h6426ebb45c7cc5deE+0x56>
    8974:	66 2e 0f 1f 84 00 00 	nopw   %cs:0x0(%rax,%rax,1)
    897b:	00 00 00 
    897e:	66 90                	xchg   %ax,%ax

0000000000008980 <_ZN54_$LT$$LP$$RP$$u20$as$u20$std..process..Termination$GT$6report17h2a97772c11851755E>:
    8980:	50                   	push   %rax
    8981:	31 c0                	xor    %eax,%eax
    8983:	59                   	pop    %rcx
    8984:	c3                   	retq   
    8985:	66 2e 0f 1f 84 00 00 	nopw   %cs:0x0(%rax,%rax,1)
    898c:	00 00 00 
    898f:	90                   	nop

0000000000008990 <_ZN3std2rt10lang_start17h119cb8333f0ab4a1E>:
    8990:	48 83 ec 38          	sub    $0x38,%rsp
    8994:	89 c8                	mov    %ecx,%eax
    8996:	48 89 d1             	mov    %rdx,%rcx
    8999:	48 89 f2             	mov    %rsi,%rdx
    899c:	48 89 7c 24 10       	mov    %rdi,0x10(%rsp)
    89a1:	48 89 54 24 18       	mov    %rdx,0x18(%rsp)
    89a6:	48 89 4c 24 20       	mov    %rcx,0x20(%rsp)
    89ab:	88 44 24 2f          	mov    %al,0x2f(%rsp)
    89af:	48 89 7c 24 08       	mov    %rdi,0x8(%rsp)
    89b4:	48 8d 7c 24 08       	lea    0x8(%rsp),%rdi
    89b9:	48 8d 35 d0 48 04 00 	lea    0x448d0(%rip),%rsi        # 4d290 <__init_array_end+0x8>
    89c0:	44 0f b6 c0          	movzbl %al,%r8d
    89c4:	ff 15 36 72 04 00    	callq  *0x47236(%rip)        # 4fc00 <_GLOBAL_OFFSET_TABLE_+0x2d8>
    89ca:	48 89 04 24          	mov    %rax,(%rsp)
    89ce:	48 8b 04 24          	mov    (%rsp),%rax
    89d2:	48 89 44 24 30       	mov    %rax,0x30(%rsp)
    89d7:	48 83 c4 38          	add    $0x38,%rsp
    89db:	c3                   	retq   
    89dc:	0f 1f 40 00          	nopl   0x0(%rax)

00000000000089e0 <_ZN3std2rt10lang_start28_$u7b$$u7b$closure$u7d$$u7d$17he5524993c82228f7E>:
    89e0:	48 83 ec 18          	sub    $0x18,%rsp
    89e4:	48 89 7c 24 08       	mov    %rdi,0x8(%rsp)
    89e9:	48 8b 3f             	mov    (%rdi),%rdi
    89ec:	e8 1f 05 00 00       	callq  8f10 <_ZN3std10sys_common9backtrace28__rust_begin_short_backtrace17h8a9c7ed204d6e63fE>
    89f1:	e8 8a ff ff ff       	callq  8980 <_ZN54_$LT$$LP$$RP$$u20$as$u20$std..process..Termination$GT$6report17h2a97772c11851755E>
    89f6:	88 44 24 07          	mov    %al,0x7(%rsp)
    89fa:	48 8d 44 24 07       	lea    0x7(%rsp),%rax
    89ff:	48 89 44 24 10       	mov    %rax,0x10(%rsp)
    8a04:	0f b6 44 24 07       	movzbl 0x7(%rsp),%eax
    8a09:	48 83 c4 18          	add    $0x18,%rsp
    8a0d:	c3                   	retq   
    8a0e:	66 90                	xchg   %ax,%ax

0000000000008a10 <_ZN5alloc5alloc15exchange_malloc17h7854235c4a14f49fE>:
    8a10:	48 83 ec 78          	sub    $0x78,%rsp
    8a14:	48 89 7c 24 30       	mov    %rdi,0x30(%rsp)
    8a19:	48 89 74 24 38       	mov    %rsi,0x38(%rsp)
    8a1e:	48 89 74 24 40       	mov    %rsi,0x40(%rsp)
    8a23:	48 8b 44 24 40       	mov    0x40(%rsp),%rax
    8a28:	48 89 7c 24 08       	mov    %rdi,0x8(%rsp)
    8a2d:	48 89 44 24 10       	mov    %rax,0x10(%rsp)
    8a32:	48 8d 3d c7 65 03 00 	lea    0x365c7(%rip),%rdi        # 3f000 <_fini+0x27c>
    8a39:	48 89 7c 24 48       	mov    %rdi,0x48(%rsp)
    8a3e:	48 8b 74 24 08       	mov    0x8(%rsp),%rsi
    8a43:	48 8b 54 24 10       	mov    0x10(%rsp),%rdx
    8a48:	31 c9                	xor    %ecx,%ecx
    8a4a:	e8 71 00 00 00       	callq  8ac0 <_ZN5alloc5alloc6Global10alloc_impl17h81b33eae7a5e2f5bE>
    8a4f:	48 89 54 24 20       	mov    %rdx,0x20(%rsp)
    8a54:	48 89 44 24 18       	mov    %rax,0x18(%rsp)
    8a59:	48 8b 54 24 18       	mov    0x18(%rsp),%rdx
    8a5e:	31 c0                	xor    %eax,%eax
    8a60:	b9 01 00 00 00       	mov    $0x1,%ecx
    8a65:	48 83 fa 00          	cmp    $0x0,%rdx
    8a69:	48 0f 44 c1          	cmove  %rcx,%rax
    8a6d:	48 83 f8 00          	cmp    $0x0,%rax
    8a71:	75 32                	jne    8aa5 <_ZN5alloc5alloc15exchange_malloc17h7854235c4a14f49fE+0x95>
    8a73:	48 8b 44 24 18       	mov    0x18(%rsp),%rax
    8a78:	48 8b 4c 24 20       	mov    0x20(%rsp),%rcx
    8a7d:	48 89 44 24 50       	mov    %rax,0x50(%rsp)
    8a82:	48 89 4c 24 58       	mov    %rcx,0x58(%rsp)
    8a87:	48 89 44 24 60       	mov    %rax,0x60(%rsp)
    8a8c:	48 89 4c 24 68       	mov    %rcx,0x68(%rsp)
    8a91:	48 89 44 24 70       	mov    %rax,0x70(%rsp)
    8a96:	48 89 44 24 28       	mov    %rax,0x28(%rsp)
    8a9b:	48 8b 44 24 28       	mov    0x28(%rsp),%rax
    8aa0:	48 83 c4 78          	add    $0x78,%rsp
    8aa4:	c3                   	retq   
    8aa5:	48 8b 7c 24 08       	mov    0x8(%rsp),%rdi
    8aaa:	48 8b 74 24 10       	mov    0x10(%rsp),%rsi
    8aaf:	48 8d 05 da f7 ff ff 	lea    -0x826(%rip),%rax        # 8290 <_ZN5alloc5alloc18handle_alloc_error17ha75697b971790499E>
    8ab6:	ff d0                	callq  *%rax
    8ab8:	0f 0b                	ud2    
    8aba:	66 0f 1f 44 00 00    	nopw   0x0(%rax,%rax,1)

0000000000008ac0 <_ZN5alloc5alloc6Global10alloc_impl17h81b33eae7a5e2f5bE>:
    8ac0:	48 81 ec 28 02 00 00 	sub    $0x228,%rsp
    8ac7:	88 c8                	mov    %cl,%al
    8ac9:	88 44 24 0f          	mov    %al,0xf(%rsp)
    8acd:	48 89 74 24 18       	mov    %rsi,0x18(%rsp)
    8ad2:	48 89 54 24 20       	mov    %rdx,0x20(%rsp)
    8ad7:	48 89 bc 24 08 01 00 	mov    %rdi,0x108(%rsp)
    8ade:	00 
    8adf:	24 01                	and    $0x1,%al
    8ae1:	88 84 24 17 01 00 00 	mov    %al,0x117(%rsp)
    8ae8:	48 8d 44 24 18       	lea    0x18(%rsp),%rax
    8aed:	48 89 84 24 48 01 00 	mov    %rax,0x148(%rsp)
    8af4:	00 
    8af5:	48 8b 44 24 18       	mov    0x18(%rsp),%rax
    8afa:	48 89 44 24 10       	mov    %rax,0x10(%rsp)
    8aff:	48 89 84 24 50 01 00 	mov    %rax,0x150(%rsp)
    8b06:	00 
    8b07:	48 83 f8 00          	cmp    $0x0,%rax
    8b0b:	0f 85 e7 00 00 00    	jne    8bf8 <_ZN5alloc5alloc6Global10alloc_impl17h81b33eae7a5e2f5bE+0x138>
    8b11:	48 8d 44 24 18       	lea    0x18(%rsp),%rax
    8b16:	48 89 84 24 d8 01 00 	mov    %rax,0x1d8(%rsp)
    8b1d:	00 
    8b1e:	48 8b 44 24 20       	mov    0x20(%rsp),%rax
    8b23:	48 89 84 24 e0 01 00 	mov    %rax,0x1e0(%rsp)
    8b2a:	00 
    8b2b:	48 89 84 24 a0 00 00 	mov    %rax,0xa0(%rsp)
    8b32:	00 
    8b33:	48 8b 84 24 a0 00 00 	mov    0xa0(%rsp),%rax
    8b3a:	00 
    8b3b:	48 89 84 24 e8 01 00 	mov    %rax,0x1e8(%rsp)
    8b42:	00 
    8b43:	48 89 84 24 f0 01 00 	mov    %rax,0x1f0(%rsp)
    8b4a:	00 
    8b4b:	48 8b 84 24 f0 01 00 	mov    0x1f0(%rsp),%rax
    8b52:	00 
    8b53:	48 89 84 24 f8 01 00 	mov    %rax,0x1f8(%rsp)
    8b5a:	00 
    8b5b:	48 89 44 24 48       	mov    %rax,0x48(%rsp)
    8b60:	48 c7 84 24 00 02 00 	movq   $0x0,0x200(%rsp)
    8b67:	00 00 00 00 00 
    8b6c:	48 8b 44 24 48       	mov    0x48(%rsp),%rax
    8b71:	48 89 84 24 08 02 00 	mov    %rax,0x208(%rsp)
    8b78:	00 
    8b79:	48 89 84 24 10 02 00 	mov    %rax,0x210(%rsp)
    8b80:	00 
    8b81:	48 89 84 24 b8 00 00 	mov    %rax,0xb8(%rsp)
    8b88:	00 
    8b89:	48 c7 84 24 c0 00 00 	movq   $0x0,0xc0(%rsp)
    8b90:	00 00 00 00 00 
    8b95:	48 8b 8c 24 b8 00 00 	mov    0xb8(%rsp),%rcx
    8b9c:	00 
    8b9d:	48 8b 84 24 c0 00 00 	mov    0xc0(%rsp),%rax
    8ba4:	00 
    8ba5:	48 89 8c 24 a8 00 00 	mov    %rcx,0xa8(%rsp)
    8bac:	00 
    8bad:	48 89 84 24 b0 00 00 	mov    %rax,0xb0(%rsp)
    8bb4:	00 
    8bb5:	48 8b 8c 24 a8 00 00 	mov    0xa8(%rsp),%rcx
    8bbc:	00 
    8bbd:	48 8b 84 24 b0 00 00 	mov    0xb0(%rsp),%rax
    8bc4:	00 
    8bc5:	48 89 8c 24 18 02 00 	mov    %rcx,0x218(%rsp)
    8bcc:	00 
    8bcd:	48 89 84 24 20 02 00 	mov    %rax,0x220(%rsp)
    8bd4:	00 
    8bd5:	48 89 4c 24 38       	mov    %rcx,0x38(%rsp)
    8bda:	48 89 44 24 40       	mov    %rax,0x40(%rsp)
    8bdf:	48 8b 4c 24 38       	mov    0x38(%rsp),%rcx
    8be4:	48 8b 44 24 40       	mov    0x40(%rsp),%rax
    8be9:	48 89 4c 24 28       	mov    %rcx,0x28(%rsp)
    8bee:	48 89 44 24 30       	mov    %rax,0x30(%rsp)
    8bf3:	e9 74 02 00 00       	jmpq   8e6c <_ZN5alloc5alloc6Global10alloc_impl17h81b33eae7a5e2f5bE+0x3ac>
    8bf8:	8a 44 24 0f          	mov    0xf(%rsp),%al
    8bfc:	a8 01                	test   $0x1,%al
    8bfe:	75 5f                	jne    8c5f <_ZN5alloc5alloc6Global10alloc_impl17h81b33eae7a5e2f5bE+0x19f>
    8c00:	eb 00                	jmp    8c02 <_ZN5alloc5alloc6Global10alloc_impl17h81b33eae7a5e2f5bE+0x142>
    8c02:	48 8b 4c 24 18       	mov    0x18(%rsp),%rcx
    8c07:	48 8b 44 24 20       	mov    0x20(%rsp),%rax
    8c0c:	48 89 4c 24 68       	mov    %rcx,0x68(%rsp)
    8c11:	48 89 44 24 70       	mov    %rax,0x70(%rsp)
    8c16:	48 8d 44 24 68       	lea    0x68(%rsp),%rax
    8c1b:	48 89 84 24 70 01 00 	mov    %rax,0x170(%rsp)
    8c22:	00 
    8c23:	48 8b 7c 24 68       	mov    0x68(%rsp),%rdi
    8c28:	48 8d 44 24 68       	lea    0x68(%rsp),%rax
    8c2d:	48 89 84 24 78 01 00 	mov    %rax,0x178(%rsp)
    8c34:	00 
    8c35:	48 8b 44 24 70       	mov    0x70(%rsp),%rax
    8c3a:	48 89 84 24 80 01 00 	mov    %rax,0x180(%rsp)
    8c41:	00 
    8c42:	48 89 84 24 d0 00 00 	mov    %rax,0xd0(%rsp)
    8c49:	00 
    8c4a:	48 8b b4 24 d0 00 00 	mov    0xd0(%rsp),%rsi
    8c51:	00 
    8c52:	ff 15 e8 6e 04 00    	callq  *0x46ee8(%rip)        # 4fb40 <_GLOBAL_OFFSET_TABLE_+0x218>
    8c58:	48 89 44 24 50       	mov    %rax,0x50(%rsp)
    8c5d:	eb 5b                	jmp    8cba <_ZN5alloc5alloc6Global10alloc_impl17h81b33eae7a5e2f5bE+0x1fa>
    8c5f:	48 8b 4c 24 18       	mov    0x18(%rsp),%rcx
    8c64:	48 8b 44 24 20       	mov    0x20(%rsp),%rax
    8c69:	48 89 4c 24 58       	mov    %rcx,0x58(%rsp)
    8c6e:	48 89 44 24 60       	mov    %rax,0x60(%rsp)
    8c73:	48 8d 44 24 58       	lea    0x58(%rsp),%rax
    8c78:	48 89 84 24 58 01 00 	mov    %rax,0x158(%rsp)
    8c7f:	00 
    8c80:	48 8b 7c 24 58       	mov    0x58(%rsp),%rdi
    8c85:	48 8d 44 24 58       	lea    0x58(%rsp),%rax
    8c8a:	48 89 84 24 60 01 00 	mov    %rax,0x160(%rsp)
    8c91:	00 
    8c92:	48 8b 44 24 60       	mov    0x60(%rsp),%rax
    8c97:	48 89 84 24 68 01 00 	mov    %rax,0x168(%rsp)
    8c9e:	00 
    8c9f:	48 89 84 24 c8 00 00 	mov    %rax,0xc8(%rsp)
    8ca6:	00 
    8ca7:	48 8b b4 24 c8 00 00 	mov    0xc8(%rsp),%rsi
    8cae:	00 
    8caf:	ff 15 0b 6f 04 00    	callq  *0x46f0b(%rip)        # 4fbc0 <_GLOBAL_OFFSET_TABLE_+0x298>
    8cb5:	48 89 44 24 50       	mov    %rax,0x50(%rsp)
    8cba:	48 8b 44 24 50       	mov    0x50(%rsp),%rax
    8cbf:	48 89 04 24          	mov    %rax,(%rsp)
    8cc3:	48 89 84 24 88 01 00 	mov    %rax,0x188(%rsp)
    8cca:	00 
    8ccb:	48 89 84 24 e0 00 00 	mov    %rax,0xe0(%rsp)
    8cd2:	00 
    8cd3:	48 8b 84 24 e0 00 00 	mov    0xe0(%rsp),%rax
    8cda:	00 
    8cdb:	48 89 84 24 90 01 00 	mov    %rax,0x190(%rsp)
    8ce2:	00 
    8ce3:	48 89 84 24 98 01 00 	mov    %rax,0x198(%rsp)
    8cea:	00 
    8ceb:	48 83 bc 24 98 01 00 	cmpq   $0x0,0x198(%rsp)
    8cf2:	00 00 
    8cf4:	0f 94 c0             	sete   %al
    8cf7:	34 ff                	xor    $0xff,%al
    8cf9:	a8 01                	test   $0x1,%al
    8cfb:	75 0e                	jne    8d0b <_ZN5alloc5alloc6Global10alloc_impl17h81b33eae7a5e2f5bE+0x24b>
    8cfd:	48 c7 84 24 88 00 00 	movq   $0x0,0x88(%rsp)
    8d04:	00 00 00 00 00 
    8d09:	eb 1c                	jmp    8d27 <_ZN5alloc5alloc6Global10alloc_impl17h81b33eae7a5e2f5bE+0x267>
    8d0b:	48 8b 04 24          	mov    (%rsp),%rax
    8d0f:	48 89 84 24 d8 00 00 	mov    %rax,0xd8(%rsp)
    8d16:	00 
    8d17:	48 8b 84 24 d8 00 00 	mov    0xd8(%rsp),%rax
    8d1e:	00 
    8d1f:	48 89 84 24 88 00 00 	mov    %rax,0x88(%rsp)
    8d26:	00 
    8d27:	48 8b 94 24 88 00 00 	mov    0x88(%rsp),%rdx
    8d2e:	00 
    8d2f:	b8 01 00 00 00       	mov    $0x1,%eax
    8d34:	31 c9                	xor    %ecx,%ecx
    8d36:	48 83 fa 00          	cmp    $0x0,%rdx
    8d3a:	48 0f 44 c1          	cmove  %rcx,%rax
    8d3e:	48 83 f8 00          	cmp    $0x0,%rax
    8d42:	75 0e                	jne    8d52 <_ZN5alloc5alloc6Global10alloc_impl17h81b33eae7a5e2f5bE+0x292>
    8d44:	48 c7 84 24 80 00 00 	movq   $0x0,0x80(%rsp)
    8d4b:	00 00 00 00 00 
    8d50:	eb 18                	jmp    8d6a <_ZN5alloc5alloc6Global10alloc_impl17h81b33eae7a5e2f5bE+0x2aa>
    8d52:	48 8b 84 24 88 00 00 	mov    0x88(%rsp),%rax
    8d59:	00 
    8d5a:	48 89 84 24 a0 01 00 	mov    %rax,0x1a0(%rsp)
    8d61:	00 
    8d62:	48 89 84 24 80 00 00 	mov    %rax,0x80(%rsp)
    8d69:	00 
    8d6a:	48 8b 94 24 80 00 00 	mov    0x80(%rsp),%rdx
    8d71:	00 
    8d72:	31 c0                	xor    %eax,%eax
    8d74:	b9 01 00 00 00       	mov    $0x1,%ecx
    8d79:	48 83 fa 00          	cmp    $0x0,%rdx
    8d7d:	48 0f 44 c1          	cmove  %rcx,%rax
    8d81:	48 83 f8 00          	cmp    $0x0,%rax
    8d85:	75 17                	jne    8d9e <_ZN5alloc5alloc6Global10alloc_impl17h81b33eae7a5e2f5bE+0x2de>
    8d87:	48 8b 84 24 80 00 00 	mov    0x80(%rsp),%rax
    8d8e:	00 
    8d8f:	48 89 84 24 a8 01 00 	mov    %rax,0x1a8(%rsp)
    8d96:	00 
    8d97:	48 89 44 24 78       	mov    %rax,0x78(%rsp)
    8d9c:	eb 09                	jmp    8da7 <_ZN5alloc5alloc6Global10alloc_impl17h81b33eae7a5e2f5bE+0x2e7>
    8d9e:	48 c7 44 24 78 00 00 	movq   $0x0,0x78(%rsp)
    8da5:	00 00 
    8da7:	48 8b 54 24 78       	mov    0x78(%rsp),%rdx
    8dac:	31 c0                	xor    %eax,%eax
    8dae:	b9 01 00 00 00       	mov    $0x1,%ecx
    8db3:	48 83 fa 00          	cmp    $0x0,%rdx
    8db7:	48 0f 44 c1          	cmove  %rcx,%rax
    8dbb:	48 83 f8 00          	cmp    $0x0,%rax
    8dbf:	0f 85 9e 00 00 00    	jne    8e63 <_ZN5alloc5alloc6Global10alloc_impl17h81b33eae7a5e2f5bE+0x3a3>
    8dc5:	48 8b 44 24 10       	mov    0x10(%rsp),%rax
    8dca:	48 8b 4c 24 78       	mov    0x78(%rsp),%rcx
    8dcf:	48 89 8c 24 b0 01 00 	mov    %rcx,0x1b0(%rsp)
    8dd6:	00 
    8dd7:	48 89 8c 24 b8 01 00 	mov    %rcx,0x1b8(%rsp)
    8dde:	00 
    8ddf:	48 89 8c 24 c0 01 00 	mov    %rcx,0x1c0(%rsp)
    8de6:	00 
    8de7:	48 89 8c 24 f8 00 00 	mov    %rcx,0xf8(%rsp)
    8dee:	00 
    8def:	48 89 84 24 00 01 00 	mov    %rax,0x100(%rsp)
    8df6:	00 
    8df7:	48 8b 8c 24 f8 00 00 	mov    0xf8(%rsp),%rcx
    8dfe:	00 
    8dff:	48 8b 84 24 00 01 00 	mov    0x100(%rsp),%rax
    8e06:	00 
    8e07:	48 89 8c 24 e8 00 00 	mov    %rcx,0xe8(%rsp)
    8e0e:	00 
    8e0f:	48 89 84 24 f0 00 00 	mov    %rax,0xf0(%rsp)
    8e16:	00 
    8e17:	48 8b 8c 24 e8 00 00 	mov    0xe8(%rsp),%rcx
    8e1e:	00 
    8e1f:	48 8b 84 24 f0 00 00 	mov    0xf0(%rsp),%rax
    8e26:	00 
    8e27:	48 89 8c 24 c8 01 00 	mov    %rcx,0x1c8(%rsp)
    8e2e:	00 
    8e2f:	48 89 84 24 d0 01 00 	mov    %rax,0x1d0(%rsp)
    8e36:	00 
    8e37:	48 89 8c 24 90 00 00 	mov    %rcx,0x90(%rsp)
    8e3e:	00 
    8e3f:	48 89 84 24 98 00 00 	mov    %rax,0x98(%rsp)
    8e46:	00 
    8e47:	48 8b 8c 24 90 00 00 	mov    0x90(%rsp),%rcx
    8e4e:	00 
    8e4f:	48 8b 84 24 98 00 00 	mov    0x98(%rsp),%rax
    8e56:	00 
    8e57:	48 89 4c 24 28       	mov    %rcx,0x28(%rsp)
    8e5c:	48 89 44 24 30       	mov    %rax,0x30(%rsp)
    8e61:	eb 09                	jmp    8e6c <_ZN5alloc5alloc6Global10alloc_impl17h81b33eae7a5e2f5bE+0x3ac>
    8e63:	48 c7 44 24 28 00 00 	movq   $0x0,0x28(%rsp)
    8e6a:	00 00 
    8e6c:	48 8b 44 24 28       	mov    0x28(%rsp),%rax
    8e71:	48 8b 54 24 30       	mov    0x30(%rsp),%rdx
    8e76:	48 81 c4 28 02 00 00 	add    $0x228,%rsp
    8e7d:	c3                   	retq   
    8e7e:	66 90                	xchg   %ax,%ax

0000000000008e80 <_ZN63_$LT$alloc..alloc..Global$u20$as$u20$core..alloc..Allocator$GT$10deallocate17h4a8856b2e1ee8f59E>:
    8e80:	48 83 ec 68          	sub    $0x68,%rsp
    8e84:	48 89 34 24          	mov    %rsi,(%rsp)
    8e88:	48 89 54 24 08       	mov    %rdx,0x8(%rsp)
    8e8d:	48 89 4c 24 10       	mov    %rcx,0x10(%rsp)
    8e92:	48 89 7c 24 30       	mov    %rdi,0x30(%rsp)
    8e97:	48 89 74 24 38       	mov    %rsi,0x38(%rsp)
    8e9c:	48 8d 44 24 08       	lea    0x8(%rsp),%rax
    8ea1:	48 89 44 24 40       	mov    %rax,0x40(%rsp)
    8ea6:	48 83 7c 24 08 00    	cmpq   $0x0,0x8(%rsp)
    8eac:	75 02                	jne    8eb0 <_ZN63_$LT$alloc..alloc..Global$u20$as$u20$core..alloc..Allocator$GT$10deallocate17h4a8856b2e1ee8f59E+0x30>
    8eae:	eb 50                	jmp    8f00 <_ZN63_$LT$alloc..alloc..Global$u20$as$u20$core..alloc..Allocator$GT$10deallocate17h4a8856b2e1ee8f59E+0x80>
    8eb0:	48 8b 3c 24          	mov    (%rsp),%rdi
    8eb4:	48 89 7c 24 48       	mov    %rdi,0x48(%rsp)
    8eb9:	48 8b 4c 24 08       	mov    0x8(%rsp),%rcx
    8ebe:	48 8b 44 24 10       	mov    0x10(%rsp),%rax
    8ec3:	48 89 4c 24 18       	mov    %rcx,0x18(%rsp)
    8ec8:	48 89 44 24 20       	mov    %rax,0x20(%rsp)
    8ecd:	48 8d 44 24 18       	lea    0x18(%rsp),%rax
    8ed2:	48 89 44 24 50       	mov    %rax,0x50(%rsp)
    8ed7:	48 8b 74 24 18       	mov    0x18(%rsp),%rsi
    8edc:	48 8d 44 24 18       	lea    0x18(%rsp),%rax
    8ee1:	48 89 44 24 58       	mov    %rax,0x58(%rsp)
    8ee6:	48 8b 44 24 20       	mov    0x20(%rsp),%rax
    8eeb:	48 89 44 24 60       	mov    %rax,0x60(%rsp)
    8ef0:	48 89 44 24 28       	mov    %rax,0x28(%rsp)
    8ef5:	48 8b 54 24 28       	mov    0x28(%rsp),%rdx
    8efa:	ff 15 b0 6c 04 00    	callq  *0x46cb0(%rip)        # 4fbb0 <_GLOBAL_OFFSET_TABLE_+0x288>
    8f00:	48 83 c4 68          	add    $0x68,%rsp
    8f04:	c3                   	retq   
    8f05:	66 2e 0f 1f 84 00 00 	nopw   %cs:0x0(%rax,%rax,1)
    8f0c:	00 00 00 
    8f0f:	90                   	nop

0000000000008f10 <_ZN3std10sys_common9backtrace28__rust_begin_short_backtrace17h8a9c7ed204d6e63fE>:
    8f10:	48 83 ec 28          	sub    $0x28,%rsp
    8f14:	48 89 7c 24 08       	mov    %rdi,0x8(%rsp)
    8f19:	e8 72 00 00 00       	callq  8f90 <_ZN4core3ops8function6FnOnce9call_once17h82e3f7a05e056c7bE>
    8f1e:	48 83 c4 28          	add    $0x28,%rsp
    8f22:	c3                   	retq   
    8f23:	66 2e 0f 1f 84 00 00 	nopw   %cs:0x0(%rax,%rax,1)
    8f2a:	00 00 00 
    8f2d:	0f 1f 00             	nopl   (%rax)

0000000000008f30 <_ZN4core3ops8function6FnOnce40call_once$u7b$$u7b$vtable.shim$u7d$$u7d$17h6b4b945a5d6fd7f0E>:
    8f30:	48 83 ec 18          	sub    $0x18,%rsp
    8f34:	48 89 7c 24 10       	mov    %rdi,0x10(%rsp)
    8f39:	48 8b 3f             	mov    (%rdi),%rdi
    8f3c:	e8 0f 00 00 00       	callq  8f50 <_ZN4core3ops8function6FnOnce9call_once17h2cc864bfef705769E>
    8f41:	48 83 c4 18          	add    $0x18,%rsp
    8f45:	c3                   	retq   
    8f46:	66 2e 0f 1f 84 00 00 	nopw   %cs:0x0(%rax,%rax,1)
    8f4d:	00 00 00 

0000000000008f50 <_ZN4core3ops8function6FnOnce9call_once17h2cc864bfef705769E>:
    8f50:	48 83 ec 28          	sub    $0x28,%rsp
    8f54:	48 89 7c 24 08       	mov    %rdi,0x8(%rsp)
    8f59:	48 8d 7c 24 08       	lea    0x8(%rsp),%rdi
    8f5e:	e8 7d fa ff ff       	callq  89e0 <_ZN3std2rt10lang_start28_$u7b$$u7b$closure$u7d$$u7d$17he5524993c82228f7E>
    8f63:	89 44 24 04          	mov    %eax,0x4(%rsp)
    8f67:	eb 1c                	jmp    8f85 <_ZN4core3ops8function6FnOnce9call_once17h2cc864bfef705769E+0x35>
    8f69:	48 8b 7c 24 18       	mov    0x18(%rsp),%rdi
    8f6e:	e8 ed d0 ff ff       	callq  6060 <_Unwind_Resume@plt>
    8f73:	0f 0b                	ud2    
    8f75:	48 89 c1             	mov    %rax,%rcx
    8f78:	89 d0                	mov    %edx,%eax
    8f7a:	48 89 4c 24 18       	mov    %rcx,0x18(%rsp)
    8f7f:	89 44 24 20          	mov    %eax,0x20(%rsp)
    8f83:	eb e4                	jmp    8f69 <_ZN4core3ops8function6FnOnce9call_once17h2cc864bfef705769E+0x19>
    8f85:	8b 44 24 04          	mov    0x4(%rsp),%eax
    8f89:	48 83 c4 28          	add    $0x28,%rsp
    8f8d:	c3                   	retq   
    8f8e:	66 90                	xchg   %ax,%ax

0000000000008f90 <_ZN4core3ops8function6FnOnce9call_once17h82e3f7a05e056c7bE>:
    8f90:	48 83 ec 18          	sub    $0x18,%rsp
    8f94:	48 89 7c 24 10       	mov    %rdi,0x10(%rsp)
    8f99:	ff d7                	callq  *%rdi
    8f9b:	48 83 c4 18          	add    $0x18,%rsp
    8f9f:	c3                   	retq   

0000000000008fa0 <_ZN4core3ptr49drop_in_place$LT$alloc..boxed..Box$LT$i32$GT$$GT$17hefe9a230312839a9E>:
    8fa0:	48 83 ec 28          	sub    $0x28,%rsp
    8fa4:	48 89 7c 24 08       	mov    %rdi,0x8(%rsp)
    8fa9:	48 89 7c 24 10       	mov    %rdi,0x10(%rsp)
    8fae:	48 8b 44 24 08       	mov    0x8(%rsp),%rax
    8fb3:	48 8b 38             	mov    (%rax),%rdi
    8fb6:	e8 15 00 00 00       	callq  8fd0 <_ZN5alloc5alloc8box_free17h47b36c5f129447c3E>
    8fbb:	48 83 c4 28          	add    $0x28,%rsp
    8fbf:	c3                   	retq   

0000000000008fc0 <_ZN4core3ptr85drop_in_place$LT$std..rt..lang_start$LT$$LP$$RP$$GT$..$u7b$$u7b$closure$u7d$$u7d$$GT$17h5f265a9d18321085E>:
    8fc0:	50                   	push   %rax
    8fc1:	48 89 3c 24          	mov    %rdi,(%rsp)
    8fc5:	58                   	pop    %rax
    8fc6:	c3                   	retq   
    8fc7:	66 0f 1f 84 00 00 00 	nopw   0x0(%rax,%rax,1)
    8fce:	00 00 

0000000000008fd0 <_ZN5alloc5alloc8box_free17h47b36c5f129447c3E>:
    8fd0:	48 81 ec e8 00 00 00 	sub    $0xe8,%rsp
    8fd7:	48 89 7c 24 18       	mov    %rdi,0x18(%rsp)
    8fdc:	48 8d 44 24 18       	lea    0x18(%rsp),%rax
    8fe1:	48 89 44 24 50       	mov    %rax,0x50(%rsp)
    8fe6:	48 8d 44 24 18       	lea    0x18(%rsp),%rax
    8feb:	48 89 44 24 58       	mov    %rax,0x58(%rsp)
    8ff0:	48 8b 44 24 18       	mov    0x18(%rsp),%rax
    8ff5:	48 89 44 24 60       	mov    %rax,0x60(%rsp)
    8ffa:	48 c7 44 24 68 04 00 	movq   $0x4,0x68(%rsp)
    9001:	00 00 
    9003:	48 8b 4c 24 68       	mov    0x68(%rsp),%rcx
    9008:	48 89 4c 24 08       	mov    %rcx,0x8(%rsp)
    900d:	48 89 4c 24 70       	mov    %rcx,0x70(%rsp)
    9012:	48 8d 44 24 18       	lea    0x18(%rsp),%rax
    9017:	48 89 44 24 78       	mov    %rax,0x78(%rsp)
    901c:	48 8d 44 24 18       	lea    0x18(%rsp),%rax
    9021:	48 89 84 24 80 00 00 	mov    %rax,0x80(%rsp)
    9028:	00 
    9029:	48 8b 44 24 18       	mov    0x18(%rsp),%rax
    902e:	48 89 84 24 88 00 00 	mov    %rax,0x88(%rsp)
    9035:	00 
    9036:	48 c7 84 24 90 00 00 	movq   $0x4,0x90(%rsp)
    903d:	00 04 00 00 00 
    9042:	48 8b 84 24 90 00 00 	mov    0x90(%rsp),%rax
    9049:	00 
    904a:	48 89 84 24 98 00 00 	mov    %rax,0x98(%rsp)
    9051:	00 
    9052:	48 89 8c 24 a0 00 00 	mov    %rcx,0xa0(%rsp)
    9059:	00 
    905a:	48 89 84 24 a8 00 00 	mov    %rax,0xa8(%rsp)
    9061:	00 
    9062:	48 89 84 24 b0 00 00 	mov    %rax,0xb0(%rsp)
    9069:	00 
    906a:	48 8b 84 24 b0 00 00 	mov    0xb0(%rsp),%rax
    9071:	00 
    9072:	48 89 44 24 10       	mov    %rax,0x10(%rsp)
    9077:	48 8b 44 24 10       	mov    0x10(%rsp),%rax
    907c:	48 8b 4c 24 08       	mov    0x8(%rsp),%rcx
    9081:	48 89 4c 24 28       	mov    %rcx,0x28(%rsp)
    9086:	48 89 44 24 30       	mov    %rax,0x30(%rsp)
    908b:	48 8b 44 24 18       	mov    0x18(%rsp),%rax
    9090:	48 89 84 24 b8 00 00 	mov    %rax,0xb8(%rsp)
    9097:	00 
    9098:	48 89 84 24 c0 00 00 	mov    %rax,0xc0(%rsp)
    909f:	00 
    90a0:	48 89 44 24 48       	mov    %rax,0x48(%rsp)
    90a5:	48 8b 44 24 48       	mov    0x48(%rsp),%rax
    90aa:	48 89 44 24 40       	mov    %rax,0x40(%rsp)
    90af:	48 8b 44 24 40       	mov    0x40(%rsp),%rax
    90b4:	48 89 84 24 c8 00 00 	mov    %rax,0xc8(%rsp)
    90bb:	00 
    90bc:	48 89 84 24 d0 00 00 	mov    %rax,0xd0(%rsp)
    90c3:	00 
    90c4:	48 89 44 24 38       	mov    %rax,0x38(%rsp)
    90c9:	48 8b 74 24 38       	mov    0x38(%rsp),%rsi
    90ce:	48 8b 54 24 28       	mov    0x28(%rsp),%rdx
    90d3:	48 8b 4c 24 30       	mov    0x30(%rsp),%rcx
    90d8:	48 8d 7c 24 20       	lea    0x20(%rsp),%rdi
    90dd:	e8 9e fd ff ff       	callq  8e80 <_ZN63_$LT$alloc..alloc..Global$u20$as$u20$core..alloc..Allocator$GT$10deallocate17h4a8856b2e1ee8f59E>
    90e2:	eb 25                	jmp    9109 <_ZN5alloc5alloc8box_free17h47b36c5f129447c3E+0x139>
    90e4:	48 8b bc 24 d8 00 00 	mov    0xd8(%rsp),%rdi
    90eb:	00 
    90ec:	e8 6f cf ff ff       	callq  6060 <_Unwind_Resume@plt>
    90f1:	0f 0b                	ud2    
    90f3:	48 89 c1             	mov    %rax,%rcx
    90f6:	89 d0                	mov    %edx,%eax
    90f8:	48 89 8c 24 d8 00 00 	mov    %rcx,0xd8(%rsp)
    90ff:	00 
    9100:	89 84 24 e0 00 00 00 	mov    %eax,0xe0(%rsp)
    9107:	eb db                	jmp    90e4 <_ZN5alloc5alloc8box_free17h47b36c5f129447c3E+0x114>
    9109:	48 81 c4 e8 00 00 00 	add    $0xe8,%rsp
    9110:	c3                   	retq   
    9111:	66 2e 0f 1f 84 00 00 	nopw   %cs:0x0(%rax,%rax,1)
    9118:	00 00 00 
    911b:	0f 1f 44 00 00       	nopl   0x0(%rax,%rax,1)

0000000000009120 <_ZN4core3fmt9Arguments6new_v117hef5e8dbb4145e43eE>:
    9120:	48 81 ec a8 00 00 00 	sub    $0xa8,%rsp
    9127:	4c 89 44 24 10       	mov    %r8,0x10(%rsp)
    912c:	48 89 4c 24 18       	mov    %rcx,0x18(%rsp)
    9131:	48 89 54 24 20       	mov    %rdx,0x20(%rsp)
    9136:	48 89 74 24 28       	mov    %rsi,0x28(%rsp)
    913b:	48 89 7c 24 30       	mov    %rdi,0x30(%rsp)
    9140:	48 89 7c 24 38       	mov    %rdi,0x38(%rsp)
    9145:	48 89 b4 24 88 00 00 	mov    %rsi,0x88(%rsp)
    914c:	00 
    914d:	48 89 94 24 90 00 00 	mov    %rdx,0x90(%rsp)
    9154:	00 
    9155:	48 89 8c 24 98 00 00 	mov    %rcx,0x98(%rsp)
    915c:	00 
    915d:	4c 89 84 24 a0 00 00 	mov    %r8,0xa0(%rsp)
    9164:	00 
    9165:	4c 39 c2             	cmp    %r8,%rdx
    9168:	72 1c                	jb     9186 <_ZN4core3fmt9Arguments6new_v117hef5e8dbb4145e43eE+0x66>
    916a:	48 8b 44 24 20       	mov    0x20(%rsp),%rax
    916f:	48 8b 4c 24 10       	mov    0x10(%rsp),%rcx
    9174:	48 83 c1 01          	add    $0x1,%rcx
    9178:	48 39 c8             	cmp    %rcx,%rax
    917b:	0f 97 c0             	seta   %al
    917e:	24 01                	and    $0x1,%al
    9180:	88 44 24 47          	mov    %al,0x47(%rsp)
    9184:	eb 05                	jmp    918b <_ZN4core3fmt9Arguments6new_v117hef5e8dbb4145e43eE+0x6b>
    9186:	c6 44 24 47 01       	movb   $0x1,0x47(%rsp)
    918b:	f6 44 24 47 01       	testb  $0x1,0x47(%rsp)
    9190:	75 53                	jne    91e5 <_ZN4core3fmt9Arguments6new_v117hef5e8dbb4145e43eE+0xc5>
    9192:	48 8b 44 24 38       	mov    0x38(%rsp),%rax
    9197:	48 8b 4c 24 30       	mov    0x30(%rsp),%rcx
    919c:	48 8b 54 24 10       	mov    0x10(%rsp),%rdx
    91a1:	48 8b 74 24 18       	mov    0x18(%rsp),%rsi
    91a6:	48 8b 7c 24 20       	mov    0x20(%rsp),%rdi
    91ab:	4c 8b 44 24 28       	mov    0x28(%rsp),%r8
    91b0:	48 c7 44 24 78 00 00 	movq   $0x0,0x78(%rsp)
    91b7:	00 00 
    91b9:	4c 89 41 10          	mov    %r8,0x10(%rcx)
    91bd:	48 89 79 18          	mov    %rdi,0x18(%rcx)
    91c1:	4c 8b 44 24 78       	mov    0x78(%rsp),%r8
    91c6:	48 8b bc 24 80 00 00 	mov    0x80(%rsp),%rdi
    91cd:	00 
    91ce:	4c 89 01             	mov    %r8,(%rcx)
    91d1:	48 89 79 08          	mov    %rdi,0x8(%rcx)
    91d5:	48 89 71 20          	mov    %rsi,0x20(%rcx)
    91d9:	48 89 51 28          	mov    %rdx,0x28(%rcx)
    91dd:	48 81 c4 a8 00 00 00 	add    $0xa8,%rsp
    91e4:	c3                   	retq   
    91e5:	48 8d 35 d4 40 04 00 	lea    0x440d4(%rip),%rsi        # 4d2c0 <__init_array_end+0x38>
    91ec:	48 8d 0d 1d 5e 03 00 	lea    0x35e1d(%rip),%rcx        # 3f010 <_fini+0x28c>
    91f3:	31 c0                	xor    %eax,%eax
    91f5:	41 89 c0             	mov    %eax,%r8d
    91f8:	48 8d 7c 24 48       	lea    0x48(%rsp),%rdi
    91fd:	48 89 7c 24 08       	mov    %rdi,0x8(%rsp)
    9202:	ba 01 00 00 00       	mov    $0x1,%edx
    9207:	e8 14 ff ff ff       	callq  9120 <_ZN4core3fmt9Arguments6new_v117hef5e8dbb4145e43eE>
    920c:	48 8b 7c 24 08       	mov    0x8(%rsp),%rdi
    9211:	48 8d 35 b8 40 04 00 	lea    0x440b8(%rip),%rsi        # 4d2d0 <__init_array_end+0x48>
    9218:	48 8d 05 91 f0 ff ff 	lea    -0xf6f(%rip),%rax        # 82b0 <_ZN4core9panicking9panic_fmt17h28cbdee921d72b75E>
    921f:	ff d0                	callq  *%rax
    9221:	0f 0b                	ud2    
    9223:	66 2e 0f 1f 84 00 00 	nopw   %cs:0x0(%rax,%rax,1)
    922a:	00 00 00 
    922d:	0f 1f 00             	nopl   (%rax)

0000000000009230 <_ZN4core3fmt10ArgumentV19new_debug17h14a38953b76e43f4E>:
    9230:	48 83 ec 30          	sub    $0x30,%rsp
    9234:	48 89 7c 24 10       	mov    %rdi,0x10(%rsp)
    9239:	48 8d 05 a0 f6 ff ff 	lea    -0x960(%rip),%rax        # 88e0 <_ZN4core3fmt3num50_$LT$impl$u20$core..fmt..Debug$u20$for$u20$i32$GT$3fmt17h6426ebb45c7cc5deE>
    9240:	48 89 44 24 18       	mov    %rax,0x18(%rsp)
    9245:	48 89 44 24 20       	mov    %rax,0x20(%rsp)
    924a:	48 8b 44 24 20       	mov    0x20(%rsp),%rax
    924f:	48 89 7c 24 28       	mov    %rdi,0x28(%rsp)
    9254:	48 8b 4c 24 28       	mov    0x28(%rsp),%rcx
    9259:	48 89 0c 24          	mov    %rcx,(%rsp)
    925d:	48 89 44 24 08       	mov    %rax,0x8(%rsp)
    9262:	48 8b 04 24          	mov    (%rsp),%rax
    9266:	48 8b 54 24 08       	mov    0x8(%rsp),%rdx
    926b:	48 83 c4 30          	add    $0x30,%rsp
    926f:	c3                   	retq   

0000000000009270 <_ZN5alloc5boxed16Box$LT$T$C$A$GT$11into_unique17h85d3858588cc7771E>:
    9270:	48 81 ec 98 00 00 00 	sub    $0x98,%rsp
    9277:	48 89 3c 24          	mov    %rdi,(%rsp)
    927b:	48 89 e0             	mov    %rsp,%rax
    927e:	48 89 44 24 48       	mov    %rax,0x48(%rsp)
    9283:	48 8d 44 24 18       	lea    0x18(%rsp),%rax
    9288:	48 89 44 24 50       	mov    %rax,0x50(%rsp)
    928d:	48 8b 04 24          	mov    (%rsp),%rax
    9291:	48 89 44 24 68       	mov    %rax,0x68(%rsp)
    9296:	48 89 44 24 20       	mov    %rax,0x20(%rsp)
    929b:	48 8d 44 24 20       	lea    0x20(%rsp),%rax
    92a0:	48 89 44 24 70       	mov    %rax,0x70(%rsp)
    92a5:	48 8b 44 24 20       	mov    0x20(%rsp),%rax
    92aa:	48 89 44 24 78       	mov    %rax,0x78(%rsp)
    92af:	48 89 84 24 80 00 00 	mov    %rax,0x80(%rsp)
    92b6:	00 
    92b7:	48 89 84 24 88 00 00 	mov    %rax,0x88(%rsp)
    92be:	00 
    92bf:	48 89 84 24 90 00 00 	mov    %rax,0x90(%rsp)
    92c6:	00 
    92c7:	48 89 44 24 28       	mov    %rax,0x28(%rsp)
    92cc:	48 8b 44 24 28       	mov    0x28(%rsp),%rax
    92d1:	48 89 44 24 10       	mov    %rax,0x10(%rsp)
    92d6:	48 8b 44 24 10       	mov    0x10(%rsp),%rax
    92db:	48 89 44 24 08       	mov    %rax,0x8(%rsp)
    92e0:	48 8b 44 24 08       	mov    0x8(%rsp),%rax
    92e5:	48 81 c4 98 00 00 00 	add    $0x98,%rsp
    92ec:	c3                   	retq   
    92ed:	0f 1f 00             	nopl   (%rax)

00000000000092f0 <_ZN5alloc5boxed16Box$LT$T$C$A$GT$8into_raw17h2d00c1c26e4707abE>:
    92f0:	48 83 ec 28          	sub    $0x28,%rsp
    92f4:	48 89 7c 24 08       	mov    %rdi,0x8(%rsp)
    92f9:	e8 72 ff ff ff       	callq  9270 <_ZN5alloc5boxed16Box$LT$T$C$A$GT$11into_unique17h85d3858588cc7771E>
    92fe:	48 89 44 24 18       	mov    %rax,0x18(%rsp)
    9303:	48 89 44 24 20       	mov    %rax,0x20(%rsp)
    9308:	48 89 04 24          	mov    %rax,(%rsp)
    930c:	48 8b 04 24          	mov    (%rsp),%rax
    9310:	48 83 c4 28          	add    $0x28,%rsp
    9314:	c3                   	retq   
    9315:	66 2e 0f 1f 84 00 00 	nopw   %cs:0x0(%rax,%rax,1)
    931c:	00 00 00 
    931f:	90                   	nop

0000000000009320 <_ZN9ada_adder4main17h5f155b0979bb1ef0E>:
    9320:	48 81 ec f8 00 00 00 	sub    $0xf8,%rsp
    9327:	c6 84 24 a7 00 00 00 	movb   $0x0,0xa7(%rsp)
    932e:	00 
    932f:	c6 84 24 a6 00 00 00 	movb   $0x0,0xa6(%rsp)
    9336:	00 
    9337:	c6 84 24 a7 00 00 00 	movb   $0x1,0xa7(%rsp)
    933e:	01 
    933f:	c7 84 24 e4 00 00 00 	movl   $0x1,0xe4(%rsp)
    9346:	01 00 00 00 
    934a:	be 04 00 00 00       	mov    $0x4,%esi
    934f:	48 89 f7             	mov    %rsi,%rdi
    9352:	e8 b9 f6 ff ff       	callq  8a10 <_ZN5alloc5alloc15exchange_malloc17h7854235c4a14f49fE>
    9357:	48 89 44 24 48       	mov    %rax,0x48(%rsp)
    935c:	eb 26                	jmp    9384 <_ZN9ada_adder4main17h5f155b0979bb1ef0E+0x64>
    935e:	48 89 c1             	mov    %rax,%rcx
    9361:	89 d0                	mov    %edx,%eax
    9363:	48 89 8c 24 e8 00 00 	mov    %rcx,0xe8(%rsp)
    936a:	00 
    936b:	89 84 24 f0 00 00 00 	mov    %eax,0xf0(%rsp)
    9372:	48 8b 84 24 e8 00 00 	mov    0xe8(%rsp),%rax
    9379:	00 
    937a:	48 89 44 24 40       	mov    %rax,0x40(%rsp)
    937f:	e9 ee 01 00 00       	jmpq   9572 <_ZN9ada_adder4main17h5f155b0979bb1ef0E+0x252>
    9384:	48 8b 44 24 48       	mov    0x48(%rsp),%rax
    9389:	c7 00 01 00 00 00    	movl   $0x1,(%rax)
    938f:	48 89 44 24 50       	mov    %rax,0x50(%rsp)
    9394:	c7 84 24 cc 00 00 00 	movl   $0x6,0xcc(%rsp)
    939b:	06 00 00 00 
    939f:	be 04 00 00 00       	mov    $0x4,%esi
    93a4:	48 89 f7             	mov    %rsi,%rdi
    93a7:	e8 64 f6 ff ff       	callq  8a10 <_ZN5alloc5alloc15exchange_malloc17h7854235c4a14f49fE>
    93ac:	48 89 44 24 38       	mov    %rax,0x38(%rsp)
    93b1:	eb 2e                	jmp    93e1 <_ZN9ada_adder4main17h5f155b0979bb1ef0E+0xc1>
    93b3:	48 89 c1             	mov    %rax,%rcx
    93b6:	89 d0                	mov    %edx,%eax
    93b8:	48 89 8c 24 d0 00 00 	mov    %rcx,0xd0(%rsp)
    93bf:	00 
    93c0:	89 84 24 d8 00 00 00 	mov    %eax,0xd8(%rsp)
    93c7:	48 8b 84 24 d0 00 00 	mov    0xd0(%rsp),%rax
    93ce:	00 
    93cf:	48 89 44 24 28       	mov    %rax,0x28(%rsp)
    93d4:	8b 84 24 d8 00 00 00 	mov    0xd8(%rsp),%eax
    93db:	89 44 24 34          	mov    %eax,0x34(%rsp)
    93df:	eb 20                	jmp    9401 <_ZN9ada_adder4main17h5f155b0979bb1ef0E+0xe1>
    93e1:	48 8b 44 24 38       	mov    0x38(%rsp),%rax
    93e6:	c7 00 06 00 00 00    	movl   $0x6,(%rax)
    93ec:	eb 2d                	jmp    941b <_ZN9ada_adder4main17h5f155b0979bb1ef0E+0xfb>
    93ee:	f6 84 24 a7 00 00 00 	testb  $0x1,0xa7(%rsp)
    93f5:	01 
    93f6:	0f 85 6a 01 00 00    	jne    9566 <_ZN9ada_adder4main17h5f155b0979bb1ef0E+0x246>
    93fc:	e9 56 01 00 00       	jmpq   9557 <_ZN9ada_adder4main17h5f155b0979bb1ef0E+0x237>
    9401:	8b 44 24 34          	mov    0x34(%rsp),%eax
    9405:	48 8b 4c 24 28       	mov    0x28(%rsp),%rcx
    940a:	48 89 8c 24 a8 00 00 	mov    %rcx,0xa8(%rsp)
    9411:	00 
    9412:	89 84 24 b0 00 00 00 	mov    %eax,0xb0(%rsp)
    9419:	eb d3                	jmp    93ee <_ZN9ada_adder4main17h5f155b0979bb1ef0E+0xce>
    941b:	48 8b 44 24 38       	mov    0x38(%rsp),%rax
    9420:	48 89 44 24 58       	mov    %rax,0x58(%rsp)
    9425:	c6 84 24 a6 00 00 00 	movb   $0x1,0xa6(%rsp)
    942c:	01 
    942d:	c6 84 24 a7 00 00 00 	movb   $0x0,0xa7(%rsp)
    9434:	00 
    9435:	48 8b 7c 24 50       	mov    0x50(%rsp),%rdi
    943a:	e8 b1 fe ff ff       	callq  92f0 <_ZN5alloc5boxed16Box$LT$T$C$A$GT$8into_raw17h2d00c1c26e4707abE>
    943f:	48 89 44 24 20       	mov    %rax,0x20(%rsp)
    9444:	eb 26                	jmp    946c <_ZN9ada_adder4main17h5f155b0979bb1ef0E+0x14c>
    9446:	f6 84 24 a6 00 00 00 	testb  $0x1,0xa6(%rsp)
    944d:	01 
    944e:	0f 85 e9 00 00 00    	jne    953d <_ZN9ada_adder4main17h5f155b0979bb1ef0E+0x21d>
    9454:	eb 98                	jmp    93ee <_ZN9ada_adder4main17h5f155b0979bb1ef0E+0xce>
    9456:	48 89 c1             	mov    %rax,%rcx
    9459:	89 d0                	mov    %edx,%eax
    945b:	48 89 8c 24 a8 00 00 	mov    %rcx,0xa8(%rsp)
    9462:	00 
    9463:	89 84 24 b0 00 00 00 	mov    %eax,0xb0(%rsp)
    946a:	eb da                	jmp    9446 <_ZN9ada_adder4main17h5f155b0979bb1ef0E+0x126>
    946c:	48 8b 44 24 20       	mov    0x20(%rsp),%rax
    9471:	48 89 84 24 b8 00 00 	mov    %rax,0xb8(%rsp)
    9478:	00 
    9479:	c6 84 24 a6 00 00 00 	movb   $0x0,0xa6(%rsp)
    9480:	00 
    9481:	48 8b 7c 24 58       	mov    0x58(%rsp),%rdi
    9486:	e8 65 fe ff ff       	callq  92f0 <_ZN5alloc5boxed16Box$LT$T$C$A$GT$8into_raw17h2d00c1c26e4707abE>
    948b:	48 89 44 24 18       	mov    %rax,0x18(%rsp)
    9490:	eb 00                	jmp    9492 <_ZN9ada_adder4main17h5f155b0979bb1ef0E+0x172>
    9492:	48 8b 74 24 18       	mov    0x18(%rsp),%rsi
    9497:	48 8b 7c 24 20       	mov    0x20(%rsp),%rdi
    949c:	48 89 b4 24 c0 00 00 	mov    %rsi,0xc0(%rsp)
    94a3:	00 
    94a4:	48 8b 05 2d 66 04 00 	mov    0x4662d(%rip),%rax        # 4fad8 <add@SYMS>
    94ab:	ff d0                	callq  *%rax
    94ad:	89 44 24 14          	mov    %eax,0x14(%rsp)
    94b1:	eb 00                	jmp    94b3 <_ZN9ada_adder4main17h5f155b0979bb1ef0E+0x193>
    94b3:	8b 44 24 14          	mov    0x14(%rsp),%eax
    94b7:	89 84 24 a0 00 00 00 	mov    %eax,0xa0(%rsp)
    94be:	48 8d bc 24 a0 00 00 	lea    0xa0(%rsp),%rdi
    94c5:	00 
    94c6:	e8 65 fd ff ff       	callq  9230 <_ZN4core3fmt10ArgumentV19new_debug17h14a38953b76e43f4E>
    94cb:	48 89 14 24          	mov    %rdx,(%rsp)
    94cf:	48 89 44 24 08       	mov    %rax,0x8(%rsp)
    94d4:	eb 00                	jmp    94d6 <_ZN9ada_adder4main17h5f155b0979bb1ef0E+0x1b6>
    94d6:	48 8b 04 24          	mov    (%rsp),%rax
    94da:	48 8b 4c 24 08       	mov    0x8(%rsp),%rcx
    94df:	48 89 8c 24 90 00 00 	mov    %rcx,0x90(%rsp)
    94e6:	00 
    94e7:	48 89 84 24 98 00 00 	mov    %rax,0x98(%rsp)
    94ee:	00 
    94ef:	48 8d 35 f2 3d 04 00 	lea    0x43df2(%rip),%rsi        # 4d2e8 <__init_array_end+0x60>
    94f6:	48 8d 7c 24 60       	lea    0x60(%rsp),%rdi
    94fb:	ba 02 00 00 00       	mov    $0x2,%edx
    9500:	48 8d 8c 24 90 00 00 	lea    0x90(%rsp),%rcx
    9507:	00 
    9508:	41 b8 01 00 00 00    	mov    $0x1,%r8d
    950e:	e8 0d fc ff ff       	callq  9120 <_ZN4core3fmt9Arguments6new_v117hef5e8dbb4145e43eE>
    9513:	eb 00                	jmp    9515 <_ZN9ada_adder4main17h5f155b0979bb1ef0E+0x1f5>
    9515:	48 8d 05 c4 52 01 00 	lea    0x152c4(%rip),%rax        # 1e7e0 <_ZN3std2io5stdio6_print17haadf2f47e5129693E>
    951c:	48 8d 7c 24 60       	lea    0x60(%rsp),%rdi
    9521:	ff d0                	callq  *%rax
    9523:	eb 00                	jmp    9525 <_ZN9ada_adder4main17h5f155b0979bb1ef0E+0x205>
    9525:	c6 84 24 a6 00 00 00 	movb   $0x0,0xa6(%rsp)
    952c:	00 
    952d:	c6 84 24 a7 00 00 00 	movb   $0x0,0xa7(%rsp)
    9534:	00 
    9535:	48 81 c4 f8 00 00 00 	add    $0xf8,%rsp
    953c:	c3                   	retq   
    953d:	48 8d 7c 24 58       	lea    0x58(%rsp),%rdi
    9542:	e8 59 fa ff ff       	callq  8fa0 <_ZN4core3ptr49drop_in_place$LT$alloc..boxed..Box$LT$i32$GT$$GT$17hefe9a230312839a9E>
    9547:	e9 a2 fe ff ff       	jmpq   93ee <_ZN9ada_adder4main17h5f155b0979bb1ef0E+0xce>
    954c:	48 8d 05 0d ef ff ff 	lea    -0x10f3(%rip),%rax        # 8460 <_ZN4core9panicking19panic_cannot_unwind17h93259dbfbf2cf12eE>
    9553:	ff d0                	callq  *%rax
    9555:	0f 0b                	ud2    
    9557:	48 8b 84 24 a8 00 00 	mov    0xa8(%rsp),%rax
    955e:	00 
    955f:	48 89 44 24 40       	mov    %rax,0x40(%rsp)
    9564:	eb 0c                	jmp    9572 <_ZN9ada_adder4main17h5f155b0979bb1ef0E+0x252>
    9566:	48 8d 7c 24 50       	lea    0x50(%rsp),%rdi
    956b:	e8 30 fa ff ff       	callq  8fa0 <_ZN4core3ptr49drop_in_place$LT$alloc..boxed..Box$LT$i32$GT$$GT$17hefe9a230312839a9E>
    9570:	eb e5                	jmp    9557 <_ZN9ada_adder4main17h5f155b0979bb1ef0E+0x237>
    9572:	48 8b 7c 24 40       	mov    0x40(%rsp),%rdi
    9577:	e8 e4 ca ff ff       	callq  6060 <_Unwind_Resume@plt>
    957c:	0f 0b                	ud2    
    957e:	66 90                	xchg   %ax,%ax

0000000000009580 <main>:
    9580:	50                   	push   %rax
    9581:	48 89 f2             	mov    %rsi,%rdx
    9584:	48 8d 05 ed a7 03 00 	lea    0x3a7ed(%rip),%rax        # 43d78 <__rustc_debug_gdb_scripts_section__>
    958b:	8a 00                	mov    (%rax),%al
    958d:	48 63 f7             	movslq %edi,%rsi
    9590:	48 8d 3d 89 fd ff ff 	lea    -0x277(%rip),%rdi        # 9320 <_ZN9ada_adder4main17h5f155b0979bb1ef0E>
    9597:	31 c9                	xor    %ecx,%ecx
    9599:	e8 f2 f3 ff ff       	callq  8990 <_ZN3std2rt10lang_start17h119cb8333f0ab4a1E>
    959e:	59                   	pop    %rcx
    959f:	c3                   	retq   

00000000000095a0 <__rust_alloc>:
    95a0:	e9 fb 85 01 00       	jmpq   21ba0 <__rdl_alloc>
    95a5:	66 2e 0f 1f 84 00 00 	nopw   %cs:0x0(%rax,%rax,1)
    95ac:	00 00 00 
    95af:	90                   	nop

00000000000095b0 <__rust_dealloc>:
    95b0:	e9 3b 86 01 00       	jmpq   21bf0 <__rdl_dealloc>
    95b5:	66 2e 0f 1f 84 00 00 	nopw   %cs:0x0(%rax,%rax,1)
    95bc:	00 00 00 
    95bf:	90                   	nop

00000000000095c0 <__rust_realloc>:
    95c0:	e9 3b 86 01 00       	jmpq   21c00 <__rdl_realloc>
    95c5:	66 2e 0f 1f 84 00 00 	nopw   %cs:0x0(%rax,%rax,1)
    95cc:	00 00 00 
    95cf:	90                   	nop

00000000000095d0 <__rust_alloc_zeroed>:
    95d0:	e9 cb 86 01 00       	jmpq   21ca0 <__rdl_alloc_zeroed>
    95d5:	66 2e 0f 1f 84 00 00 	nopw   %cs:0x0(%rax,%rax,1)
    95dc:	00 00 00 
    95df:	90                   	nop

00000000000095e0 <__rust_alloc_error_handler>:
    95e0:	e9 3b b5 01 00       	jmpq   24b20 <__rg_oom>
    95e5:	66 2e 0f 1f 84 00 00 	nopw   %cs:0x0(%rax,%rax,1)
    95ec:	00 00 00 
    95ef:	90                   	nop

00000000000095f0 <_ZN36_$LT$T$u20$as$u20$core..any..Any$GT$7type_id17h96f561fd9fc30b65E>:
    95f0:	48 b8 f0 5c 4f d8 8f 	movabs $0xfd61028fd84f5cf0,%rax
    95f7:	02 61 fd 
    95fa:	c3                   	retq   
    95fb:	0f 1f 44 00 00       	nopl   0x0(%rax,%rax,1)

0000000000009600 <_ZN36_$LT$T$u20$as$u20$core..any..Any$GT$7type_id17h9dece589bb179a13E>:
    9600:	48 b8 c8 1a f8 a9 34 	movabs $0x89a76c34a9f81ac8,%rax
    9607:	6c a7 89 
    960a:	c3                   	retq   
    960b:	0f 1f 44 00 00       	nopl   0x0(%rax,%rax,1)

0000000000009610 <_ZN36_$LT$T$u20$as$u20$core..any..Any$GT$7type_id17hf77af81ad7e81932E>:
    9610:	48 b8 1d 81 0a 57 5f 	movabs $0x322aa05f570a811d,%rax
    9617:	a0 2a 32 
    961a:	c3                   	retq   
    961b:	0f 1f 44 00 00       	nopl   0x0(%rax,%rax,1)

0000000000009620 <_ZN42_$LT$$RF$T$u20$as$u20$core..fmt..Debug$GT$3fmt17h1cecf4e653b7047cE>:
    9620:	41 56                	push   %r14
    9622:	53                   	push   %rbx
    9623:	50                   	push   %rax
    9624:	48 89 f3             	mov    %rsi,%rbx
    9627:	4c 8b 37             	mov    (%rdi),%r14
    962a:	48 89 f7             	mov    %rsi,%rdi
    962d:	ff 15 a5 67 04 00    	callq  *0x467a5(%rip)        # 4fdd8 <_GLOBAL_OFFSET_TABLE_+0x4b0>
    9633:	84 c0                	test   %al,%al
    9635:	74 13                	je     964a <_ZN42_$LT$$RF$T$u20$as$u20$core..fmt..Debug$GT$3fmt17h1cecf4e653b7047cE+0x2a>
    9637:	4c 89 f7             	mov    %r14,%rdi
    963a:	48 89 de             	mov    %rbx,%rsi
    963d:	48 83 c4 08          	add    $0x8,%rsp
    9641:	5b                   	pop    %rbx
    9642:	41 5e                	pop    %r14
    9644:	ff 25 56 69 04 00    	jmpq   *0x46956(%rip)        # 4ffa0 <_GLOBAL_OFFSET_TABLE_+0x678>
    964a:	48 89 df             	mov    %rbx,%rdi
    964d:	ff 15 4d 67 04 00    	callq  *0x4674d(%rip)        # 4fda0 <_GLOBAL_OFFSET_TABLE_+0x478>
    9653:	4c 89 f7             	mov    %r14,%rdi
    9656:	48 89 de             	mov    %rbx,%rsi
    9659:	48 83 c4 08          	add    $0x8,%rsp
    965d:	84 c0                	test   %al,%al
    965f:	74 09                	je     966a <_ZN42_$LT$$RF$T$u20$as$u20$core..fmt..Debug$GT$3fmt17h1cecf4e653b7047cE+0x4a>
    9661:	5b                   	pop    %rbx
    9662:	41 5e                	pop    %r14
    9664:	ff 25 5e 66 04 00    	jmpq   *0x4665e(%rip)        # 4fcc8 <_GLOBAL_OFFSET_TABLE_+0x3a0>
    966a:	5b                   	pop    %rbx
    966b:	41 5e                	pop    %r14
    966d:	ff 25 dd 67 04 00    	jmpq   *0x467dd(%rip)        # 4fe50 <_GLOBAL_OFFSET_TABLE_+0x528>
    9673:	66 2e 0f 1f 84 00 00 	nopw   %cs:0x0(%rax,%rax,1)
    967a:	00 00 00 
    967d:	0f 1f 00             	nopl   (%rax)

0000000000009680 <_ZN42_$LT$$RF$T$u20$as$u20$core..fmt..Debug$GT$3fmt17had403433105fead7E>:
    9680:	48 89 f7             	mov    %rsi,%rdi
    9683:	48 8d 35 79 6b 03 00 	lea    0x36b79(%rip),%rsi        # 40203 <_fini+0x147f>
    968a:	ba 02 00 00 00       	mov    $0x2,%edx
    968f:	ff 25 93 66 04 00    	jmpq   *0x46693(%rip)        # 4fd28 <_GLOBAL_OFFSET_TABLE_+0x400>
    9695:	66 2e 0f 1f 84 00 00 	nopw   %cs:0x0(%rax,%rax,1)
    969c:	00 00 00 
    969f:	90                   	nop

00000000000096a0 <_ZN42_$LT$$RF$T$u20$as$u20$core..fmt..Debug$GT$3fmt17hb678dae75cce2c23E>:
    96a0:	48 8b 07             	mov    (%rdi),%rax
    96a3:	48 8b 38             	mov    (%rax),%rdi
    96a6:	ff 25 bc 62 04 00    	jmpq   *0x462bc(%rip)        # 4f968 <_GLOBAL_OFFSET_TABLE_+0x40>
    96ac:	0f 1f 40 00          	nopl   0x0(%rax)

00000000000096b0 <_ZN44_$LT$$RF$T$u20$as$u20$core..fmt..Display$GT$3fmt17h2906475d342a8702E>:
    96b0:	48 8b 3f             	mov    (%rdi),%rdi
    96b3:	ff 25 a7 67 04 00    	jmpq   *0x467a7(%rip)        # 4fe60 <_GLOBAL_OFFSET_TABLE_+0x538>
    96b9:	0f 1f 80 00 00 00 00 	nopl   0x0(%rax)

00000000000096c0 <_ZN44_$LT$$RF$T$u20$as$u20$core..fmt..Display$GT$3fmt17he80447965df114c1E>:
    96c0:	48 89 f2             	mov    %rsi,%rdx
    96c3:	48 8b 07             	mov    (%rdi),%rax
    96c6:	48 8b 77 08          	mov    0x8(%rdi),%rsi
    96ca:	48 89 c7             	mov    %rax,%rdi
    96cd:	ff 25 6d 66 04 00    	jmpq   *0x4666d(%rip)        # 4fd40 <_GLOBAL_OFFSET_TABLE_+0x418>
    96d3:	66 2e 0f 1f 84 00 00 	nopw   %cs:0x0(%rax,%rax,1)
    96da:	00 00 00 
    96dd:	0f 1f 00             	nopl   (%rax)

00000000000096e0 <_ZN4core3fmt5Write10write_char17h491775667d75ba67E>:
    96e0:	50                   	push   %rax
    96e1:	c7 44 24 04 00 00 00 	movl   $0x0,0x4(%rsp)
    96e8:	00 
    96e9:	81 fe 80 00 00 00    	cmp    $0x80,%esi
    96ef:	73 16                	jae    9707 <_ZN4core3fmt5Write10write_char17h491775667d75ba67E+0x27>
    96f1:	40 88 74 24 04       	mov    %sil,0x4(%rsp)
    96f6:	ba 01 00 00 00       	mov    $0x1,%edx
    96fb:	48 8d 74 24 04       	lea    0x4(%rsp),%rsi
    9700:	e8 5b 5b 01 00       	callq  1f260 <_ZN80_$LT$std..io..Write..write_fmt..Adapter$LT$T$GT$$u20$as$u20$core..fmt..Write$GT$9write_str17h8d295c0a2ffcfd05E>
    9705:	59                   	pop    %rcx
    9706:	c3                   	retq   
    9707:	89 f0                	mov    %esi,%eax
    9709:	81 fe 00 08 00 00    	cmp    $0x800,%esi
    970f:	73 27                	jae    9738 <_ZN4core3fmt5Write10write_char17h491775667d75ba67E+0x58>
    9711:	c1 e8 06             	shr    $0x6,%eax
    9714:	0c c0                	or     $0xc0,%al
    9716:	88 44 24 04          	mov    %al,0x4(%rsp)
    971a:	40 80 e6 3f          	and    $0x3f,%sil
    971e:	40 80 ce 80          	or     $0x80,%sil
    9722:	40 88 74 24 05       	mov    %sil,0x5(%rsp)
    9727:	ba 02 00 00 00       	mov    $0x2,%edx
    972c:	48 8d 74 24 04       	lea    0x4(%rsp),%rsi
    9731:	e8 2a 5b 01 00       	callq  1f260 <_ZN80_$LT$std..io..Write..write_fmt..Adapter$LT$T$GT$$u20$as$u20$core..fmt..Write$GT$9write_str17h8d295c0a2ffcfd05E>
    9736:	59                   	pop    %rcx
    9737:	c3                   	retq   
    9738:	81 fe 00 00 01 00    	cmp    $0x10000,%esi
    973e:	73 34                	jae    9774 <_ZN4core3fmt5Write10write_char17h491775667d75ba67E+0x94>
    9740:	c1 e8 0c             	shr    $0xc,%eax
    9743:	0c e0                	or     $0xe0,%al
    9745:	88 44 24 04          	mov    %al,0x4(%rsp)
    9749:	89 f0                	mov    %esi,%eax
    974b:	c1 e8 06             	shr    $0x6,%eax
    974e:	24 3f                	and    $0x3f,%al
    9750:	0c 80                	or     $0x80,%al
    9752:	88 44 24 05          	mov    %al,0x5(%rsp)
    9756:	40 80 e6 3f          	and    $0x3f,%sil
    975a:	40 80 ce 80          	or     $0x80,%sil
    975e:	40 88 74 24 06       	mov    %sil,0x6(%rsp)
    9763:	ba 03 00 00 00       	mov    $0x3,%edx
    9768:	48 8d 74 24 04       	lea    0x4(%rsp),%rsi
    976d:	e8 ee 5a 01 00       	callq  1f260 <_ZN80_$LT$std..io..Write..write_fmt..Adapter$LT$T$GT$$u20$as$u20$core..fmt..Write$GT$9write_str17h8d295c0a2ffcfd05E>
    9772:	59                   	pop    %rcx
    9773:	c3                   	retq   
    9774:	c1 e8 12             	shr    $0x12,%eax
    9777:	24 07                	and    $0x7,%al
    9779:	0c f0                	or     $0xf0,%al
    977b:	88 44 24 04          	mov    %al,0x4(%rsp)
    977f:	89 f0                	mov    %esi,%eax
    9781:	c1 e8 0c             	shr    $0xc,%eax
    9784:	24 3f                	and    $0x3f,%al
    9786:	0c 80                	or     $0x80,%al
    9788:	88 44 24 05          	mov    %al,0x5(%rsp)
    978c:	89 f0                	mov    %esi,%eax
    978e:	c1 e8 06             	shr    $0x6,%eax
    9791:	24 3f                	and    $0x3f,%al
    9793:	0c 80                	or     $0x80,%al
    9795:	88 44 24 06          	mov    %al,0x6(%rsp)
    9799:	40 80 e6 3f          	and    $0x3f,%sil
    979d:	40 80 ce 80          	or     $0x80,%sil
    97a1:	40 88 74 24 07       	mov    %sil,0x7(%rsp)
    97a6:	ba 04 00 00 00       	mov    $0x4,%edx
    97ab:	48 8d 74 24 04       	lea    0x4(%rsp),%rsi
    97b0:	e8 ab 5a 01 00       	callq  1f260 <_ZN80_$LT$std..io..Write..write_fmt..Adapter$LT$T$GT$$u20$as$u20$core..fmt..Write$GT$9write_str17h8d295c0a2ffcfd05E>
    97b5:	59                   	pop    %rcx
    97b6:	c3                   	retq   
    97b7:	66 0f 1f 84 00 00 00 	nopw   0x0(%rax,%rax,1)
    97be:	00 00 

00000000000097c0 <_ZN4core3fmt5Write10write_char17h8f114b6c5cf49dc3E>:
    97c0:	41 57                	push   %r15
    97c2:	41 56                	push   %r14
    97c4:	53                   	push   %rbx
    97c5:	48 83 ec 10          	sub    $0x10,%rsp
    97c9:	c7 44 24 0c 00 00 00 	movl   $0x0,0xc(%rsp)
    97d0:	00 
    97d1:	81 fe 80 00 00 00    	cmp    $0x80,%esi
    97d7:	73 10                	jae    97e9 <_ZN4core3fmt5Write10write_char17h8f114b6c5cf49dc3E+0x29>
    97d9:	40 88 74 24 0c       	mov    %sil,0xc(%rsp)
    97de:	41 be 01 00 00 00    	mov    $0x1,%r14d
    97e4:	e9 93 00 00 00       	jmpq   987c <_ZN4core3fmt5Write10write_char17h8f114b6c5cf49dc3E+0xbc>
    97e9:	89 f0                	mov    %esi,%eax
    97eb:	81 fe 00 08 00 00    	cmp    $0x800,%esi
    97f1:	73 1e                	jae    9811 <_ZN4core3fmt5Write10write_char17h8f114b6c5cf49dc3E+0x51>
    97f3:	c1 e8 06             	shr    $0x6,%eax
    97f6:	0c c0                	or     $0xc0,%al
    97f8:	88 44 24 0c          	mov    %al,0xc(%rsp)
    97fc:	40 80 e6 3f          	and    $0x3f,%sil
    9800:	40 80 ce 80          	or     $0x80,%sil
    9804:	40 88 74 24 0d       	mov    %sil,0xd(%rsp)
    9809:	41 be 02 00 00 00    	mov    $0x2,%r14d
    980f:	eb 6b                	jmp    987c <_ZN4core3fmt5Write10write_char17h8f114b6c5cf49dc3E+0xbc>
    9811:	81 fe 00 00 01 00    	cmp    $0x10000,%esi
    9817:	73 2b                	jae    9844 <_ZN4core3fmt5Write10write_char17h8f114b6c5cf49dc3E+0x84>
    9819:	c1 e8 0c             	shr    $0xc,%eax
    981c:	0c e0                	or     $0xe0,%al
    981e:	88 44 24 0c          	mov    %al,0xc(%rsp)
    9822:	89 f0                	mov    %esi,%eax
    9824:	c1 e8 06             	shr    $0x6,%eax
    9827:	24 3f                	and    $0x3f,%al
    9829:	0c 80                	or     $0x80,%al
    982b:	88 44 24 0d          	mov    %al,0xd(%rsp)
    982f:	40 80 e6 3f          	and    $0x3f,%sil
    9833:	40 80 ce 80          	or     $0x80,%sil
    9837:	40 88 74 24 0e       	mov    %sil,0xe(%rsp)
    983c:	41 be 03 00 00 00    	mov    $0x3,%r14d
    9842:	eb 38                	jmp    987c <_ZN4core3fmt5Write10write_char17h8f114b6c5cf49dc3E+0xbc>
    9844:	c1 e8 12             	shr    $0x12,%eax
    9847:	24 07                	and    $0x7,%al
    9849:	0c f0                	or     $0xf0,%al
    984b:	88 44 24 0c          	mov    %al,0xc(%rsp)
    984f:	89 f0                	mov    %esi,%eax
    9851:	c1 e8 0c             	shr    $0xc,%eax
    9854:	24 3f                	and    $0x3f,%al
    9856:	0c 80                	or     $0x80,%al
    9858:	88 44 24 0d          	mov    %al,0xd(%rsp)
    985c:	89 f0                	mov    %esi,%eax
    985e:	c1 e8 06             	shr    $0x6,%eax
    9861:	24 3f                	and    $0x3f,%al
    9863:	0c 80                	or     $0x80,%al
    9865:	88 44 24 0e          	mov    %al,0xe(%rsp)
    9869:	40 80 e6 3f          	and    $0x3f,%sil
    986d:	40 80 ce 80          	or     $0x80,%sil
    9871:	40 88 74 24 0f       	mov    %sil,0xf(%rsp)
    9876:	41 be 04 00 00 00    	mov    $0x4,%r14d
    987c:	4c 8b 7f 08          	mov    0x8(%rdi),%r15
    9880:	49 8b 07             	mov    (%r15),%rax
    9883:	49 8b 5f 10          	mov    0x10(%r15),%rbx
    9887:	48 29 d8             	sub    %rbx,%rax
    988a:	4c 39 f0             	cmp    %r14,%rax
    988d:	72 28                	jb     98b7 <_ZN4core3fmt5Write10write_char17h8f114b6c5cf49dc3E+0xf7>
    988f:	49 8b 7f 08          	mov    0x8(%r15),%rdi
    9893:	48 01 df             	add    %rbx,%rdi
    9896:	48 8d 74 24 0c       	lea    0xc(%rsp),%rsi
    989b:	4c 89 f2             	mov    %r14,%rdx
    989e:	ff 15 44 64 04 00    	callq  *0x46444(%rip)        # 4fce8 <memcpy@GLIBC_2.14>
    98a4:	4c 01 f3             	add    %r14,%rbx
    98a7:	49 89 5f 10          	mov    %rbx,0x10(%r15)
    98ab:	31 c0                	xor    %eax,%eax
    98ad:	48 83 c4 10          	add    $0x10,%rsp
    98b1:	5b                   	pop    %rbx
    98b2:	41 5e                	pop    %r14
    98b4:	41 5f                	pop    %r15
    98b6:	c3                   	retq   
    98b7:	4c 89 ff             	mov    %r15,%rdi
    98ba:	48 89 de             	mov    %rbx,%rsi
    98bd:	4c 89 f2             	mov    %r14,%rdx
    98c0:	e8 eb d3 ff ff       	callq  6cb0 <_ZN5alloc7raw_vec19RawVec$LT$T$C$A$GT$7reserve21do_reserve_and_handle17ha57cc3a057baec40E>
    98c5:	49 8b 5f 10          	mov    0x10(%r15),%rbx
    98c9:	eb c4                	jmp    988f <_ZN4core3fmt5Write10write_char17h8f114b6c5cf49dc3E+0xcf>
    98cb:	0f 1f 44 00 00       	nopl   0x0(%rax,%rax,1)

00000000000098d0 <_ZN4core3fmt5Write10write_char17hc18f06d7aacdcdd3E>:
    98d0:	50                   	push   %rax
    98d1:	c7 44 24 04 00 00 00 	movl   $0x0,0x4(%rsp)
    98d8:	00 
    98d9:	81 fe 80 00 00 00    	cmp    $0x80,%esi
    98df:	73 16                	jae    98f7 <_ZN4core3fmt5Write10write_char17hc18f06d7aacdcdd3E+0x27>
    98e1:	40 88 74 24 04       	mov    %sil,0x4(%rsp)
    98e6:	ba 01 00 00 00       	mov    $0x1,%edx
    98eb:	48 8d 74 24 04       	lea    0x4(%rsp),%rsi
    98f0:	e8 cb 5a 01 00       	callq  1f3c0 <_ZN80_$LT$std..io..Write..write_fmt..Adapter$LT$T$GT$$u20$as$u20$core..fmt..Write$GT$9write_str17hc0acb85cbd6b4017E>
    98f5:	59                   	pop    %rcx
    98f6:	c3                   	retq   
    98f7:	89 f0                	mov    %esi,%eax
    98f9:	81 fe 00 08 00 00    	cmp    $0x800,%esi
    98ff:	73 27                	jae    9928 <_ZN4core3fmt5Write10write_char17hc18f06d7aacdcdd3E+0x58>
    9901:	c1 e8 06             	shr    $0x6,%eax
    9904:	0c c0                	or     $0xc0,%al
    9906:	88 44 24 04          	mov    %al,0x4(%rsp)
    990a:	40 80 e6 3f          	and    $0x3f,%sil
    990e:	40 80 ce 80          	or     $0x80,%sil
    9912:	40 88 74 24 05       	mov    %sil,0x5(%rsp)
    9917:	ba 02 00 00 00       	mov    $0x2,%edx
    991c:	48 8d 74 24 04       	lea    0x4(%rsp),%rsi
    9921:	e8 9a 5a 01 00       	callq  1f3c0 <_ZN80_$LT$std..io..Write..write_fmt..Adapter$LT$T$GT$$u20$as$u20$core..fmt..Write$GT$9write_str17hc0acb85cbd6b4017E>
    9926:	59                   	pop    %rcx
    9927:	c3                   	retq   
    9928:	81 fe 00 00 01 00    	cmp    $0x10000,%esi
    992e:	73 34                	jae    9964 <_ZN4core3fmt5Write10write_char17hc18f06d7aacdcdd3E+0x94>
    9930:	c1 e8 0c             	shr    $0xc,%eax
    9933:	0c e0                	or     $0xe0,%al
    9935:	88 44 24 04          	mov    %al,0x4(%rsp)
    9939:	89 f0                	mov    %esi,%eax
    993b:	c1 e8 06             	shr    $0x6,%eax
    993e:	24 3f                	and    $0x3f,%al
    9940:	0c 80                	or     $0x80,%al
    9942:	88 44 24 05          	mov    %al,0x5(%rsp)
    9946:	40 80 e6 3f          	and    $0x3f,%sil
    994a:	40 80 ce 80          	or     $0x80,%sil
    994e:	40 88 74 24 06       	mov    %sil,0x6(%rsp)
    9953:	ba 03 00 00 00       	mov    $0x3,%edx
    9958:	48 8d 74 24 04       	lea    0x4(%rsp),%rsi
    995d:	e8 5e 5a 01 00       	callq  1f3c0 <_ZN80_$LT$std..io..Write..write_fmt..Adapter$LT$T$GT$$u20$as$u20$core..fmt..Write$GT$9write_str17hc0acb85cbd6b4017E>
    9962:	59                   	pop    %rcx
    9963:	c3                   	retq   
    9964:	c1 e8 12             	shr    $0x12,%eax
    9967:	24 07                	and    $0x7,%al
    9969:	0c f0                	or     $0xf0,%al
    996b:	88 44 24 04          	mov    %al,0x4(%rsp)
    996f:	89 f0                	mov    %esi,%eax
    9971:	c1 e8 0c             	shr    $0xc,%eax
    9974:	24 3f                	and    $0x3f,%al
    9976:	0c 80                	or     $0x80,%al
    9978:	88 44 24 05          	mov    %al,0x5(%rsp)
    997c:	89 f0                	mov    %esi,%eax
    997e:	c1 e8 06             	shr    $0x6,%eax
    9981:	24 3f                	and    $0x3f,%al
    9983:	0c 80                	or     $0x80,%al
    9985:	88 44 24 06          	mov    %al,0x6(%rsp)
    9989:	40 80 e6 3f          	and    $0x3f,%sil
    998d:	40 80 ce 80          	or     $0x80,%sil
    9991:	40 88 74 24 07       	mov    %sil,0x7(%rsp)
    9996:	ba 04 00 00 00       	mov    $0x4,%edx
    999b:	48 8d 74 24 04       	lea    0x4(%rsp),%rsi
    99a0:	e8 1b 5a 01 00       	callq  1f3c0 <_ZN80_$LT$std..io..Write..write_fmt..Adapter$LT$T$GT$$u20$as$u20$core..fmt..Write$GT$9write_str17hc0acb85cbd6b4017E>
    99a5:	59                   	pop    %rcx
    99a6:	c3                   	retq   
    99a7:	66 0f 1f 84 00 00 00 	nopw   0x0(%rax,%rax,1)
    99ae:	00 00 

00000000000099b0 <_ZN4core3fmt5Write9write_fmt17h7d15d11cc18933fcE>:
    99b0:	48 83 ec 48          	sub    $0x48,%rsp
    99b4:	48 89 7c 24 08       	mov    %rdi,0x8(%rsp)
    99b9:	0f 10 06             	movups (%rsi),%xmm0
    99bc:	0f 10 4e 10          	movups 0x10(%rsi),%xmm1
    99c0:	0f 10 56 20          	movups 0x20(%rsi),%xmm2
    99c4:	0f 29 54 24 30       	movaps %xmm2,0x30(%rsp)
    99c9:	0f 29 4c 24 20       	movaps %xmm1,0x20(%rsp)
    99ce:	0f 29 44 24 10       	movaps %xmm0,0x10(%rsp)
    99d3:	48 8d 35 6e 39 04 00 	lea    0x4396e(%rip),%rsi        # 4d348 <__init_array_end+0xc0>
    99da:	48 8d 7c 24 08       	lea    0x8(%rsp),%rdi
    99df:	48 8d 54 24 10       	lea    0x10(%rsp),%rdx
    99e4:	ff 15 96 5f 04 00    	callq  *0x45f96(%rip)        # 4f980 <_GLOBAL_OFFSET_TABLE_+0x58>
    99ea:	48 83 c4 48          	add    $0x48,%rsp
    99ee:	c3                   	retq   
    99ef:	90                   	nop

00000000000099f0 <_ZN4core3fmt5Write9write_fmt17hf039d55c73054f1dE>:
    99f0:	48 83 ec 48          	sub    $0x48,%rsp
    99f4:	48 89 7c 24 08       	mov    %rdi,0x8(%rsp)
    99f9:	0f 10 06             	movups (%rsi),%xmm0
    99fc:	0f 10 4e 10          	movups 0x10(%rsi),%xmm1
    9a00:	0f 10 56 20          	movups 0x20(%rsi),%xmm2
    9a04:	0f 29 54 24 30       	movaps %xmm2,0x30(%rsp)
    9a09:	0f 29 4c 24 20       	movaps %xmm1,0x20(%rsp)
    9a0e:	0f 29 44 24 10       	movaps %xmm0,0x10(%rsp)
    9a13:	48 8d 35 5e 39 04 00 	lea    0x4395e(%rip),%rsi        # 4d378 <__init_array_end+0xf0>
    9a1a:	48 8d 7c 24 08       	lea    0x8(%rsp),%rdi
    9a1f:	48 8d 54 24 10       	lea    0x10(%rsp),%rdx
    9a24:	ff 15 56 5f 04 00    	callq  *0x45f56(%rip)        # 4f980 <_GLOBAL_OFFSET_TABLE_+0x58>
    9a2a:	48 83 c4 48          	add    $0x48,%rsp
    9a2e:	c3                   	retq   
    9a2f:	90                   	nop

0000000000009a30 <_ZN4core3fmt5Write9write_fmt17hf4e18eb20a298fddE>:
    9a30:	48 83 ec 48          	sub    $0x48,%rsp
    9a34:	48 89 7c 24 08       	mov    %rdi,0x8(%rsp)
    9a39:	0f 10 06             	movups (%rsi),%xmm0
    9a3c:	0f 10 4e 10          	movups 0x10(%rsi),%xmm1
    9a40:	0f 10 56 20          	movups 0x20(%rsi),%xmm2
    9a44:	0f 29 54 24 30       	movaps %xmm2,0x30(%rsp)
    9a49:	0f 29 4c 24 20       	movaps %xmm1,0x20(%rsp)
    9a4e:	0f 29 44 24 10       	movaps %xmm0,0x10(%rsp)
    9a53:	48 8d 35 4e 39 04 00 	lea    0x4394e(%rip),%rsi        # 4d3a8 <__init_array_end+0x120>
    9a5a:	48 8d 7c 24 08       	lea    0x8(%rsp),%rdi
    9a5f:	48 8d 54 24 10       	lea    0x10(%rsp),%rdx
    9a64:	ff 15 16 5f 04 00    	callq  *0x45f16(%rip)        # 4f980 <_GLOBAL_OFFSET_TABLE_+0x58>
    9a6a:	48 83 c4 48          	add    $0x48,%rsp
    9a6e:	c3                   	retq   
    9a6f:	90                   	nop

0000000000009a70 <_ZN4core3ops8function6FnOnce40call_once$u7b$$u7b$vtable.shim$u7d$$u7d$17h30ecf5a5776393f5E>:
    9a70:	48 8b 07             	mov    (%rdi),%rax
    9a73:	48 8b 38             	mov    (%rax),%rdi
    9a76:	ff 25 74 63 04 00    	jmpq   *0x46374(%rip)        # 4fdf0 <_Unwind_GetDataRelBase@GCC_3.0>
    9a7c:	0f 1f 40 00          	nopl   0x0(%rax)

0000000000009a80 <_ZN4core3ops8function6FnOnce40call_once$u7b$$u7b$vtable.shim$u7d$$u7d$17h96d4284bc3180816E>:
    9a80:	e9 0b 78 01 00       	jmpq   21290 <_ZN3std10sys_common9backtrace10_print_fmt28_$u7b$$u7b$closure$u7d$$u7d$28_$u7b$$u7b$closure$u7d$$u7d$17hc6b150ead6809d65E>
    9a85:	66 2e 0f 1f 84 00 00 	nopw   %cs:0x0(%rax,%rax,1)
    9a8c:	00 00 00 
    9a8f:	90                   	nop

0000000000009a90 <_ZN4core3ops8function6FnOnce40call_once$u7b$$u7b$vtable.shim$u7d$$u7d$17hb7538ae06221b823E>:
    9a90:	48 8b 07             	mov    (%rdi),%rax
    9a93:	48 8b 38             	mov    (%rax),%rdi
    9a96:	ff 25 2c 60 04 00    	jmpq   *0x4602c(%rip)        # 4fac8 <_Unwind_GetTextRelBase@GCC_3.0>
    9a9c:	0f 1f 40 00          	nopl   0x0(%rax)

0000000000009aa0 <_ZN4core3ops8function6FnOnce40call_once$u7b$$u7b$vtable.shim$u7d$$u7d$17hbaaa8ecb20d3cf8dE>:
    9aa0:	55                   	push   %rbp
    9aa1:	53                   	push   %rbx
    9aa2:	48 83 ec 28          	sub    $0x28,%rsp
    9aa6:	48 89 f0             	mov    %rsi,%rax
    9aa9:	48 89 fb             	mov    %rdi,%rbx
    9aac:	48 89 74 24 08       	mov    %rsi,0x8(%rsp)
    9ab1:	48 8d 74 24 10       	lea    0x10(%rsp),%rsi
    9ab6:	0f 10 02             	movups (%rdx),%xmm0
    9ab9:	0f 11 44 24 10       	movups %xmm0,0x10(%rsp)
    9abe:	48 8b 4a 10          	mov    0x10(%rdx),%rcx
    9ac2:	48 89 4c 24 20       	mov    %rcx,0x20(%rsp)
    9ac7:	48 8b 4f 08          	mov    0x8(%rdi),%rcx
    9acb:	48 85 c9             	test   %rcx,%rcx
    9ace:	48 0f 45 cf          	cmovne %rdi,%rcx
    9ad2:	8b 57 18             	mov    0x18(%rdi),%edx
    9ad5:	48 89 c7             	mov    %rax,%rdi
    9ad8:	e8 f3 79 01 00       	callq  214d0 <_ZN3std10sys_common9backtrace15output_filename17h66bd61b9ce11cc81E>
    9add:	89 c5                	mov    %eax,%ebp
    9adf:	48 8b 7b 08          	mov    0x8(%rbx),%rdi
    9ae3:	48 85 ff             	test   %rdi,%rdi
    9ae6:	74 13                	je     9afb <_ZN4core3ops8function6FnOnce40call_once$u7b$$u7b$vtable.shim$u7d$$u7d$17hbaaa8ecb20d3cf8dE+0x5b>
    9ae8:	48 8b 33             	mov    (%rbx),%rsi
    9aeb:	48 85 f6             	test   %rsi,%rsi
    9aee:	74 0b                	je     9afb <_ZN4core3ops8function6FnOnce40call_once$u7b$$u7b$vtable.shim$u7d$$u7d$17hbaaa8ecb20d3cf8dE+0x5b>
    9af0:	ba 01 00 00 00       	mov    $0x1,%edx
    9af5:	ff 15 b5 60 04 00    	callq  *0x460b5(%rip)        # 4fbb0 <_GLOBAL_OFFSET_TABLE_+0x288>
    9afb:	89 e8                	mov    %ebp,%eax
    9afd:	48 83 c4 28          	add    $0x28,%rsp
    9b01:	5b                   	pop    %rbx
    9b02:	5d                   	pop    %rbp
    9b03:	c3                   	retq   
    9b04:	48 89 c5             	mov    %rax,%rbp
    9b07:	48 89 df             	mov    %rbx,%rdi
    9b0a:	e8 a1 10 00 00       	callq  abb0 <_ZN4core3ptr70drop_in_place$LT$core..option..Option$LT$alloc..string..String$GT$$GT$17hee210d687021ddadE>
    9b0f:	48 89 ef             	mov    %rbp,%rdi
    9b12:	e8 49 c5 ff ff       	callq  6060 <_Unwind_Resume@plt>
    9b17:	0f 0b                	ud2    
    9b19:	0f 1f 80 00 00 00 00 	nopl   0x0(%rax)

0000000000009b20 <_ZN4core3ops8function6FnOnce40call_once$u7b$$u7b$vtable.shim$u7d$$u7d$17hcb3ab01dad875fabE>:
    9b20:	e9 3b 76 01 00       	jmpq   21160 <_ZN3std10sys_common9backtrace10_print_fmt28_$u7b$$u7b$closure$u7d$$u7d$17h4c6445e5703462e9E>
    9b25:	66 2e 0f 1f 84 00 00 	nopw   %cs:0x0(%rax,%rax,1)
    9b2c:	00 00 00 
    9b2f:	90                   	nop

0000000000009b30 <_ZN4core3ops8function6FnOnce9call_once17h1b1d4d2698e3051cE>:
    9b30:	50                   	push   %rax
    9b31:	e8 3a 33 01 00       	callq  1ce70 <_ZN3std2rt19lang_start_internal28_$u7b$$u7b$closure$u7d$$u7d$17h031967e8ff7b0757E>
    9b36:	0f 0b                	ud2    
    9b38:	0f 1f 84 00 00 00 00 	nopl   0x0(%rax,%rax,1)
    9b3f:	00 

0000000000009b40 <_ZN4core3ptr100drop_in_place$LT$$RF$mut$u20$std..io..Write..write_fmt..Adapter$LT$alloc..vec..Vec$LT$u8$GT$$GT$$GT$17h570cbf96a7ee37e4E>:
    9b40:	c3                   	retq   
    9b41:	66 2e 0f 1f 84 00 00 	nopw   %cs:0x0(%rax,%rax,1)
    9b48:	00 00 00 
    9b4b:	0f 1f 44 00 00       	nopl   0x0(%rax,%rax,1)

0000000000009b50 <_ZN4core3ptr101drop_in_place$LT$alloc..sync..Arc$LT$std..sync..mutex..Mutex$LT$alloc..vec..Vec$LT$u8$GT$$GT$$GT$$GT$17hd0c44581fa9d0ff2E>:
    9b50:	48 8b 07             	mov    (%rdi),%rax
    9b53:	f0 48 ff 08          	lock decq (%rax)
    9b57:	75 08                	jne    9b61 <_ZN4core3ptr101drop_in_place$LT$alloc..sync..Arc$LT$std..sync..mutex..Mutex$LT$alloc..vec..Vec$LT$u8$GT$$GT$$GT$$GT$17hd0c44581fa9d0ff2E+0x11>
    9b59:	48 8b 3f             	mov    (%rdi),%rdi
    9b5c:	e9 df 3d 00 00       	jmpq   d940 <_ZN5alloc4sync12Arc$LT$T$GT$9drop_slow17hb2091658b1129bccE>
    9b61:	c3                   	retq   
    9b62:	66 2e 0f 1f 84 00 00 	nopw   %cs:0x0(%rax,%rax,1)
    9b69:	00 00 00 
    9b6c:	0f 1f 40 00          	nopl   0x0(%rax)

0000000000009b70 <_ZN4core3ptr1021drop_in_place$LT$core..slice..sort..merge_sort..RunVec$LT$alloc..slice..stable_sort$LT$$LP$gimli..common..DebugInfoOffset$C$gimli..common..DebugArangesOffset$RP$$C$alloc..slice..$LT$impl$u20$$u5b$$LP$gimli..common..DebugInfoOffset$C$gimli..common..DebugArangesOffset$RP$$u5d$$GT$..sort_by_key$LT$gimli..common..DebugInfoOffset$C$addr2line..ResDwarf$LT$gimli..read..endian_slice..EndianSlice$LT$gimli..endianity..LittleEndian$GT$$GT$..parse..$u7b$$u7b$closure$u7d$$u7d$$GT$..$u7b$$u7b$closure$u7d$$u7d$$GT$..$u7b$$u7b$closure$u7d$$u7d$$C$alloc..slice..stable_sort$LT$$LP$gimli..common..DebugInfoOffset$C$gimli..common..DebugArangesOffset$RP$$C$alloc..slice..$LT$impl$u20$$u5b$$LP$gimli..common..DebugInfoOffset$C$gimli..common..DebugArangesOffset$RP$$u5d$$GT$..sort_by_key$LT$gimli..common..DebugInfoOffset$C$addr2line..ResDwarf$LT$gimli..read..endian_slice..EndianSlice$LT$gimli..endianity..LittleEndian$GT$$GT$..parse..$u7b$$u7b$closure$u7d$$u7d$$GT$..$u7b$$u7b$closure$u7d$$u7d$$GT$..$u7b$$u7b$closure$u7d$$u7d$$GT$$GT$17hc629d10b0b5d7bacE>:
    9b70:	48 89 f8             	mov    %rdi,%rax
    9b73:	48 c1 e0 04          	shl    $0x4,%rax
    9b77:	ba 08 00 00 00       	mov    $0x8,%edx
    9b7c:	48 89 f7             	mov    %rsi,%rdi
    9b7f:	48 89 c6             	mov    %rax,%rsi
    9b82:	ff 25 28 60 04 00    	jmpq   *0x46028(%rip)        # 4fbb0 <_GLOBAL_OFFSET_TABLE_+0x288>
    9b88:	0f 1f 84 00 00 00 00 	nopl   0x0(%rax,%rax,1)
    9b8f:	00 

0000000000009b90 <_ZN4core3ptr105drop_in_place$LT$core..result..Result$LT$alloc..ffi..c_str..CString$C$alloc..ffi..c_str..NulError$GT$$GT$17h7651a0aeb6c115d6E>:
    9b90:	48 8b 47 10          	mov    0x10(%rdi),%rax
    9b94:	48 85 c0             	test   %rax,%rax
    9b97:	74 17                	je     9bb0 <_ZN4core3ptr105drop_in_place$LT$core..result..Result$LT$alloc..ffi..c_str..CString$C$alloc..ffi..c_str..NulError$GT$$GT$17h7651a0aeb6c115d6E+0x20>
    9b99:	48 8b 77 08          	mov    0x8(%rdi),%rsi
    9b9d:	48 85 f6             	test   %rsi,%rsi
    9ba0:	74 2b                	je     9bcd <_ZN4core3ptr105drop_in_place$LT$core..result..Result$LT$alloc..ffi..c_str..CString$C$alloc..ffi..c_str..NulError$GT$$GT$17h7651a0aeb6c115d6E+0x3d>
    9ba2:	ba 01 00 00 00       	mov    $0x1,%edx
    9ba7:	48 89 c7             	mov    %rax,%rdi
    9baa:	ff 25 00 60 04 00    	jmpq   *0x46000(%rip)        # 4fbb0 <_GLOBAL_OFFSET_TABLE_+0x288>
    9bb0:	48 8b 07             	mov    (%rdi),%rax
    9bb3:	c6 00 00             	movb   $0x0,(%rax)
    9bb6:	48 8b 77 08          	mov    0x8(%rdi),%rsi
    9bba:	48 85 f6             	test   %rsi,%rsi
    9bbd:	74 0e                	je     9bcd <_ZN4core3ptr105drop_in_place$LT$core..result..Result$LT$alloc..ffi..c_str..CString$C$alloc..ffi..c_str..NulError$GT$$GT$17h7651a0aeb6c115d6E+0x3d>
    9bbf:	48 8b 3f             	mov    (%rdi),%rdi
    9bc2:	ba 01 00 00 00       	mov    $0x1,%edx
    9bc7:	ff 25 e3 5f 04 00    	jmpq   *0x45fe3(%rip)        # 4fbb0 <_GLOBAL_OFFSET_TABLE_+0x288>
    9bcd:	c3                   	retq   
    9bce:	66 90                	xchg   %ax,%ax

0000000000009bd0 <_ZN4core3ptr107drop_in_place$LT$alloc..sync..Arc$LT$core..mem..maybe_uninit..MaybeUninit$LT$std..thread..Inner$GT$$GT$$GT$17hdeb3329fdbcdd3d7E>:
    9bd0:	48 8b 07             	mov    (%rdi),%rax
    9bd3:	f0 48 ff 08          	lock decq (%rax)
    9bd7:	75 08                	jne    9be1 <_ZN4core3ptr107drop_in_place$LT$alloc..sync..Arc$LT$core..mem..maybe_uninit..MaybeUninit$LT$std..thread..Inner$GT$$GT$$GT$17hdeb3329fdbcdd3d7E+0x11>
    9bd9:	48 8b 3f             	mov    (%rdi),%rdi
    9bdc:	e9 ef 3c 00 00       	jmpq   d8d0 <_ZN5alloc4sync12Arc$LT$T$GT$9drop_slow17h38f1c1904fd9e063E>
    9be1:	c3                   	retq   
    9be2:	66 2e 0f 1f 84 00 00 	nopw   %cs:0x0(%rax,%rax,1)
    9be9:	00 00 00 
    9bec:	0f 1f 40 00          	nopl   0x0(%rax)

0000000000009bf0 <_ZN4core3ptr112drop_in_place$LT$core..slice..sort..InsertionHole$LT$std..backtrace_rs..symbolize..gimli..elf..ParsedSym$GT$$GT$17hd8df96794df88a88E>:
    9bf0:	48 8b 47 10          	mov    0x10(%rdi),%rax
    9bf4:	48 89 46 10          	mov    %rax,0x10(%rsi)
    9bf8:	0f 10 07             	movups (%rdi),%xmm0
    9bfb:	0f 11 06             	movups %xmm0,(%rsi)
    9bfe:	c3                   	retq   
    9bff:	90                   	nop

0000000000009c00 <_ZN4core3ptr115drop_in_place$LT$core..cell..RefMut$LT$core..option..Option$LT$std..sys_common..thread_info..ThreadInfo$GT$$GT$$GT$17h7bbac4f0e46ecbb5E>:
    9c00:	48 ff 07             	incq   (%rdi)
    9c03:	c3                   	retq   
    9c04:	66 2e 0f 1f 84 00 00 	nopw   %cs:0x0(%rax,%rax,1)
    9c0b:	00 00 00 
    9c0e:	66 90                	xchg   %ax,%ax

0000000000009c10 <_ZN4core3ptr118drop_in_place$LT$alloc..vec..Vec$LT$$LP$gimli..common..DebugInfoOffset$C$gimli..common..DebugArangesOffset$RP$$GT$$GT$17h71bb03bd5dddafaeE>:
    9c10:	48 85 ff             	test   %rdi,%rdi
    9c13:	74 18                	je     9c2d <_ZN4core3ptr118drop_in_place$LT$alloc..vec..Vec$LT$$LP$gimli..common..DebugInfoOffset$C$gimli..common..DebugArangesOffset$RP$$GT$$GT$17h71bb03bd5dddafaeE+0x1d>
    9c15:	48 89 f8             	mov    %rdi,%rax
    9c18:	48 c1 e0 04          	shl    $0x4,%rax
    9c1c:	ba 08 00 00 00       	mov    $0x8,%edx
    9c21:	48 89 f7             	mov    %rsi,%rdi
    9c24:	48 89 c6             	mov    %rax,%rsi
    9c27:	ff 25 83 5f 04 00    	jmpq   *0x45f83(%rip)        # 4fbb0 <_GLOBAL_OFFSET_TABLE_+0x288>
    9c2d:	c3                   	retq   
    9c2e:	66 90                	xchg   %ax,%ax

0000000000009c30 <_ZN4core3ptr119drop_in_place$LT$addr2line..lazy..LazyCell$LT$core..result..Result$LT$addr2line..Lines$C$gimli..read..Error$GT$$GT$$GT$17h5d5d45ba5288911bE>:
    9c30:	48 83 3f 00          	cmpq   $0x0,(%rdi)
    9c34:	74 09                	je     9c3f <_ZN4core3ptr119drop_in_place$LT$addr2line..lazy..LazyCell$LT$core..result..Result$LT$addr2line..Lines$C$gimli..read..Error$GT$$GT$$GT$17h5d5d45ba5288911bE+0xf>
    9c36:	48 83 c7 08          	add    $0x8,%rdi
    9c3a:	e9 21 12 00 00       	jmpq   ae60 <_ZN4core3ptr86drop_in_place$LT$core..result..Result$LT$addr2line..Lines$C$gimli..read..Error$GT$$GT$17h4d82eb6258c3b6cfE>
    9c3f:	c3                   	retq   

0000000000009c40 <_ZN4core3ptr123drop_in_place$LT$addr2line..ResUnit$LT$gimli..read..endian_slice..EndianSlice$LT$gimli..endianity..LittleEndian$GT$$GT$$GT$17h8dcd71a70dad5b04E>:
    9c40:	41 56                	push   %r14
    9c42:	53                   	push   %rbx
    9c43:	50                   	push   %rax
    9c44:	48 89 fb             	mov    %rdi,%rbx
    9c47:	48 83 c7 20          	add    $0x20,%rdi
    9c4b:	e8 e0 0a 00 00       	callq  a730 <_ZN4core3ptr55drop_in_place$LT$gimli..read..abbrev..Abbreviations$GT$17h0e8c82b2a490820fE>
    9c50:	48 8d bb d8 00 00 00 	lea    0xd8(%rbx),%rdi
    9c57:	e8 94 04 00 00       	callq  a0f0 <_ZN4core3ptr181drop_in_place$LT$core..option..Option$LT$gimli..read..line..IncompleteLineProgram$LT$gimli..read..endian_slice..EndianSlice$LT$gimli..endianity..LittleEndian$GT$$C$usize$GT$$GT$$GT$17h44a42385eacd0159E>
    9c5c:	48 83 bb d8 01 00 00 	cmpq   $0x0,0x1d8(%rbx)
    9c63:	00 
    9c64:	74 0c                	je     9c72 <_ZN4core3ptr123drop_in_place$LT$addr2line..ResUnit$LT$gimli..read..endian_slice..EndianSlice$LT$gimli..endianity..LittleEndian$GT$$GT$$GT$17h8dcd71a70dad5b04E+0x32>
    9c66:	48 8d bb e0 01 00 00 	lea    0x1e0(%rbx),%rdi
    9c6d:	e8 ee 11 00 00       	callq  ae60 <_ZN4core3ptr86drop_in_place$LT$core..result..Result$LT$addr2line..Lines$C$gimli..read..Error$GT$$GT$17h4d82eb6258c3b6cfE>
    9c72:	48 83 bb 00 02 00 00 	cmpq   $0x0,0x200(%rbx)
    9c79:	00 
    9c7a:	74 16                	je     9c92 <_ZN4core3ptr123drop_in_place$LT$addr2line..ResUnit$LT$gimli..read..endian_slice..EndianSlice$LT$gimli..endianity..LittleEndian$GT$$GT$$GT$17h8dcd71a70dad5b04E+0x52>
    9c7c:	48 81 c3 08 02 00 00 	add    $0x208,%rbx
    9c83:	48 89 df             	mov    %rbx,%rdi
    9c86:	48 83 c4 08          	add    $0x8,%rsp
    9c8a:	5b                   	pop    %rbx
    9c8b:	41 5e                	pop    %r14
    9c8d:	e9 fe 04 00 00       	jmpq   a190 <_ZN4core3ptr184drop_in_place$LT$core..result..Result$LT$addr2line..function..Functions$LT$gimli..read..endian_slice..EndianSlice$LT$gimli..endianity..LittleEndian$GT$$GT$$C$gimli..read..Error$GT$$GT$17h11aec5c7fdcd5cf0E>
    9c92:	48 83 c4 08          	add    $0x8,%rsp
    9c96:	5b                   	pop    %rbx
    9c97:	41 5e                	pop    %r14
    9c99:	c3                   	retq   
    9c9a:	49 89 c6             	mov    %rax,%r14
    9c9d:	48 8d bb d8 00 00 00 	lea    0xd8(%rbx),%rdi
    9ca4:	e8 47 04 00 00       	callq  a0f0 <_ZN4core3ptr181drop_in_place$LT$core..option..Option$LT$gimli..read..line..IncompleteLineProgram$LT$gimli..read..endian_slice..EndianSlice$LT$gimli..endianity..LittleEndian$GT$$C$usize$GT$$GT$$GT$17h44a42385eacd0159E>
    9ca9:	48 8d bb d8 01 00 00 	lea    0x1d8(%rbx),%rdi
    9cb0:	e8 7b ff ff ff       	callq  9c30 <_ZN4core3ptr119drop_in_place$LT$addr2line..lazy..LazyCell$LT$core..result..Result$LT$addr2line..Lines$C$gimli..read..Error$GT$$GT$$GT$17h5d5d45ba5288911bE>
    9cb5:	48 81 c3 00 02 00 00 	add    $0x200,%rbx
    9cbc:	48 89 df             	mov    %rbx,%rdi
    9cbf:	e8 dc 05 00 00       	callq  a2a0 <_ZN4core3ptr217drop_in_place$LT$addr2line..lazy..LazyCell$LT$core..result..Result$LT$addr2line..function..Functions$LT$gimli..read..endian_slice..EndianSlice$LT$gimli..endianity..LittleEndian$GT$$GT$$C$gimli..read..Error$GT$$GT$$GT$17hf743ced7c69b89bfE>
    9cc4:	4c 89 f7             	mov    %r14,%rdi
    9cc7:	e8 94 c3 ff ff       	callq  6060 <_Unwind_Resume@plt>
    9ccc:	0f 0b                	ud2    
    9cce:	66 90                	xchg   %ax,%ax

0000000000009cd0 <_ZN4core3ptr124drop_in_place$LT$addr2line..ResDwarf$LT$gimli..read..endian_slice..EndianSlice$LT$gimli..endianity..LittleEndian$GT$$GT$$GT$17h67639cb65c1f1946E>:
    9cd0:	41 57                	push   %r15
    9cd2:	41 56                	push   %r14
    9cd4:	41 55                	push   %r13
    9cd6:	41 54                	push   %r12
    9cd8:	53                   	push   %rbx
    9cd9:	49 89 ff             	mov    %rdi,%r15
    9cdc:	48 8b 77 08          	mov    0x8(%rdi),%rsi
    9ce0:	48 85 f6             	test   %rsi,%rsi
    9ce3:	74 13                	je     9cf8 <_ZN4core3ptr124drop_in_place$LT$addr2line..ResDwarf$LT$gimli..read..endian_slice..EndianSlice$LT$gimli..endianity..LittleEndian$GT$$GT$$GT$17h67639cb65c1f1946E+0x28>
    9ce5:	49 8b 7f 10          	mov    0x10(%r15),%rdi
    9ce9:	48 c1 e6 05          	shl    $0x5,%rsi
    9ced:	ba 08 00 00 00       	mov    $0x8,%edx
    9cf2:	ff 15 b8 5e 04 00    	callq  *0x45eb8(%rip)        # 4fbb0 <_GLOBAL_OFFSET_TABLE_+0x288>
    9cf8:	49 8b 7f 28          	mov    0x28(%r15),%rdi
    9cfc:	49 69 5f 30 30 02 00 	imul   $0x230,0x30(%r15),%rbx
    9d03:	00 
    9d04:	66 66 66 2e 0f 1f 84 	data16 data16 nopw %cs:0x0(%rax,%rax,1)
