
main:     file format elf64-x86-64

SYMBOL TABLE:
0000000000000000 l    df *ABS*	0000000000000000              std.8c2aa3e3-cgu.0
000000000040a0f0 l     F .text	000000000000024d              _ZN108_$LT$alloc..collections..btree..map..Iter$LT$K$C$V$GT$$u20$as$u20$core..iter..traits..iterator..Iterator$GT$4next17hf5f7a5aec8a7bcbeE
000000000040e300 l     F .text	0000000000000006              _ZN4core3ptr72drop_in_place$LT$alloc..collections..btree..mem..replace..PanicGuard$GT$17h515dbe29c7c71557E
0000000000550208 l       .gcc_except_table	0000000000000000              GCC_except_table0
000000000040a340 l     F .text	000000000000000b              _ZN36_$LT$T$u20$as$u20$core..any..Any$GT$7type_id17h31bd3825f9a5c6c1E
000000000040a350 l     F .text	000000000000000b              _ZN36_$LT$T$u20$as$u20$core..any..Any$GT$7type_id17h6abed1a39e7464b6E
000000000040a360 l     F .text	000000000000000b              _ZN36_$LT$T$u20$as$u20$core..any..Any$GT$7type_id17hbbbea7238b7ca240E
000000000040a370 l     F .text	000000000000000b              _ZN36_$LT$T$u20$as$u20$core..any..Any$GT$7type_id17he16744cf5b2645faE
000000000040a380 l     F .text	0000000000000006              _ZN41_$LT$bool$u20$as$u20$core..fmt..Debug$GT$3fmt17h1800f90810d9fc9bE
000000000040a390 l     F .text	0000000000000009              _ZN42_$LT$$RF$T$u20$as$u20$core..fmt..Debug$GT$3fmt17h0c7605f2448ace35E
000000000040a3a0 l     F .text	0000000000000046              _ZN42_$LT$$RF$T$u20$as$u20$core..fmt..Debug$GT$3fmt17h0db21cc621c111bdE
000000000040a3f0 l     F .text	000000000000000c              _ZN42_$LT$$RF$T$u20$as$u20$core..fmt..Debug$GT$3fmt17h107462056ab32434E
000000000040a400 l     F .text	0000000000000009              _ZN42_$LT$$RF$T$u20$as$u20$core..fmt..Debug$GT$3fmt17h1279a53db63d4181E
000000000040a410 l     F .text	000000000000004c              _ZN42_$LT$$RF$T$u20$as$u20$core..fmt..Debug$GT$3fmt17h166c856dacf46ab6E
000000000040a460 l     F .text	0000000000000053              _ZN42_$LT$$RF$T$u20$as$u20$core..fmt..Debug$GT$3fmt17h18c4e64cff732e4aE
000000000040a4c0 l     F .text	000000000000000c              _ZN42_$LT$$RF$T$u20$as$u20$core..fmt..Debug$GT$3fmt17h198d7bc9b030f59aE
000000000040a4d0 l     F .text	0000000000000013              _ZN42_$LT$$RF$T$u20$as$u20$core..fmt..Debug$GT$3fmt17h199cec28e7414706E
000000000040a4f0 l     F .text	0000000000000009              _ZN42_$LT$$RF$T$u20$as$u20$core..fmt..Debug$GT$3fmt17h2a35a119e1b39781E
000000000040a500 l     F .text	0000000000000046              _ZN42_$LT$$RF$T$u20$as$u20$core..fmt..Debug$GT$3fmt17h306a13612a7dab0aE
000000000040a550 l     F .text	0000000000000046              _ZN42_$LT$$RF$T$u20$as$u20$core..fmt..Debug$GT$3fmt17h30d687ff744f1663E
000000000040a5a0 l     F .text	000000000000002c              _ZN42_$LT$$RF$T$u20$as$u20$core..fmt..Debug$GT$3fmt17h312e5587a3105884E
000000000040a5d0 l     F .text	0000000000000014              _ZN42_$LT$$RF$T$u20$as$u20$core..fmt..Debug$GT$3fmt17h35ba1bebde1f8cddE
000000000040a5f0 l     F .text	000000000000004c              _ZN42_$LT$$RF$T$u20$as$u20$core..fmt..Debug$GT$3fmt17h36ffdd2698e934b1E
000000000040a640 l     F .text	0000000000000083              _ZN42_$LT$$RF$T$u20$as$u20$core..fmt..Debug$GT$3fmt17h3b50e45c1b8ef39aE
000000000040a6d0 l     F .text	0000000000000009              _ZN42_$LT$$RF$T$u20$as$u20$core..fmt..Debug$GT$3fmt17h3c2684dc8a27d3dcE
000000000040a6e0 l     F .text	0000000000000130              _ZN42_$LT$$RF$T$u20$as$u20$core..fmt..Debug$GT$3fmt17h4006a70e198380a1E
000000000040a810 l     F .text	0000000000000048              _ZN42_$LT$$RF$T$u20$as$u20$core..fmt..Debug$GT$3fmt17h4128b72800bc5d46E
000000000040a860 l     F .text	0000000000000072              _ZN42_$LT$$RF$T$u20$as$u20$core..fmt..Debug$GT$3fmt17h43619a25dca3aaa0E
000000000040a8e0 l     F .text	0000000000000046              _ZN42_$LT$$RF$T$u20$as$u20$core..fmt..Debug$GT$3fmt17h48568e85b9cd93baE
000000000040a930 l     F .text	0000000000000049              _ZN42_$LT$$RF$T$u20$as$u20$core..fmt..Debug$GT$3fmt17h4ea1db791df500c5E
000000000040a980 l     F .text	0000000000000054              _ZN42_$LT$$RF$T$u20$as$u20$core..fmt..Debug$GT$3fmt17h521d271bf3362283E
000000000040a9e0 l     F .text	00000000000000d6              _ZN42_$LT$$RF$T$u20$as$u20$core..fmt..Debug$GT$3fmt17h591e99a47fdb32fdE
000000000040aac0 l     F .text	000000000000000c              _ZN42_$LT$$RF$T$u20$as$u20$core..fmt..Debug$GT$3fmt17h5ad1211061b09697E
000000000040aad0 l     F .text	000000000000004b              _ZN42_$LT$$RF$T$u20$as$u20$core..fmt..Debug$GT$3fmt17h5ca044ec33bb9712E
000000000040ab20 l     F .text	0000000000000015              _ZN42_$LT$$RF$T$u20$as$u20$core..fmt..Debug$GT$3fmt17h5cdcdcb7b37d974aE
000000000040ab40 l     F .text	0000000000000048              _ZN42_$LT$$RF$T$u20$as$u20$core..fmt..Debug$GT$3fmt17h5e07921af787f657E
000000000040ab90 l     F .text	0000000000000071              _ZN42_$LT$$RF$T$u20$as$u20$core..fmt..Debug$GT$3fmt17h63f784abd47511d4E
000000000040ac10 l     F .text	000000000000000c              _ZN42_$LT$$RF$T$u20$as$u20$core..fmt..Debug$GT$3fmt17h668ce77e611485a1E
000000000040ac20 l     F .text	000000000000012c              _ZN42_$LT$$RF$T$u20$as$u20$core..fmt..Debug$GT$3fmt17h68f9720148939809E
000000000040ad50 l     F .text	0000000000000053              _ZN42_$LT$$RF$T$u20$as$u20$core..fmt..Debug$GT$3fmt17h69874733b4adf4b4E
000000000040adb0 l     F .text	000000000000002c              _ZN42_$LT$$RF$T$u20$as$u20$core..fmt..Debug$GT$3fmt17h6dc1fd2ea5e95147E
000000000040ade0 l     F .text	000000000000007a              _ZN42_$LT$$RF$T$u20$as$u20$core..fmt..Debug$GT$3fmt17h73e077650a73101aE
000000000040ae60 l     F .text	000000000000004c              _ZN42_$LT$$RF$T$u20$as$u20$core..fmt..Debug$GT$3fmt17h73f9f2d834925983E
000000000040aeb0 l     F .text	0000000000000071              _ZN42_$LT$$RF$T$u20$as$u20$core..fmt..Debug$GT$3fmt17h75b50034a9d42a01E
000000000040af30 l     F .text	0000000000000009              _ZN42_$LT$$RF$T$u20$as$u20$core..fmt..Debug$GT$3fmt17h78602654deae79aeE
000000000040af40 l     F .text	000000000000002c              _ZN42_$LT$$RF$T$u20$as$u20$core..fmt..Debug$GT$3fmt17h7994cf9c85e48501E
000000000040af70 l     F .text	0000000000000009              _ZN42_$LT$$RF$T$u20$as$u20$core..fmt..Debug$GT$3fmt17h7dc697f5a4f7ca58E
000000000040af80 l     F .text	000000000000002c              _ZN42_$LT$$RF$T$u20$as$u20$core..fmt..Debug$GT$3fmt17h844b6aaec9af09adE
000000000040afb0 l     F .text	0000000000000053              _ZN42_$LT$$RF$T$u20$as$u20$core..fmt..Debug$GT$3fmt17h8721a7e5646c53f3E
000000000040b010 l     F .text	0000000000000061              _ZN42_$LT$$RF$T$u20$as$u20$core..fmt..Debug$GT$3fmt17h8bd4be8a5141e15eE
000000000040b080 l     F .text	0000000000000010              _ZN42_$LT$$RF$T$u20$as$u20$core..fmt..Debug$GT$3fmt17h8e5f40a14c6797c2E
000000000040b090 l     F .text	0000000000000009              _ZN42_$LT$$RF$T$u20$as$u20$core..fmt..Debug$GT$3fmt17h91c47f7672b9944fE
000000000040b0a0 l     F .text	0000000000000053              _ZN42_$LT$$RF$T$u20$as$u20$core..fmt..Debug$GT$3fmt17h97223916731e7d26E
000000000040b100 l     F .text	0000000000000049              _ZN42_$LT$$RF$T$u20$as$u20$core..fmt..Debug$GT$3fmt17h9795493c1c7fdda0E
000000000040b150 l     F .text	0000000000000013              _ZN42_$LT$$RF$T$u20$as$u20$core..fmt..Debug$GT$3fmt17h99f3200672c9d051E
000000000040b170 l     F .text	0000000000000009              _ZN42_$LT$$RF$T$u20$as$u20$core..fmt..Debug$GT$3fmt17h9b2efdef30f8c370E
000000000040b180 l     F .text	0000000000000048              _ZN42_$LT$$RF$T$u20$as$u20$core..fmt..Debug$GT$3fmt17h9fb254b3b81f13cfE
000000000040b1d0 l     F .text	0000000000000013              _ZN42_$LT$$RF$T$u20$as$u20$core..fmt..Debug$GT$3fmt17ha571b1fdc841139dE
000000000040b1f0 l     F .text	0000000000000094              _ZN42_$LT$$RF$T$u20$as$u20$core..fmt..Debug$GT$3fmt17ha9e82343b51362c6E
0000000000444770 l     F .text	0000000000000176              _ZN3std10sys_common9backtrace15output_filename17h87f99365efdd0113E
000000000040ead0 l     F .text	00000000000000ab              _ZN4core3ptr91drop_in_place$LT$core..result..Result$LT$std..path..PathBuf$C$std..io..error..Error$GT$$GT$17hfd86425738215fd5E
0000000000550224 l       .gcc_except_table	0000000000000000              GCC_except_table55
000000000040b290 l     F .text	000000000000002c              _ZN42_$LT$$RF$T$u20$as$u20$core..fmt..Debug$GT$3fmt17hb0ec4d1493a2ade6E
000000000040b2c0 l     F .text	0000000000000015              _ZN42_$LT$$RF$T$u20$as$u20$core..fmt..Debug$GT$3fmt17hb1fac62236fb78d7E
000000000040b2e0 l     F .text	0000000000000053              _ZN42_$LT$$RF$T$u20$as$u20$core..fmt..Debug$GT$3fmt17hb2347bbba5c2a529E
000000000040b340 l     F .text	0000000000000098              _ZN42_$LT$$RF$T$u20$as$u20$core..fmt..Debug$GT$3fmt17hb6cc5c807589a8c9E
000000000040b3e0 l     F .text	000000000000009d              _ZN42_$LT$$RF$T$u20$as$u20$core..fmt..Debug$GT$3fmt17hb74b411f04e5806bE
000000000040b480 l     F .text	0000000000000071              _ZN42_$LT$$RF$T$u20$as$u20$core..fmt..Debug$GT$3fmt17hb80d64b1d89bd467E
000000000040b500 l     F .text	000000000000004b              _ZN42_$LT$$RF$T$u20$as$u20$core..fmt..Debug$GT$3fmt17hb95c79d6ef777f90E
000000000040b550 l     F .text	0000000000000061              _ZN42_$LT$$RF$T$u20$as$u20$core..fmt..Debug$GT$3fmt17hb9f0acc4525bc21cE
000000000040b5c0 l     F .text	0000000000000053              _ZN42_$LT$$RF$T$u20$as$u20$core..fmt..Debug$GT$3fmt17hc7993c0896390219E
000000000040b620 l     F .text	000000000000004c              _ZN42_$LT$$RF$T$u20$as$u20$core..fmt..Debug$GT$3fmt17hc8efd20dbeafaf86E
000000000040b670 l     F .text	0000000000000046              _ZN42_$LT$$RF$T$u20$as$u20$core..fmt..Debug$GT$3fmt17hcd1695db7991d010E
000000000040b6c0 l     F .text	00000000000000a0              _ZN42_$LT$$RF$T$u20$as$u20$core..fmt..Debug$GT$3fmt17hd004417babdef729E
000000000040b760 l     F .text	0000000000000009              _ZN42_$LT$$RF$T$u20$as$u20$core..fmt..Debug$GT$3fmt17hd3ce71b7cacda40bE
000000000040b770 l     F .text	000000000000000c              _ZN42_$LT$$RF$T$u20$as$u20$core..fmt..Debug$GT$3fmt17hd55b2d35c7064ea7E
000000000040b780 l     F .text	0000000000000009              _ZN42_$LT$$RF$T$u20$as$u20$core..fmt..Debug$GT$3fmt17hd66be433c3858399E
000000000040b790 l     F .text	0000000000000009              _ZN42_$LT$$RF$T$u20$as$u20$core..fmt..Debug$GT$3fmt17hd6cb6a11c6928741E
000000000040b7a0 l     F .text	0000000000000071              _ZN42_$LT$$RF$T$u20$as$u20$core..fmt..Debug$GT$3fmt17hd84082111ec8482eE
000000000040b820 l     F .text	0000000000000049              _ZN42_$LT$$RF$T$u20$as$u20$core..fmt..Debug$GT$3fmt17hda44ce1f8be1ad59E
000000000040b870 l     F .text	0000000000000046              _ZN42_$LT$$RF$T$u20$as$u20$core..fmt..Debug$GT$3fmt17he5cfcb19ba387522E
000000000040b8c0 l     F .text	0000000000000009              _ZN42_$LT$$RF$T$u20$as$u20$core..fmt..Debug$GT$3fmt17he8273d5d9ec1eb6bE
000000000040b8d0 l     F .text	0000000000000053              _ZN42_$LT$$RF$T$u20$as$u20$core..fmt..Debug$GT$3fmt17hf4ec402c470c8460E
000000000040b930 l     F .text	00000000000000ce              _ZN42_$LT$$RF$T$u20$as$u20$core..fmt..Debug$GT$3fmt17hf8f426a379f3770cE
000000000040ba00 l     F .text	0000000000000065              _ZN42_$LT$$RF$T$u20$as$u20$core..fmt..Debug$GT$3fmt17hffd0e0eef5c9342fE
000000000040ba70 l     F .text	0000000000000013              _ZN44_$LT$$RF$T$u20$as$u20$core..fmt..Display$GT$3fmt17h4946ade40c8e2c72E
000000000040ba90 l     F .text	0000000000000009              _ZN44_$LT$$RF$T$u20$as$u20$core..fmt..Display$GT$3fmt17h8b9b0a5f814a10c0E
000000000040baa0 l     F .text	0000000000000009              _ZN44_$LT$$RF$T$u20$as$u20$core..fmt..Display$GT$3fmt17h8c54eddb651c893cE
000000000040bab0 l     F .text	0000000000000009              _ZN44_$LT$$RF$T$u20$as$u20$core..fmt..Display$GT$3fmt17he854c4577562fe23E
000000000040bac0 l     F .text	0000000000000015              _ZN45_$LT$$LP$$RP$$u20$as$u20$core..fmt..Debug$GT$3fmt17h607289e0563c325eE
000000000040bae0 l     F .text	0000000000000009              _ZN45_$LT$$RF$T$u20$as$u20$core..fmt..LowerHex$GT$3fmt17h0e8a23421bde00e4E
000000000040baf0 l     F .text	0000000000000053              _ZN4core3fmt3num49_$LT$impl$u20$core..fmt..Debug$u20$for$u20$u8$GT$3fmt17h1d18db74da95bde9E
000000000040bb50 l     F .text	0000000000000053              _ZN4core3fmt3num50_$LT$impl$u20$core..fmt..Debug$u20$for$u20$i32$GT$3fmt17h08ad726449ed5b2eE
000000000040bbb0 l     F .text	0000000000000053              _ZN4core3fmt3num50_$LT$impl$u20$core..fmt..Debug$u20$for$u20$i64$GT$3fmt17h6784c2c7aafdb003E
000000000040bc10 l     F .text	0000000000000053              _ZN4core3fmt3num50_$LT$impl$u20$core..fmt..Debug$u20$for$u20$u32$GT$3fmt17hfae888e800f4a5dfE
000000000040bc70 l     F .text	0000000000000053              _ZN4core3fmt3num52_$LT$impl$u20$core..fmt..Debug$u20$for$u20$usize$GT$3fmt17h855c8063f38684f0E
000000000040bcd0 l     F .text	000000000000010b              _ZN4core3fmt5Write10write_char17h73119c078888d9f7E
00000000004053e0 l     F .text	00000000000000c4              _ZN5alloc7raw_vec19RawVec$LT$T$C$A$GT$7reserve21do_reserve_and_handle17hd51d99c8f1b8bb0eE
000000000040bde0 l     F .text	00000000000000d7              _ZN4core3fmt5Write10write_char17h79eddc1481949fa0E
00000000004364b0 l     F .text	00000000000000ab              _ZN80_$LT$std..io..Write..write_fmt..Adapter$LT$T$GT$$u20$as$u20$core..fmt..Write$GT$9write_str17hf87c65731adc654dE
000000000040bec0 l     F .text	00000000000000d7              _ZN4core3fmt5Write10write_char17h92b32245478ef70bE
00000000004362e0 l     F .text	0000000000000157              _ZN80_$LT$std..io..Write..write_fmt..Adapter$LT$T$GT$$u20$as$u20$core..fmt..Write$GT$9write_str17h8ff9e63184cf2365E
000000000040bfa0 l     F .text	00000000000000d7              _ZN4core3fmt5Write10write_char17h92f2ab58fbe6606fE
00000000004360d0 l     F .text	00000000000000ab              _ZN80_$LT$std..io..Write..write_fmt..Adapter$LT$T$GT$$u20$as$u20$core..fmt..Write$GT$9write_str17h0c2d8020b67ae7f3E
000000000040c080 l     F .text	00000000000000d7              _ZN4core3fmt5Write10write_char17hdc3a71465c815798E
0000000000436180 l     F .text	0000000000000157              _ZN80_$LT$std..io..Write..write_fmt..Adapter$LT$T$GT$$u20$as$u20$core..fmt..Write$GT$9write_str17h6f0faf53ac2c3f43E
000000000040c160 l     F .text	000000000000003f              _ZN4core3fmt5Write9write_fmt17h65bca22015ac0a03E
000000000040c1a0 l     F .text	000000000000003f              _ZN4core3fmt5Write9write_fmt17h759ad750f0e7eda2E
000000000040c1e0 l     F .text	000000000000003f              _ZN4core3fmt5Write9write_fmt17h8192c7031dbf8128E
000000000040c220 l     F .text	000000000000003f              _ZN4core3fmt5Write9write_fmt17hc2d12bec75d029efE
000000000040c260 l     F .text	000000000000003f              _ZN4core3fmt5Write9write_fmt17hc39912047e60ce49E
000000000040c2a0 l     F .text	000000000000003f              _ZN4core3fmt5Write9write_fmt17he6b9f34a2e74c9ddE
000000000040c2e0 l     F .text	0000000000000009              _ZN4core3ops8function2Fn4call17hf00d6cdf11cf7332E
000000000040c2f0 l     F .text	0000000000000009              _ZN4core3ops8function5FnMut8call_mut17h1345e8652f7b6f55E
000000000040c300 l     F .text	000000000000000c              _ZN4core3ops8function6FnOnce40call_once$u7b$$u7b$vtable.shim$u7d$$u7d$17h00a470de377404b3E
000000000040c310 l     F .text	0000000000000005              _ZN4core3ops8function6FnOnce40call_once$u7b$$u7b$vtable.shim$u7d$$u7d$17h7e14f5ca57edb594E
00000000004443f0 l     F .text	000000000000012e              _ZN3std10sys_common9backtrace10_print_fmt28_$u7b$$u7b$closure$u7d$$u7d$17h4de7e00aaf56a874E
000000000040c320 l     F .text	000000000000000a              _ZN4core3ops8function6FnOnce40call_once$u7b$$u7b$vtable.shim$u7d$$u7d$17h8ba39bc1d8a3dac3E
000000000042a590 l     F .text	0000000000000152              _ZN3std9backtrace9Backtrace6create28_$u7b$$u7b$closure$u7d$$u7d$17ha25cc628948ed332E
000000000040c330 l     F .text	000000000000000c              _ZN4core3ops8function6FnOnce40call_once$u7b$$u7b$vtable.shim$u7d$$u7d$17ha647e6b2a5719fb9E
000000000040c340 l     F .text	0000000000000069              _ZN4core3ops8function6FnOnce40call_once$u7b$$u7b$vtable.shim$u7d$$u7d$17haa03aaed844d887aE
000000000040c7f0 l     F .text	0000000000000005              _ZN4core3ptr118drop_in_place$LT$$LT$std..backtrace..Backtrace$u20$as$u20$core..fmt..Display$GT$..fmt..$u7b$$u7b$closure$u7d$$u7d$$GT$17hd0494e2be3e15cffE
0000000000550240 l       .gcc_except_table	0000000000000000              GCC_except_table107
000000000040c3b0 l     F .text	0000000000000076              _ZN4core3ops8function6FnOnce40call_once$u7b$$u7b$vtable.shim$u7d$$u7d$17hc1f8d8d5a83abe7eE
000000000040e250 l     F .text	0000000000000025              _ZN4core3ptr70drop_in_place$LT$std..panicking..begin_panic_handler..PanicPayload$GT$17h60ba052310e8dfa0E
0000000000550254 l       .gcc_except_table	0000000000000000              GCC_except_table108
000000000040c430 l     F .text	0000000000000009              _ZN4core3ops8function6FnOnce40call_once$u7b$$u7b$vtable.shim$u7d$$u7d$17hca17baefd4dac758E
000000000040c440 l     F .text	0000000000000012              _ZN4core3ops8function6FnOnce40call_once$u7b$$u7b$vtable.shim$u7d$$u7d$17hca7be65943416348E
000000000042abc0 l     F .text	0000000000000228              _ZN3std9backtrace7Capture7resolve28_$u7b$$u7b$closure$u7d$$u7d$17hacd83ee2d1d6f6bfE
000000000040c460 l     F .text	0000000000000005              _ZN4core3ops8function6FnOnce40call_once$u7b$$u7b$vtable.shim$u7d$$u7d$17hf8b4986f3d29f2e0E
0000000000444520 l     F .text	0000000000000227              _ZN3std10sys_common9backtrace10_print_fmt28_$u7b$$u7b$closure$u7d$$u7d$28_$u7b$$u7b$closure$u7d$$u7d$17h9fb31aecf65000a9E
000000000040c470 l     F .text	0000000000000026              _ZN4core3ops8function6FnOnce9call_once17h772b1627bca00b30E
000000000040c4a0 l     F .text	0000000000000026              _ZN4core3ops8function6FnOnce9call_once17h7e40cf5a31d871bbE
000000000040c4d0 l     F .text	0000000000000008              _ZN4core3ops8function6FnOnce9call_once17hb4b4ffcd5404da16E
0000000000427430 l     F .text	000000000000009b              _ZN3std2rt19lang_start_internal28_$u7b$$u7b$closure$u7d$$u7d$17h3a6efb388ccbbf92E
000000000040c4e0 l     F .text	0000000000000001              _ZN4core3ptr100drop_in_place$LT$$RF$mut$u20$std..io..Write..write_fmt..Adapter$LT$alloc..vec..Vec$LT$u8$GT$$GT$$GT$17h9ef98a338253f597E
000000000040c4f0 l     F .text	0000000000000012              _ZN4core3ptr101drop_in_place$LT$alloc..sync..Arc$LT$std..sync..mutex..Mutex$LT$alloc..vec..Vec$LT$u8$GT$$GT$$GT$$GT$17hfb4f7032d6a0aaefE
0000000000417530 l     F .text	0000000000000044              _ZN5alloc4sync12Arc$LT$T$GT$9drop_slow17hf26430f62af9d9e3E
000000000040c510 l     F .text	00000000000000b2              _ZN4core3ptr102drop_in_place$LT$core..option..Option$LT$std..sys..unix..process..process_common..CStringArray$GT$$GT$17h1a4d2c2a13ac1529E
000000000040c5d0 l     F .text	0000000000000043              _ZN4core3ptr105drop_in_place$LT$core..result..Result$LT$alloc..ffi..c_str..CString$C$alloc..ffi..c_str..NulError$GT$$GT$17h69108713beabdcf9E
000000000040c620 l     F .text	0000000000000088              _ZN4core3ptr106drop_in_place$LT$core..result..Result$LT$std..net..socket_addr..SocketAddr$C$std..io..error..Error$GT$$GT$17hee21d33f088b9ac1E
0000000000417670 l     F .text	000000000000000c              _ZN5alloc5alloc8box_free17h34e7aee2e332da96E
0000000000417650 l     F .text	0000000000000010              _ZN5alloc5alloc8box_free17h0168d12a18956d56E
0000000000550260 l       .gcc_except_table	0000000000000000              GCC_except_table119
000000000040c6b0 l     F .text	0000000000000012              _ZN4core3ptr107drop_in_place$LT$alloc..sync..Arc$LT$core..mem..maybe_uninit..MaybeUninit$LT$std..thread..Inner$GT$$GT$$GT$17h10b10bc27e74e54eE
0000000000417510 l     F .text	000000000000001e              _ZN5alloc4sync12Arc$LT$T$GT$9drop_slow17hcc9200173bcc4b24E
000000000040c6d0 l     F .text	00000000000000a4              _ZN4core3ptr107drop_in_place$LT$alloc..vec..Vec$LT$$LP$std..ffi..os_str..OsString$C$std..ffi..os_str..OsString$RP$$GT$$GT$17hb478ce43c44d6752E
000000000040c780 l     F .text	000000000000000f              _ZN4core3ptr109drop_in_place$LT$core..slice..sort..CopyOnDrop$LT$std..backtrace_rs..symbolize..gimli..elf..ParsedSym$GT$$GT$17h3dd4c8597ace3de7E
000000000040c790 l     F .text	0000000000000045              _ZN4core3ptr112drop_in_place$LT$$LP$std..ffi..os_str..OsString$C$core..option..Option$LT$std..ffi..os_str..OsString$GT$$RP$$GT$17h51812a0ef367e12eE
000000000040c7e0 l     F .text	0000000000000004              _ZN4core3ptr115drop_in_place$LT$core..cell..RefMut$LT$core..option..Option$LT$std..sys_common..thread_info..ThreadInfo$GT$$GT$$GT$17h34581f3237e6e982E
000000000040c800 l     F .text	000000000000001e              _ZN4core3ptr118drop_in_place$LT$alloc..vec..Vec$LT$$LP$gimli..common..DebugInfoOffset$C$gimli..common..DebugArangesOffset$RP$$GT$$GT$17hf0ea3425ce645820E
000000000040c820 l     F .text	0000000000000010              _ZN4core3ptr119drop_in_place$LT$addr2line..lazy..LazyCell$LT$core..result..Result$LT$addr2line..Lines$C$gimli..read..Error$GT$$GT$$GT$17h33528b9b855e6a10E
000000000040e7e0 l     F .text	0000000000000108              _ZN4core3ptr86drop_in_place$LT$core..result..Result$LT$addr2line..Lines$C$gimli..read..Error$GT$$GT$17h39326b3e80fe53d4E
000000000040c830 l     F .text	000000000000008e              _ZN4core3ptr123drop_in_place$LT$addr2line..ResUnit$LT$gimli..read..endian_slice..EndianSlice$LT$gimli..endianity..LittleEndian$GT$$GT$$GT$17hbd6db701b6dfb633E
000000000040dbc0 l     F .text	000000000000013e              _ZN4core3ptr55drop_in_place$LT$gimli..read..abbrev..Abbreviations$GT$17h9dae726acada0e49E
000000000040d070 l     F .text	000000000000009d              _ZN4core3ptr181drop_in_place$LT$core..option..Option$LT$gimli..read..line..IncompleteLineProgram$LT$gimli..read..endian_slice..EndianSlice$LT$gimli..endianity..LittleEndian$GT$$C$usize$GT$$GT$$GT$17h86d96b8046a88ff7E
000000000040d110 l     F .text	00000000000000e4              _ZN4core3ptr184drop_in_place$LT$core..result..Result$LT$addr2line..function..Functions$LT$gimli..read..endian_slice..EndianSlice$LT$gimli..endianity..LittleEndian$GT$$GT$$C$gimli..read..Error$GT$$GT$17hafd3cfd7449f5607E
000000000040d220 l     F .text	0000000000000010              _ZN4core3ptr217drop_in_place$LT$addr2line..lazy..LazyCell$LT$core..result..Result$LT$addr2line..function..Functions$LT$gimli..read..endian_slice..EndianSlice$LT$gimli..endianity..LittleEndian$GT$$GT$$C$gimli..read..Error$GT$$GT$$GT$17h47e3550d210e51c0E
000000000055026c l       .gcc_except_table	0000000000000000              GCC_except_table128
000000000040c8c0 l     F .text	0000000000000086              _ZN4core3ptr123drop_in_place$LT$core..result..Result$LT$std..sys..unix..process..process_inner..ExitStatus$C$std..io..error..Error$GT$$GT$17h8b4cc6b2aeaae3d9E
0000000000550278 l       .gcc_except_table	0000000000000000              GCC_except_table129
000000000040c950 l     F .text	0000000000000139              _ZN4core3ptr124drop_in_place$LT$addr2line..ResDwarf$LT$gimli..read..endian_slice..EndianSlice$LT$gimli..endianity..LittleEndian$GT$$GT$$GT$17hffcc59f34a1c7f54E
00000000004174c0 l     F .text	0000000000000045              _ZN5alloc4sync12Arc$LT$T$GT$9drop_slow17h1c46aa544519ee2eE
0000000000417660 l     F .text	0000000000000010              _ZN5alloc5alloc8box_free17h06cf94703863c01aE
000000000040ceb0 l     F .text	000000000000001e              _ZN4core3ptr153drop_in_place$LT$alloc..raw_vec..RawVec$LT$addr2line..ResUnit$LT$gimli..read..endian_slice..EndianSlice$LT$gimli..endianity..LittleEndian$GT$$GT$$GT$$GT$17h830b4286cef7a329E
000000000040cee0 l     F .text	000000000000000f              _ZN4core3ptr154drop_in_place$LT$alloc..sync..Arc$LT$gimli..read..dwarf..Dwarf$LT$gimli..read..endian_slice..EndianSlice$LT$gimli..endianity..LittleEndian$GT$$GT$$GT$$GT$17h5b865c72bb3cfc15E
000000000040d020 l     F .text	000000000000004b              _ZN4core3ptr177drop_in_place$LT$core..option..Option$LT$alloc..boxed..Box$LT$addr2line..ResDwarf$LT$gimli..read..endian_slice..EndianSlice$LT$gimli..endianity..LittleEndian$GT$$GT$$GT$$GT$$GT$17h4eba99041ac76409E
0000000000550284 l       .gcc_except_table	0000000000000000              GCC_except_table130
000000000040ca90 l     F .text	00000000000000f9              _ZN4core3ptr124drop_in_place$LT$alloc..collections..btree..map..BTreeMap$LT$std..ffi..os_str..OsString$C$std..ffi..os_str..OsString$GT$$GT$17h2e3cb8edf7a4dddbE
0000000000414220 l     F .text	00000000000003ae              _ZN5alloc11collections5btree3map25IntoIter$LT$K$C$V$C$A$GT$10dying_next17h92f13f247c6d81e6E
000000000040cb90 l     F .text	00000000000000b9              _ZN4core3ptr124drop_in_place$LT$alloc..collections..btree..map..IntoIter$LT$std..ffi..os_str..OsString$C$std..ffi..os_str..OsString$GT$$GT$17h7e8fa0bf90b8f6b8E
000000000040cc50 l     F .text	0000000000000023              _ZN4core3ptr124drop_in_place$LT$core..option..Option$LT$$LP$alloc..vec..Vec$LT$u8$GT$$C$std..sys..unix..thread..cgroups..Cgroup$RP$$GT$$GT$17hce8d03dabdcb5a66E
000000000040cc80 l     F .text	0000000000000027              _ZN4core3ptr125drop_in_place$LT$addr2line..FrameIter$LT$gimli..read..endian_slice..EndianSlice$LT$gimli..endianity..LittleEndian$GT$$GT$$GT$17hab3c31a11fc5a396E
000000000040ccb0 l     F .text	0000000000000053              _ZN4core3ptr127drop_in_place$LT$std..sync..poison..PoisonError$LT$std..sync..mutex..MutexGuard$LT$std..sync..barrier..BarrierState$GT$$GT$$GT$17he69f1da98064f0bcE
000000000040cd10 l     F .text	000000000000001f              _ZN4core3ptr130drop_in_place$LT$gimli..read..dwarf..Dwarf$LT$gimli..read..endian_slice..EndianSlice$LT$gimli..endianity..LittleEndian$GT$$GT$$GT$17hf30d50fe669cacafE
000000000040cd30 l     F .text	000000000000005a              _ZN4core3ptr131drop_in_place$LT$alloc..boxed..Box$LT$dyn$u20$core..ops..function..FnOnce$LT$$LP$$RP$$GT$$u2b$Output$u20$$u3d$$u20$$LP$$RP$$GT$$GT$17h9805a12885e9131cE
00000000005502a4 l       .gcc_except_table	0000000000000000              GCC_except_table137
000000000040cd90 l     F .text	0000000000000042              _ZN4core3ptr137drop_in_place$LT$gimli..read..dwarf..Unit$LT$gimli..read..endian_slice..EndianSlice$LT$gimli..endianity..LittleEndian$GT$$C$usize$GT$$GT$17hf6fca711718b05a7E
00000000005502b0 l       .gcc_except_table	0000000000000000              GCC_except_table138
000000000040cde0 l     F .text	00000000000000bf              _ZN4core3ptr146drop_in_place$LT$alloc..vec..Vec$LT$addr2line..ResUnit$LT$gimli..read..endian_slice..EndianSlice$LT$gimli..endianity..LittleEndian$GT$$GT$$GT$$GT$17hda0ddb39bf09968dE
00000000005502bc l       .gcc_except_table	0000000000000000              GCC_except_table139
000000000040cea0 l     F .text	0000000000000010              _ZN4core3ptr150drop_in_place$LT$alloc..boxed..Box$LT$alloc..collections..btree..node..LeafNode$LT$std..ffi..os_str..OsString$C$std..ffi..os_str..OsString$GT$$GT$$GT$17hf82ada9b90534ffdE
000000000040ced0 l     F .text	0000000000000010              _ZN4core3ptr154drop_in_place$LT$alloc..boxed..Box$LT$alloc..collections..btree..node..InternalNode$LT$std..ffi..os_str..OsString$C$std..ffi..os_str..OsString$GT$$GT$$GT$17ha00b2a60c0ba58ddE
000000000040cef0 l     F .text	0000000000000006              _ZN4core3ptr155drop_in_place$LT$std..sys..unix..process..process_inner..$LT$impl$u20$std..sys..unix..process..process_common..Command$GT$..posix_spawn..PosixSpawnattr$GT$17h4a824e8c00fcfa40E
000000000040cf00 l     F .text	000000000000001f              _ZN4core3ptr159drop_in_place$LT$alloc..sync..ArcInner$LT$gimli..read..dwarf..Dwarf$LT$gimli..read..endian_slice..EndianSlice$LT$gimli..endianity..LittleEndian$GT$$GT$$GT$$GT$17h1e5b73b3c5427e1aE
000000000040cf20 l     F .text	0000000000000006              _ZN4core3ptr162drop_in_place$LT$std..sys..unix..process..process_inner..$LT$impl$u20$std..sys..unix..process..process_common..Command$GT$..posix_spawn..PosixSpawnFileActions$GT$17h8d6701d66ad78d70E
000000000040cf30 l     F .text	0000000000000020              _ZN4core3ptr164drop_in_place$LT$alloc..vec..Vec$LT$addr2line..function..InlinedFunction$LT$gimli..read..endian_slice..EndianSlice$LT$gimli..endianity..LittleEndian$GT$$GT$$GT$$GT$17h8091f076a67621a2E
000000000040cf50 l     F .text	000000000000001c              _ZN4core3ptr164drop_in_place$LT$alloc..vec..Vec$LT$gimli..read..line..FileEntry$LT$gimli..read..endian_slice..EndianSlice$LT$gimli..endianity..LittleEndian$GT$$C$usize$GT$$GT$$GT$17h9bebe3bb588d9222E
000000000040cf70 l     F .text	0000000000000006              _ZN4core3ptr165drop_in_place$LT$core..iter..adapters..map..Map$LT$std..sys_common..net..LookupHost$C$std..net..socket_addr..resolve_socket_addr..$u7b$$u7b$closure$u7d$$u7d$$GT$$GT$17ha4882b891cc63e84E
000000000040cf80 l     F .text	000000000000001e              _ZN4core3ptr168drop_in_place$LT$alloc..vec..Vec$LT$$RF$addr2line..function..InlinedFunction$LT$gimli..read..endian_slice..EndianSlice$LT$gimli..endianity..LittleEndian$GT$$GT$$GT$$GT$17h0de533bb9de5077eE
000000000040cfa0 l     F .text	0000000000000020              _ZN4core3ptr169drop_in_place$LT$alloc..vec..Vec$LT$gimli..read..unit..AttributeValue$LT$gimli..read..endian_slice..EndianSlice$LT$gimli..endianity..LittleEndian$GT$$C$usize$GT$$GT$$GT$17h2d8f28c42b068d4fE
000000000040cfc0 l     F .text	0000000000000035              _ZN4core3ptr175drop_in_place$LT$std..sys_common..remutex..ReentrantMutexGuard$LT$core..cell..RefCell$LT$std..io..buffered..linewriter..LineWriter$LT$std..io..stdio..StdoutRaw$GT$$GT$$GT$$GT$17h70eb5e1c2e2a3014E
000000000040d000 l     F .text	0000000000000019              _ZN4core3ptr176drop_in_place$LT$alloc..boxed..Box$LT$$u5b$addr2line..function..InlinedFunction$LT$gimli..read..endian_slice..EndianSlice$LT$gimli..endianity..LittleEndian$GT$$GT$$u5d$$GT$$GT$17h4a6dfd476e2ca893E
00000000005502d0 l       .gcc_except_table	0000000000000000              GCC_except_table154
000000000040d200 l     F .text	000000000000001d              _ZN4core3ptr205drop_in_place$LT$$LT$alloc..boxed..Box$LT$dyn$u20$core..error..Error$u2b$core..marker..Send$u2b$core..marker..Sync$GT$$u20$as$u20$core..convert..From$LT$alloc..string..String$GT$$GT$..from..StringError$GT$17hbd0d085c852e373fE
000000000040d230 l     F .text	000000000000004f              _ZN4core3ptr250drop_in_place$LT$$LP$gimli..read..UnitOffset$C$addr2line..lazy..LazyCell$LT$core..result..Result$LT$addr2line..function..Function$LT$gimli..read..endian_slice..EndianSlice$LT$gimli..endianity..LittleEndian$GT$$GT$$C$gimli..read..Error$GT$$GT$$RP$$GT$17hdc18911ad93794a0E
000000000040d280 l     F .text	00000000000000b4              _ZN4core3ptr273drop_in_place$LT$alloc..vec..Vec$LT$$LP$gimli..read..UnitOffset$C$addr2line..lazy..LazyCell$LT$core..result..Result$LT$addr2line..function..Function$LT$gimli..read..endian_slice..EndianSlice$LT$gimli..endianity..LittleEndian$GT$$GT$$C$gimli..read..Error$GT$$GT$$RP$$GT$$GT$17h9a637159f0ed9f14E
000000000040d340 l     F .text	0000000000000093              _ZN4core3ptr275drop_in_place$LT$gimli..read..line..LineRows$LT$gimli..read..endian_slice..EndianSlice$LT$gimli..endianity..LittleEndian$GT$$C$gimli..read..line..IncompleteLineProgram$LT$gimli..read..endian_slice..EndianSlice$LT$gimli..endianity..LittleEndian$GT$$C$usize$GT$$C$usize$GT$$GT$17h32f5e70f5a3e0838E
000000000040d3e0 l     F .text	00000000000000b4              _ZN4core3ptr285drop_in_place$LT$alloc..boxed..Box$LT$$u5b$$LP$gimli..read..UnitOffset$C$addr2line..lazy..LazyCell$LT$core..result..Result$LT$addr2line..function..Function$LT$gimli..read..endian_slice..EndianSlice$LT$gimli..endianity..LittleEndian$GT$$GT$$C$gimli..read..Error$GT$$GT$$RP$$u5d$$GT$$GT$17h50a9d4c4d874cd70E
000000000040d4a0 l     F .text	0000000000000006              _ZN4core3ptr34drop_in_place$LT$std..fs..File$GT$17hbfd22c1c57feab8cE
000000000040d4b0 l     F .text	0000000000000005              _ZN4core3ptr35drop_in_place$LT$std..io..Guard$GT$17h38b3463130776737E
000000000040d4c0 l     F .text	00000000000000c4              _ZN4core3ptr37drop_in_place$LT$std..env..VarsOs$GT$17h77202e09e2cd24bcE
000000000040d590 l     F .text	000000000000003f              _ZN4core3ptr40drop_in_place$LT$std..process..Child$GT$17h2d53a95661298bcdE
000000000040d5d0 l     F .text	0000000000000012              _ZN4core3ptr40drop_in_place$LT$std..thread..Thread$GT$17hc0d17772e5e915a4E
0000000000417580 l     F .text	000000000000004b              _ZN5alloc4sync12Arc$LT$T$GT$9drop_slow17hf5a27cca28ccc0a5E
000000000040d5f0 l     F .text	000000000000005f              _ZN4core3ptr41drop_in_place$LT$std..panicking..Hook$GT$17heaeea635a277cdccE
00000000005502dc l       .gcc_except_table	0000000000000000              GCC_except_table168
000000000040d650 l     F .text	0000000000000082              _ZN4core3ptr42drop_in_place$LT$std..io..error..Error$GT$17h1e79b602271e07bbE
00000000005502e8 l       .gcc_except_table	0000000000000000              GCC_except_table169
000000000040d6e0 l     F .text	0000000000000019              _ZN4core3ptr44drop_in_place$LT$addr2line..LineSequence$GT$17h879b0cd7f266ec96E
000000000040d700 l     F .text	000000000000009b              _ZN4core3ptr44drop_in_place$LT$std..thread..PanicGuard$GT$17hbc3d4a5b89408d6aE
0000000000435ed0 l     F .text	00000000000000f4              _ZN3std2io5Write9write_fmt17h62e5f01a089f48c0E
000000000040e640 l     F .text	0000000000000087              _ZN4core3ptr81drop_in_place$LT$core..result..Result$LT$$LP$$RP$$C$std..io..error..Error$GT$$GT$17he81e80e4ad05d682E
000000000040d7a0 l     F .text	000000000000001f              _ZN4core3ptr46drop_in_place$LT$alloc..vec..Vec$LT$i8$GT$$GT$17h58df17ecf6399aa4E
000000000040d7c0 l     F .text	000000000000001d              _ZN4core3ptr46drop_in_place$LT$alloc..vec..Vec$LT$u8$GT$$GT$17hd964cfe60946d631E
000000000040d7e0 l     F .text	0000000000000052              _ZN4core3ptr46drop_in_place$LT$std..io..stdio..StdinLock$GT$17hcfaa8fe3a99ff485E
000000000040d840 l     F .text	000000000000001e              _ZN4core3ptr47drop_in_place$LT$alloc..ffi..c_str..CString$GT$17ha553409e27da20d6E
000000000040d860 l     F .text	0000000000000035              _ZN4core3ptr47drop_in_place$LT$std..io..stdio..StderrLock$GT$17h340f45242af4bdc0E
000000000040d8a0 l     F .text	00000000000000a8              _ZN4core3ptr47drop_in_place$LT$std..sys..unix..args..Args$GT$17h255581c6e996a0b5E
000000000040d950 l     F .text	000000000000001e              _ZN4core3ptr48drop_in_place$LT$alloc..ffi..c_str..NulError$GT$17h52b28fc039ce264eE
000000000040d970 l     F .text	0000000000000012              _ZN4core3ptr48drop_in_place$LT$std..sys..unix..fs..ReadDir$GT$17h2af4fbbf527f4f76E
00000000004175d0 l     F .text	0000000000000076              _ZN5alloc4sync12Arc$LT$T$GT$9drop_slow17hfc26c50d67e18c1fE
000000000040d990 l     F .text	0000000000000008              _ZN4core3ptr49drop_in_place$LT$std..sys..unix..fd..FileDesc$GT$17hd771585c608c3bedE
000000000040d9a0 l     F .text	0000000000000069              _ZN4core3ptr49drop_in_place$LT$std..sys..unix..fs..DirEntry$GT$17hfdc7ffb43d4e5e34E
00000000005502f4 l       .gcc_except_table	0000000000000000              GCC_except_table181
000000000040da10 l     F .text	0000000000000024              _ZN4core3ptr50drop_in_place$LT$alloc..borrow..Cow$LT$str$GT$$GT$17hf3f9ccfc086ac35dE
000000000040da40 l     F .text	00000000000000dc              _ZN4core3ptr51drop_in_place$LT$std..backtrace..BacktraceFrame$GT$17he1a0e46dcd44f9caE
000000000040db20 l     F .text	0000000000000023              _ZN4core3ptr52drop_in_place$LT$gimli..read..abbrev..Attributes$GT$17hed4ff987e77f4743E
000000000040db50 l     F .text	0000000000000070              _ZN4core3ptr52drop_in_place$LT$std..backtrace..BacktraceSymbol$GT$17h150325f62c925c9bE
0000000000413e70 l     F .text	00000000000003ae              _ZN5alloc11collections5btree3map25IntoIter$LT$K$C$V$C$A$GT$10dying_next17h29a554fbc525ed74E
000000000040dd00 l     F .text	0000000000000004              _ZN4core3ptr565drop_in_place$LT$core..iter..adapters..map..map_fold$LT$isize$C$std..ffi..os_str..OsString$C$$LP$$RP$$C$std..sys..unix..args..imp..clone..$u7b$$u7b$closure$u7d$$u7d$$C$core..iter..traits..iterator..Iterator..for_each..call$LT$std..ffi..os_str..OsString$C$alloc..vec..Vec$LT$std..ffi..os_str..OsString$GT$..extend_trusted$LT$core..iter..adapters..map..Map$LT$core..ops..range..Range$LT$isize$GT$$C$std..sys..unix..args..imp..clone..$u7b$$u7b$closure$u7d$$u7d$$GT$$GT$..$u7b$$u7b$closure$u7d$$u7d$$GT$..$u7b$$u7b$closure$u7d$$u7d$$GT$..$u7b$$u7b$closure$u7d$$u7d$$GT$17haac0f1515db62ea0E
000000000040dd10 l     F .text	000000000000001c              _ZN4core3ptr64drop_in_place$LT$alloc..vec..Vec$LT$addr2line..UnitRange$GT$$GT$17hd48ef7a897ac569aE
000000000040dd30 l     F .text	0000000000000005              _ZN4core3ptr64drop_in_place$LT$std..backtrace_rs..print..BacktraceFrameFmt$GT$17h4c0f610d1788e615E
000000000040dd40 l     F .text	0000000000000088              _ZN4core3ptr65drop_in_place$LT$alloc..vec..Vec$LT$alloc..string..String$GT$$GT$17h2a35dbe2fc9dba37E
000000000040ddd0 l     F .text	0000000000000040              _ZN4core3ptr65drop_in_place$LT$std..backtrace_rs..symbolize..gimli..Library$GT$17hc7df89529c100b57E
000000000040de10 l     F .text	0000000000000117              _ZN4core3ptr65drop_in_place$LT$std..backtrace_rs..symbolize..gimli..Mapping$GT$17h397188331e051417E
000000000040e060 l     F .text	0000000000000021              _ZN4core3ptr69drop_in_place$LT$std..backtrace_rs..symbolize..gimli..elf..Object$GT$17h77c097a68ba93494E
000000000040e040 l     F .text	0000000000000006              _ZN4core3ptr68drop_in_place$LT$std..backtrace_rs..symbolize..gimli..mmap..Mmap$GT$17h0a819a1a04bd24f7E
000000000040e1b0 l     F .text	000000000000009d              _ZN4core3ptr70drop_in_place$LT$std..backtrace_rs..symbolize..gimli..stash..Stash$GT$17hf5c1a6efddeb5f6aE
0000000000550304 l       .gcc_except_table	0000000000000000              GCC_except_table192
000000000040df30 l     F .text	000000000000001e              _ZN4core3ptr66drop_in_place$LT$std..sys..unix..process..process_common..Argv$GT$17hc399bd0216587101E
000000000040df50 l     F .text	0000000000000028              _ZN4core3ptr66drop_in_place$LT$std..sys_common..once..futex..CompletionGuard$GT$17h983afe145dc9d6efE
000000000040df80 l     F .text	0000000000000087              _ZN4core3ptr67drop_in_place$LT$alloc..vec..Vec$LT$addr2line..LineSequence$GT$$GT$17h03189eeee480f323E
000000000040e010 l     F .text	000000000000000f              _ZN4core3ptr67drop_in_place$LT$std..sys..unix..process..process_common..Stdio$GT$17ha75d11d4c1bfbde8E
000000000040e020 l     F .text	0000000000000017              _ZN4core3ptr68drop_in_place$LT$core..option..Option$LT$std..thread..Thread$GT$$GT$17h226a6018b5f5eedcE
000000000040e050 l     F .text	000000000000000c              _ZN4core3ptr68drop_in_place$LT$std..sys..unix..process..process_inner..Process$GT$17h8b66f501be586c7dE
000000000040e090 l     F .text	0000000000000086              _ZN4core3ptr70drop_in_place$LT$alloc..vec..Vec$LT$alloc..ffi..c_str..CString$GT$$GT$17h9937d553268a683dE
000000000040e120 l     F .text	0000000000000088              _ZN4core3ptr70drop_in_place$LT$alloc..vec..Vec$LT$std..ffi..os_str..OsString$GT$$GT$17ha0e1ffb1f5a99f99E
000000000040e280 l     F .text	000000000000005a              _ZN4core3ptr71drop_in_place$LT$std..panicking..rust_panic_without_hook..RewrapBox$GT$17ha40f7f2faaf5e8b8E
0000000000550320 l       .gcc_except_table	0000000000000000              GCC_except_table205
000000000040e2e0 l     F .text	0000000000000020              _ZN4core3ptr71drop_in_place$LT$std..sync..rwlock..RwLockReadGuard$LT$$LP$$RP$$GT$$GT$17h3861433cb0cda253E
000000000040e310 l     F .text	000000000000003f              _ZN4core3ptr72drop_in_place$LT$std..sys..unix..process..process_common..ChildPipes$GT$17h3f0b91ee08e66564E
000000000040e350 l     F .text	000000000000000f              _ZN4core3ptr72drop_in_place$LT$std..sys..unix..process..process_common..ChildStdio$GT$17h2a4d99ea2eeac38bE
000000000040e360 l     F .text	0000000000000030              _ZN4core3ptr72drop_in_place$LT$std..sys..unix..process..process_common..StdioPipes$GT$17hed3f70d4b1f6813eE
000000000040e390 l     F .text	000000000000000e              _ZN4core3ptr73drop_in_place$LT$core..option..Option$LT$std..process..ChildStdin$GT$$GT$17hd026edd27842b1a4E
000000000040e3a0 l     F .text	0000000000000025              _ZN4core3ptr74drop_in_place$LT$core..option..Option$LT$alloc..vec..Vec$LT$u8$GT$$GT$$GT$17hb2581e80e20c09f5E
000000000040e3d0 l     F .text	00000000000000a2              _ZN4core3ptr74drop_in_place$LT$std..sys..unix..process..process_common..CStringArray$GT$17h7b680074d0079116E
000000000040e480 l     F .text	0000000000000023              _ZN4core3ptr75drop_in_place$LT$core..option..Option$LT$alloc..ffi..c_str..CString$GT$$GT$17h6d8b2841bf02c01fE
000000000040e4b0 l     F .text	0000000000000088              _ZN4core3ptr77drop_in_place$LT$alloc..boxed..Box$LT$$u5b$alloc..string..String$u5d$$GT$$GT$17h3d55812bed4845aaE
000000000040e540 l     F .text	000000000000001e              _ZN4core3ptr77drop_in_place$LT$alloc..vec..Vec$LT$std..net..socket_addr..SocketAddr$GT$$GT$17hcf40fa3b1a38cec1E
000000000040e560 l     F .text	000000000000001c              _ZN4core3ptr78drop_in_place$LT$alloc..vec..Vec$LT$gimli..read..line..FileEntryFormat$GT$$GT$17h26d60cd4ce9a0acbE
000000000040e580 l     F .text	0000000000000089              _ZN4core3ptr78drop_in_place$LT$core..result..Result$LT$usize$C$std..io..error..Error$GT$$GT$17h2ea594816608d6c6E
000000000055032c l       .gcc_except_table	0000000000000000              GCC_except_table218
000000000040e610 l     F .text	0000000000000009              _ZN4core3ptr81drop_in_place$LT$$LP$usize$C$std..backtrace_rs..symbolize..gimli..Mapping$RP$$GT$17h6bb1d4a1e9d2b534E
000000000040e620 l     F .text	0000000000000014              _ZN4core3ptr81drop_in_place$LT$alloc..sync..ArcInner$LT$std..sync..mpmc..context..Inner$GT$$GT$17ha5b3609b99e45995E
0000000000550338 l       .gcc_except_table	0000000000000000              GCC_except_table221
000000000040e6d0 l     F .text	0000000000000027              _ZN4core3ptr81drop_in_place$LT$std..io..buffered..bufreader..BufReader$LT$std..fs..File$GT$$GT$17hdce91b609d680159E
000000000040e700 l     F .text	0000000000000056              _ZN4core3ptr82drop_in_place$LT$alloc..sync..ArcInner$LT$std..sys..unix..fs..InnerReadDir$GT$$GT$17hd9e84ca197f7de75E
0000000000550344 l       .gcc_except_table	0000000000000000              GCC_except_table223
000000000040e760 l     F .text	0000000000000012              _ZN4core3ptr83drop_in_place$LT$std..sys_common..thread_info..set..$u7b$$u7b$closure$u7d$$u7d$$GT$17ha1110e1f0a9d4c9aE
000000000040e780 l     F .text	0000000000000040              _ZN4core3ptr84drop_in_place$LT$$LP$std..ffi..os_str..OsString$C$std..ffi..os_str..OsString$RP$$GT$17h2c0929da6be62f8fE
000000000040e7c0 l     F .text	0000000000000017              _ZN4core3ptr84drop_in_place$LT$std..io..stdio..set_output_capture..$u7b$$u7b$closure$u7d$$u7d$$GT$17h3729276f104d2d16E
000000000040e8f0 l     F .text	0000000000000096              _ZN4core3ptr86drop_in_place$LT$core..result..Result$LT$std..fs..File$C$std..io..error..Error$GT$$GT$17h4a7e50472afe5643E
0000000000550350 l       .gcc_except_table	0000000000000000              GCC_except_table228
000000000040e990 l     F .text	0000000000000087              _ZN4core3ptr88drop_in_place$LT$std..io..Write..write_fmt..Adapter$LT$alloc..vec..Vec$LT$u8$GT$$GT$$GT$17h828bacaec6848a71E
000000000055035c l       .gcc_except_table	0000000000000000              GCC_except_table229
000000000040ea20 l     F .text	0000000000000056              _ZN4core3ptr90drop_in_place$LT$std..io..buffered..bufwriter..BufWriter$LT$W$GT$..flush_buf..BufGuard$GT$17h4bcd6cb6e2275fecE
000000000040ea80 l     F .text	0000000000000049              _ZN4core3ptr91drop_in_place$LT$core..result..Result$LT$alloc..string..String$C$std..env..VarError$GT$$GT$17h4c70c34fef8fa7c8E
0000000000550368 l       .gcc_except_table	0000000000000000              GCC_except_table232
000000000040eb80 l     F .text	000000000000008b              _ZN4core3ptr94drop_in_place$LT$core..result..Result$LT$std..time..SystemTime$C$std..io..error..Error$GT$$GT$17hff0aa5cbc8de45bbE
0000000000550378 l       .gcc_except_table	0000000000000000              GCC_except_table233
000000000040ec10 l     F .text	00000000000000db              _ZN4core3ptr95drop_in_place$LT$std..io..buffered..linewriter..LineWriter$LT$std..io..stdio..StdoutRaw$GT$$GT$17h86d7003759d767deE
000000000042efc0 l     F .text	00000000000001a5              _ZN3std2io8buffered9bufwriter18BufWriter$LT$W$GT$9flush_buf17h4670e7a385ffccf0E
0000000000550384 l       .gcc_except_table	0000000000000000              GCC_except_table234
000000000040ecf0 l     F .text	00000000000002b7              _ZN4core3str21_$LT$impl$u20$str$GT$12trim_matches17h7a2d750676b221cfE
000000000040efb0 l     F .text	0000000000000228              _ZN4core3str4iter22SplitInternal$LT$P$GT$4next17h5cd3c3c2f915c4bfE
000000000040f1e0 l     F .text	000000000000008d              _ZN4core3str4iter22SplitInternal$LT$P$GT$9next_back17h0da51f4a53a99cf7E
000000000041cce0 l     F .text	00000000000001c7              _ZN88_$LT$core..str..pattern..CharSearcher$u20$as$u20$core..str..pattern..ReverseSearcher$GT$15next_match_back17h9ad98f7b292eda8fE
00000000004047a0 l     F .text	0000000000000137              _ZN4core3str7pattern13simd_contains28_$u7b$$u7b$closure$u7d$$u7d$17h9dad05b092b59d48E
000000000040f270 l     F .text	00000000000000ec              _ZN4core5array69_$LT$impl$u20$core..fmt..Debug$u20$for$u20$$u5b$T$u3b$$u20$N$u5d$$GT$3fmt17h4f01157e3ca4e380E
000000000040f360 l     F .text	0000000000000003              _ZN4core5error5Error5cause17h6b6146199242ad1cE
000000000040f370 l     F .text	0000000000000003              _ZN4core5error5Error5cause17hcbcbfb454f7b91f5E
000000000040f380 l     F .text	0000000000000003              _ZN4core5error5Error6source17h6da7b0d17dc131adE
000000000040f390 l     F .text	0000000000000003              _ZN4core5error5Error6source17hba782afd3b3383c2E
000000000040f3a0 l     F .text	0000000000000001              _ZN4core5error5Error7provide17h81c4210d4a38b280E
000000000040f3b0 l     F .text	0000000000000001              _ZN4core5error5Error7provide17h8376aba91da0c83aE
000000000040f3c0 l     F .text	000000000000000b              _ZN4core5error5Error7type_id17h1f89fd296dc8baf1E
000000000040f3d0 l     F .text	000000000000000b              _ZN4core5error5Error7type_id17h411a454e0ce42d41E
00000000004048e0 l     F .text	000000000000020c              _ZN4core5slice4sort14break_patterns17h0c5d0173583ea2e7E
0000000000404af0 l     F .text	00000000000002bd              _ZN4core5slice4sort22partial_insertion_sort17h6db987eb177c595eE
000000000040f3e0 l     F .text	0000000000000ecd              _ZN4core5slice4sort7recurse17h80f7b95c44c8bf24E
0000000000404db0 l     F .text	0000000000000289              _ZN4core5slice4sort8heapsort17h1a627736bb7772f0E
00000000005503a0 l       .gcc_except_table	0000000000000000              GCC_except_table250
00000000004102b0 l     F .text	0000000000000033              _ZN4core6result19Result$LT$T$C$E$GT$6unwrap17h28c8a5dacae60350E
0000000000405040 l     F .text	0000000000000056              _ZN4core9panicking13assert_failed17h88866cab4d200092E
00000000004050a0 l     F .text	000000000000004d              _ZN4core9panicking13assert_failed17hbbafa69daecbec3bE
00000000004050f0 l     F .text	0000000000000061              _ZN4core9panicking13assert_failed17hc78e540351465d4bE
00000000004102f0 l     F .text	0000000000000009              _ZN50_$LT$$BP$mut$u20$T$u20$as$u20$core..fmt..Debug$GT$3fmt17hf5c94876c0ada90fE
0000000000410300 l     F .text	0000000000000066              _ZN50_$LT$$LP$U$C$T$RP$$u20$as$u20$core..fmt..Debug$GT$3fmt17hfb54b3b21b1c7e3eE
0000000000410370 l     F .text	00000000000000fb              _ZN50_$LT$$RF$mut$u20$W$u20$as$u20$core..fmt..Write$GT$10write_char17h023da993beab2157E
0000000000410470 l     F .text	00000000000000fb              _ZN50_$LT$$RF$mut$u20$W$u20$as$u20$core..fmt..Write$GT$10write_char17h14e66e2f13505782E
0000000000410570 l     F .text	00000000000000da              _ZN50_$LT$$RF$mut$u20$W$u20$as$u20$core..fmt..Write$GT$10write_char17h1ecdd35f40dd45e8E
0000000000410650 l     F .text	00000000000000da              _ZN50_$LT$$RF$mut$u20$W$u20$as$u20$core..fmt..Write$GT$10write_char17h70d973c813b42590E
0000000000410730 l     F .text	00000000000000fb              _ZN50_$LT$$RF$mut$u20$W$u20$as$u20$core..fmt..Write$GT$10write_char17h75b12b45573696ccE
0000000000410830 l     F .text	00000000000000da              _ZN50_$LT$$RF$mut$u20$W$u20$as$u20$core..fmt..Write$GT$10write_char17h75d3de034d27d4b9E
0000000000410910 l     F .text	000000000000000d              _ZN50_$LT$$RF$mut$u20$W$u20$as$u20$core..fmt..Write$GT$10write_char17h97295d1f2d962d4cE
00000000004119f0 l     F .text	0000000000000123              _ZN58_$LT$alloc..string..String$u20$as$u20$core..fmt..Write$GT$10write_char17he2aff3cf528d04bfE
0000000000410920 l     F .text	00000000000000fb              _ZN50_$LT$$RF$mut$u20$W$u20$as$u20$core..fmt..Write$GT$10write_char17ha8d3b8571dc2dcfcE
0000000000410a20 l     F .text	000000000000000d              _ZN50_$LT$$RF$mut$u20$W$u20$as$u20$core..fmt..Write$GT$10write_char17hbf5a948b6c7a9df4E
0000000000410a30 l     F .text	00000000000000da              _ZN50_$LT$$RF$mut$u20$W$u20$as$u20$core..fmt..Write$GT$10write_char17hfe5b4c2935969aa2E
0000000000410b10 l     F .text	0000000000000042              _ZN50_$LT$$RF$mut$u20$W$u20$as$u20$core..fmt..Write$GT$9write_fmt17h22873ce66e26cd17E
0000000000410b60 l     F .text	0000000000000042              _ZN50_$LT$$RF$mut$u20$W$u20$as$u20$core..fmt..Write$GT$9write_fmt17h3c8a0594979193a2E
0000000000410bb0 l     F .text	0000000000000042              _ZN50_$LT$$RF$mut$u20$W$u20$as$u20$core..fmt..Write$GT$9write_fmt17h4a44ebb939015613E
0000000000410c00 l     F .text	0000000000000042              _ZN50_$LT$$RF$mut$u20$W$u20$as$u20$core..fmt..Write$GT$9write_fmt17h4f1c371561b903c0E
0000000000410c50 l     F .text	0000000000000042              _ZN50_$LT$$RF$mut$u20$W$u20$as$u20$core..fmt..Write$GT$9write_fmt17h9181742c3048472aE
0000000000410ca0 l     F .text	0000000000000042              _ZN50_$LT$$RF$mut$u20$W$u20$as$u20$core..fmt..Write$GT$9write_fmt17h99d4a6b1f9a73edaE
0000000000410cf0 l     F .text	0000000000000042              _ZN50_$LT$$RF$mut$u20$W$u20$as$u20$core..fmt..Write$GT$9write_fmt17habfe8d82018ca67dE
0000000000410d40 l     F .text	0000000000000042              _ZN50_$LT$$RF$mut$u20$W$u20$as$u20$core..fmt..Write$GT$9write_fmt17hc1f47f9c9172a296E
0000000000410d90 l     F .text	0000000000000042              _ZN50_$LT$$RF$mut$u20$W$u20$as$u20$core..fmt..Write$GT$9write_fmt17hea68350b584a5d93E
0000000000410de0 l     F .text	0000000000000042              _ZN50_$LT$$RF$mut$u20$W$u20$as$u20$core..fmt..Write$GT$9write_fmt17hfe2cc50c6d70231eE
0000000000410e30 l     F .text	0000000000000008              _ZN50_$LT$$RF$mut$u20$W$u20$as$u20$core..fmt..Write$GT$9write_str17h05df090b6aa8315dE
0000000000410e40 l     F .text	000000000000003e              _ZN50_$LT$$RF$mut$u20$W$u20$as$u20$core..fmt..Write$GT$9write_str17h0b223b32c6138d3eE
0000000000410e80 l     F .text	000000000000003e              _ZN50_$LT$$RF$mut$u20$W$u20$as$u20$core..fmt..Write$GT$9write_str17h2f09e252cf709474E
0000000000410ec0 l     F .text	0000000000000008              _ZN50_$LT$$RF$mut$u20$W$u20$as$u20$core..fmt..Write$GT$9write_str17h5744a3baf151f598E
0000000000410ed0 l     F .text	0000000000000061              _ZN50_$LT$$RF$mut$u20$W$u20$as$u20$core..fmt..Write$GT$9write_str17h5dabf9104603219aE
0000000000410f40 l     F .text	000000000000003e              _ZN50_$LT$$RF$mut$u20$W$u20$as$u20$core..fmt..Write$GT$9write_str17h7352e82b855fbcb0E
0000000000410f80 l     F .text	0000000000000008              _ZN50_$LT$$RF$mut$u20$W$u20$as$u20$core..fmt..Write$GT$9write_str17hd3d25ecd916a562fE
0000000000410f90 l     F .text	000000000000003e              _ZN50_$LT$$RF$mut$u20$W$u20$as$u20$core..fmt..Write$GT$9write_str17heb1d36fca0e8403bE
0000000000410fd0 l     F .text	0000000000000008              _ZN50_$LT$$RF$mut$u20$W$u20$as$u20$core..fmt..Write$GT$9write_str17hf1874c858aec77e4E
0000000000410fe0 l     F .text	0000000000000065              _ZN50_$LT$$RF$mut$u20$W$u20$as$u20$core..fmt..Write$GT$9write_str17hf5cc6813320d37cbE
0000000000411050 l     F .text	0000000000000973              _ZN55_$LT$$RF$str$u20$as$u20$core..str..pattern..Pattern$GT$15is_contained_in17h4454fff99a728858E
00000000004119d0 l     F .text	0000000000000014              _ZN58_$LT$alloc..string..String$u20$as$u20$core..fmt..Debug$GT$3fmt17ha99b0273e26d0357E
0000000000417f30 l     F .text	00000000000000c4              _ZN5alloc7raw_vec19RawVec$LT$T$C$A$GT$16reserve_for_push17hc993e0612624f05dE
0000000000411b20 l     F .text	000000000000005f              _ZN58_$LT$alloc..string..String$u20$as$u20$core..fmt..Write$GT$9write_str17ha18fd60a2b04bc91E
0000000000411b80 l     F .text	0000000000001165              _ZN5alloc11collections5btree3map25BTreeMap$LT$K$C$V$C$A$GT$6insert17h4d1a9e73fea3124aE
00000000005503b4 l       .gcc_except_table	0000000000000000              GCC_except_table292
0000000000412cf0 l     F .text	000000000000117a              _ZN5alloc11collections5btree3map25BTreeMap$LT$K$C$V$C$A$GT$6insert17hf22ea9f051ae97acE
0000000000550420 l       .gcc_except_table	0000000000000000              GCC_except_table293
000000000055048c l       .gcc_except_table	0000000000000000              GCC_except_table294
00000000005504ac l       .gcc_except_table	0000000000000000              GCC_except_table295
00000000004145d0 l     F .text	000000000000039d              _ZN5alloc11collections5btree4node29BalancingContext$LT$K$C$V$GT$15bulk_steal_left17h4820a2fee120c694E
0000000000414970 l     F .text	000000000000039d              _ZN5alloc11collections5btree4node29BalancingContext$LT$K$C$V$GT$15bulk_steal_left17ha92305f732bc7539E
0000000000414d10 l     F .text	0000000000000496              _ZN5alloc11collections5btree4node29BalancingContext$LT$K$C$V$GT$16bulk_steal_right17h56aea4fe1e8e136bE
00000000004151b0 l     F .text	0000000000000496              _ZN5alloc11collections5btree4node29BalancingContext$LT$K$C$V$GT$16bulk_steal_right17he817facb28317616E
0000000000415650 l     F .text	00000000000003ef              _ZN5alloc11collections5btree4node29BalancingContext$LT$K$C$V$GT$21merge_tracking_parent17h140f675918e267d7E
0000000000415a40 l     F .text	00000000000003ef              _ZN5alloc11collections5btree4node29BalancingContext$LT$K$C$V$GT$21merge_tracking_parent17h1f5f1c6cc185e366E
0000000000415e30 l     F .text	0000000000000467              _ZN5alloc11collections5btree4node29BalancingContext$LT$K$C$V$GT$25merge_tracking_child_edge17h414e4fd91c0ef894E
00000000004162a0 l     F .text	0000000000000467              _ZN5alloc11collections5btree4node29BalancingContext$LT$K$C$V$GT$25merge_tracking_child_edge17hd47fd806c8d48590E
0000000000416710 l     F .text	0000000000000685              _ZN5alloc11collections5btree6remove259_$LT$impl$u20$alloc..collections..btree..node..Handle$LT$alloc..collections..btree..node..NodeRef$LT$alloc..collections..btree..node..marker..Mut$C$K$C$V$C$alloc..collections..btree..node..marker..Leaf$GT$$C$alloc..collections..btree..node..marker..KV$GT$$GT$14remove_leaf_kv17h04d6210e6bdd941eE
00000000005504cc l       .gcc_except_table	0000000000000000              GCC_except_table304
0000000000416da0 l     F .text	0000000000000685              _ZN5alloc11collections5btree6remove259_$LT$impl$u20$alloc..collections..btree..node..Handle$LT$alloc..collections..btree..node..NodeRef$LT$alloc..collections..btree..node..marker..Mut$C$K$C$V$C$alloc..collections..btree..node..marker..Leaf$GT$$C$alloc..collections..btree..node..marker..KV$GT$$GT$14remove_leaf_kv17hbc8bc523e8cf3866E
00000000005504f4 l       .gcc_except_table	0000000000000000              GCC_except_table305
0000000000417430 l     F .text	000000000000008a              _ZN5alloc3vec16Vec$LT$T$C$A$GT$16into_boxed_slice17h85c48bcb4fd81e4bE
000000000055051c l       .gcc_except_table	0000000000000000              GCC_except_table306
0000000000550530 l       .gcc_except_table	0000000000000000              GCC_except_table311
0000000000417680 l     F .text	0000000000000010              _ZN5alloc5alloc8box_free17h7609bb99dd95ef95E
0000000000417690 l     F .text	0000000000000071              _ZN5alloc5slice64_$LT$impl$u20$alloc..borrow..ToOwned$u20$for$u20$$u5b$T$u5d$$GT$8to_owned17h70d0a7459b178473E
0000000000417710 l     F .text	0000000000000087              _ZN5alloc7raw_vec11finish_grow17h08e1bf94b4f3d21bE
00000000004177a0 l     F .text	00000000000000db              _ZN5alloc7raw_vec19RawVec$LT$T$C$A$GT$16reserve_for_push17h1345b299c990eee9E
0000000000417880 l     F .text	00000000000000cc              _ZN5alloc7raw_vec19RawVec$LT$T$C$A$GT$16reserve_for_push17h2685a25dad446674E
0000000000417950 l     F .text	00000000000000db              _ZN5alloc7raw_vec19RawVec$LT$T$C$A$GT$16reserve_for_push17h274212ef5539e0d6E
0000000000417a30 l     F .text	00000000000000cf              _ZN5alloc7raw_vec19RawVec$LT$T$C$A$GT$16reserve_for_push17h2b0ac053d1246598E
0000000000417b00 l     F .text	00000000000000cd              _ZN5alloc7raw_vec19RawVec$LT$T$C$A$GT$16reserve_for_push17h30e87f0ebc8f5f0cE
0000000000417bd0 l     F .text	00000000000000da              _ZN5alloc7raw_vec19RawVec$LT$T$C$A$GT$16reserve_for_push17h549233e8f1ef148fE
0000000000417cb0 l     F .text	00000000000000d5              _ZN5alloc7raw_vec19RawVec$LT$T$C$A$GT$16reserve_for_push17h5c01fc06409d8cc1E
0000000000417d90 l     F .text	00000000000000cc              _ZN5alloc7raw_vec19RawVec$LT$T$C$A$GT$16reserve_for_push17h75769d82ad4ae03eE
0000000000417e60 l     F .text	00000000000000cc              _ZN5alloc7raw_vec19RawVec$LT$T$C$A$GT$16reserve_for_push17ha2317a0abb0e0c46E
0000000000418000 l     F .text	00000000000000cc              _ZN5alloc7raw_vec19RawVec$LT$T$C$A$GT$16reserve_for_push17hd3d84ce3c9f9d9b1E
00000000004180d0 l     F .text	00000000000000db              _ZN5alloc7raw_vec19RawVec$LT$T$C$A$GT$16reserve_for_push17hdc27e961eeaa86a3E
0000000000405160 l     F .text	00000000000000db              _ZN5alloc7raw_vec19RawVec$LT$T$C$A$GT$7reserve21do_reserve_and_handle17h2364ab7d913af2beE
0000000000405240 l     F .text	00000000000000cc              _ZN5alloc7raw_vec19RawVec$LT$T$C$A$GT$7reserve21do_reserve_and_handle17h27358a38388bc4ccE
0000000000405310 l     F .text	00000000000000cc              _ZN5alloc7raw_vec19RawVec$LT$T$C$A$GT$7reserve21do_reserve_and_handle17h7de18796ac881690E
00000000004181b0 l     F .text	0000000000000393              _ZN5gimli4read4line15FileEntryFormat5parse17hfc771d33bb2f1b03E
000000000055053c l       .gcc_except_table	0000000000000000              GCC_except_table334
0000000000418550 l     F .text	0000000000000caa              _ZN5gimli4read4line15parse_attribute17h51d00ba699ae86f8E
0000000000419200 l     F .text	0000000000001680              _ZN5gimli4read4unit15parse_attribute17h9d651c43346b513eE
000000000041b6c0 l     F .text	00000000000001c6              _ZN5gimli4read6reader6Reader12read_address17h3a5a3555b6ba0404E
000000000041b890 l     F .text	00000000000001dd              _ZN5gimli4read6reader6Reader17read_sized_offset17h1a753662bf5d0625E
000000000041ba70 l     F .text	0000000000000088              _ZN5gimli4read6reader6Reader8read_u6417h8b7d8e842e2f5fadE
000000000041b5c0 l     F .text	00000000000000f7              _ZN5gimli4read6reader6Reader11read_offset17hddbfbb3abafbc627E
000000000041a880 l     F .text	000000000000054e              _ZN5gimli4read4unit15skip_attributes17he55e6ae27493a719E
000000000041add0 l     F .text	0000000000000444              _ZN5gimli4read4unit18Attribute$LT$R$GT$5value17h6ae2280f9017c652E
000000000041b220 l     F .text	0000000000000056              _ZN5gimli4read4unit32AttributeValue$LT$R$C$Offset$GT$11udata_value17h199326ec572ad198E
000000000041b280 l     F .text	0000000000000067              _ZN5gimli4read4unit32AttributeValue$LT$R$C$Offset$GT$8u8_value17h55ff13e1ccc688c7E
000000000041b2f0 l     F .text	0000000000000054              _ZN5gimli4read4unit32AttributeValue$LT$R$C$Offset$GT$9u16_value17h32b743cd508796e5E
000000000041ceb0 l     F .text	000000000000004c              _ZN90_$LT$gimli..read..unit..AttributeValue$LT$R$C$Offset$GT$$u20$as$u20$core..clone..Clone$GT$5clone17h0210ef4feeebb293E
000000000041b350 l     F .text	000000000000026e              _ZN5gimli4read5dwarf14Dwarf$LT$R$GT$11attr_string17hb6d20f2974feef5fE
000000000041bb00 l     F .text	0000000000000043              _ZN5gimli4read7Section4load17he58aec074468fc19E
000000000045d5f0 l     F .text	00000000000003e1              _ZN3std12backtrace_rs9symbolize5gimli3elf6Object7section17h7c12d85a5d3f2ee9E
000000000041bb50 l     F .text	000000000000036c              _ZN5gimli4read7aranges30ArangeHeader$LT$R$C$Offset$GT$5parse17h1cc8fd85eea7562bE
000000000041bec0 l     F .text	0000000000000b11              _ZN5gimli4read8rnglists20RngListIter$LT$R$GT$4next17hd2c2e80e5212d3c9E
000000000041c9e0 l     F .text	0000000000000014              _ZN60_$LT$alloc..string..String$u20$as$u20$core..fmt..Display$GT$3fmt17h231221aa51418f32E
000000000041ca00 l     F .text	0000000000000071              _ZN65_$LT$alloc..vec..Vec$LT$T$C$A$GT$$u20$as$u20$core..fmt..Debug$GT$3fmt17hc462d74e17cba7e4E
000000000041ca80 l     F .text	0000000000000045              _ZN66_$LT$core..option..Option$LT$T$GT$$u20$as$u20$core..fmt..Debug$GT$3fmt17h01b4b8857a828a58E
000000000041cad0 l     F .text	0000000000000044              _ZN66_$LT$core..option..Option$LT$T$GT$$u20$as$u20$core..fmt..Debug$GT$3fmt17h182ae8586298fb62E
000000000041cb20 l     F .text	0000000000000044              _ZN66_$LT$core..option..Option$LT$T$GT$$u20$as$u20$core..fmt..Debug$GT$3fmt17h4ad3355e86eef331E
000000000041cb70 l     F .text	0000000000000044              _ZN66_$LT$core..option..Option$LT$T$GT$$u20$as$u20$core..fmt..Debug$GT$3fmt17hd2d5d9e5f9a49208E
000000000041cbc0 l     F .text	000000000000005c              _ZN67_$LT$core..num..nonzero..NonZeroI32$u20$as$u20$core..fmt..Debug$GT$3fmt17haf6320d4e8ee03afE
000000000041cc20 l     F .text	0000000000000057              _ZN70_$LT$core..result..Result$LT$T$C$E$GT$$u20$as$u20$core..fmt..Debug$GT$3fmt17h9d0ac7221a8ea523E
000000000041cc80 l     F .text	0000000000000054              _ZN70_$LT$core..result..Result$LT$T$C$E$GT$$u20$as$u20$core..fmt..Debug$GT$3fmt17hbeb918a30ba01472E
000000000041cf00 l     F .text	0000000000002b25              _ZN9addr2line16ResUnit$LT$R$GT$11parse_lines17h9c5487d2143c170eE
00000000004ef9c0 l     O .rodata	0000000000000039              str.5
000000000041fa30 l     F .text	0000000000000453              _ZN9addr2line16ResUnit$LT$R$GT$11render_file17h27c70180f2f1cf8fE
00000000004ef3d0 l     O .rodata	0000000000000019              str.4
0000000000550558 l       .gcc_except_table	0000000000000000              GCC_except_table361
0000000000550628 l       .gcc_except_table	0000000000000000              GCC_except_table362
000000000041fe90 l     F .text	0000000000005940              _ZN9addr2line17ResDwarf$LT$R$GT$5parse17hc0c55774718aef09E
0000000000550650 l       .gcc_except_table	0000000000000000              GCC_except_table363
00000000004257d0 l     F .text	000000000000043c              _ZN9addr2line8function10name_entry17h2fb8df2a0122d63cE
0000000000426b10 l     F .text	00000000000001ba              _ZN9addr2line8function9name_attr17h42405a1461e0e0ccE
0000000000425c10 l     F .text	0000000000000ef9              _ZN9addr2line8function17Function$LT$R$GT$14parse_children17hf13f85967532a96aE
0000000000426cd0 l     F .text	0000000000000032              _ZN3std2rt7cleanup17h9a343f1edbf9bd69E
00000000008034e0 l     O .bss	0000000000000004              _ZN3std2rt7cleanup7CLEANUP17he79764e8c0fc3ee3E
0000000000408020 l     F .text	000000000000046b              _ZN3std10sys_common4once5futex4Once4call17hd9a8428a03d7cb2cE
0000000000803618 l     O .bss	0000000000000001              _ZN3std3sys4unix27UNIX_SIGPIPE_ATTR_SPECIFIED17h87b3f9b2bf383b68E.0
0000000000450930 l     F .text	00000000000002d3              _ZN3std3sys4unix14stack_overflow3imp14signal_handler17hde4443f943bb8de2E
0000000000803608 l     O .bss	0000000000000001              _ZN3std3sys4unix14stack_overflow3imp13NEED_ALTSTACK17h93c4945851bd0306E.0
0000000000450c10 l     F .text	00000000000001ee              _ZN3std3sys4unix14stack_overflow3imp12make_handler17h972b69a6ea300597E
0000000000803600 l     O .bss	0000000000000008              _ZN3std3sys4unix14stack_overflow3imp13MAIN_ALTSTACK17h149e1573da37f732E.0
0000000000803610 l     O .bss	0000000000000008              _ZN3std3sys4unix6thread5guard9PAGE_SIZE17h9baa9710b2a94d5dE.0
0000000000000080 l       .tbss	0000000000000008              _ZN3std9panicking11panic_count17LOCAL_PANIC_COUNT7__getit3VAL17h9403c2e72411ebaaE.0
00000000004274d0 l     F .text	000000000000009b              _ZN3std2rt19lang_start_internal28_$u7b$$u7b$closure$u7d$$u7d$17h2e3bd5720c70662fE
00000000005507f8 l       .gcc_except_table	0000000000000000              GCC_except_table368
00000000004275c0 l     F .text	00000000000000ed              _ZN3std6thread5local4fast12Key$LT$T$GT$14try_initialize17h7d586e047ef188fcE
0000000000000048 l       .tbss	0000000000000018              _ZN3std2io5stdio14OUTPUT_CAPTURE7__getit5__KEY17h25453ab5e9a632e4E
00000000004276e0 l     F .text	0000000000000029              _ZN3std6thread5local4fast13destroy_value17h89445fae08051292E
00000000004276b0 l     F .text	0000000000000030              _ZN3std6thread5local4fast12Key$LT$T$GT$14try_initialize17hd16565876ed5697fE
0000000000445410 l     F .text	00000000000000f2              _ZN3std10sys_common11thread_info14current_thread17hef02c4a24778ea17E
0000000000550850 l       .gcc_except_table	0000000000000000              GCC_except_table387
000000000055086c l       .gcc_except_table	0000000000000000              GCC_except_table389
00000000004054b0 l     F .text	000000000000004b              _ZN3std6thread8ThreadId3new9exhausted17hf302252e96475d9cE
00000000008035d0 l     O .bss	0000000000000008              _ZN3std6thread8ThreadId3new7COUNTER17h0c76705831c3a1b1E
0000000000550888 l       .gcc_except_table	0000000000000000              GCC_except_table393
000000000044a610 l     F .text	0000000000000161              _ZN3std3sys4unix2fs4File6open_c17h3ca078397fdcbb98E
000000000042d5a0 l     F .text	0000000000000149              _ZN3std2fs24buffer_capacity_required17hdbd841950005f88fE
0000000000435120 l     F .text	000000000000021c              _ZN3std2io19default_read_to_end17h64f163145cefa0f3E
0000000000406e60 l     F .text	00000000000000c6              _ZN3std3sys6common14small_c_string24run_with_cstr_allocating17hea75c65ae858632aE
0000000000451560 l     F .text	00000000000003b0              _ZN3std3sys4unix6thread7cgroups8quota_v128_$u7b$$u7b$closure$u7d$$u7d$17hb55d337461050a75E
00000000005508a4 l       .gcc_except_table	0000000000000000              GCC_except_table398
0000000000407560 l     F .text	0000000000000390              _ZN3std10sys_common4once5futex4Once4call17h027cba8bd0b681e3E
0000000000550994 l       .gcc_except_table	0000000000000000              GCC_except_table402
00000000008034e8 l     O .bss	0000000000000008              _ZN3std9backtrace9Backtrace7enabled7ENABLED17hb6fa94788a593f4cE.0
000000000042a3f0 l     F .text	000000000000019d              _ZN3std9backtrace9Backtrace6create17h95c4cf4184e35dc3E
00000000005509b0 l       .gcc_except_table	0000000000000000              GCC_except_table403
0000000000803590 l     O .bss	0000000000000008              _ZN3std10sys_common9backtrace4lock4LOCK17hb4554d7e11255184E
0000000000455f70 l     F .text	0000000000000036              _ZN3std12backtrace_rs9backtrace9libunwind5trace8trace_fn17hb20ac0c7602c95b1E
00000000005509c8 l       .gcc_except_table	0000000000000000              GCC_except_table407
0000000000447c50 l     F .text	0000000000000603              _ZN3std12backtrace_rs5print17BacktraceFrameFmt21print_raw_with_column17hc10a6440aa3bece3E
00000000005509d8 l       .gcc_except_table	0000000000000000              GCC_except_table410
0000000000447a60 l     F .text	00000000000000dc              _ZN3std12backtrace_rs9symbolize6Symbol4name17h6c0f1ab96282126aE
0000000000550a00 l       .gcc_except_table	0000000000000000              GCC_except_table411
0000000000550a34 l       .gcc_except_table	0000000000000000              GCC_except_table413
00000000008035ec l     O .bss	000000000000000c              _ZN3std3sys4unix2os8ENV_LOCK17hafa915cfc04462c0E
0000000000550a54 l       .gcc_except_table	0000000000000000              GCC_except_table415
0000000000550a9c l       .gcc_except_table	0000000000000000              GCC_except_table416
0000000000406a30 l     F .text	0000000000000140              _ZN3std3sys6common14small_c_string24run_with_cstr_allocating17hced8e6ebfd603474E
0000000000550abc l       .gcc_except_table	0000000000000000              GCC_except_table423
000000000044d930 l     F .text	0000000000000105              _ZN3std3sys4unix2os6setenv28_$u7b$$u7b$closure$u7d$$u7d$28_$u7b$$u7b$closure$u7d$$u7d$17h703ae0545cc5f034E
0000000000406140 l     F .text	0000000000000126              _ZN3std3sys6common14small_c_string24run_with_cstr_allocating17h708d60a0ced68ce3E
0000000000405a40 l     F .text	00000000000000a8              _ZN3std3sys6common14small_c_string24run_with_cstr_allocating17h0aa480f91c297a5bE
0000000000550ad4 l       .gcc_except_table	0000000000000000              GCC_except_table426
000000000044da40 l     F .text	00000000000000fb              _ZN3std3sys4unix2os8unsetenv28_$u7b$$u7b$closure$u7d$$u7d$17heaf13a99a3a5fe91E
0000000000406c60 l     F .text	00000000000000a2              _ZN3std3sys6common14small_c_string24run_with_cstr_allocating17hdbd3e98931b77ed0E
0000000000550af4 l       .gcc_except_table	0000000000000000              GCC_except_table427
0000000000550b10 l       .gcc_except_table	0000000000000000              GCC_except_table433
000000000044b230 l     F .text	00000000000001ba              _ZN3std3sys4unix2fs8readlink28_$u7b$$u7b$closure$u7d$$u7d$17hb993656186a13bf1E
00000000008035e0 l     O .bss	0000000000000008              _ZN3std3sys4unix4args3imp4ARGV17haae4539f69118fc2E.0
00000000008035d8 l     O .bss	0000000000000008              _ZN3std3sys4unix4args3imp4ARGC17h1fca4ca77e345c16E.0
0000000000550b38 l       .gcc_except_table	0000000000000000              GCC_except_table437
0000000000550b60 l       .gcc_except_table	0000000000000000              GCC_except_table438
0000000000550b74 l       .gcc_except_table	0000000000000000              GCC_except_table442
0000000000550b88 l       .gcc_except_table	0000000000000000              GCC_except_table453
0000000000550ba4 l       .gcc_except_table	0000000000000000              GCC_except_table454
0000000000550bbc l       .gcc_except_table	0000000000000000              GCC_except_table455
0000000000550bd0 l       .gcc_except_table	0000000000000000              GCC_except_table458
0000000000452830 l     F .text	00000000000002b1              _ZN3std3sys4unix2fs9try_statx17h990a6461f30ed2d4E
0000000000550bec l       .gcc_except_table	0000000000000000              GCC_except_table464
0000000000550c04 l       .gcc_except_table	0000000000000000              GCC_except_table469
0000000000435590 l     F .text	000000000000021e              _ZN3std2io19default_read_to_end17h8d06899a3cd75f5dE
0000000000550c2c l       .gcc_except_table	0000000000000000              GCC_except_table477
0000000000550c54 l       .gcc_except_table	0000000000000000              GCC_except_table500
000000000044a4f0 l     F .text	0000000000000114              _ZN3std3sys4unix2fs8DirEntry8metadata17h0f5567b9d7887800E
0000000000550ca0 l       .gcc_except_table	0000000000000000              GCC_except_table516
000000000042e9a0 l     F .text	00000000000003f6              _ZN3std2fs10DirBuilder14create_dir_all17h3257a5ffd40b290cE
0000000000406270 l     F .text	000000000000009e              _ZN3std3sys6common14small_c_string24run_with_cstr_allocating17h84ab794255a32057E
000000000043fdd0 l     F .text	000000000000032a              _ZN62_$LT$std..path..Components$u20$as$u20$core..cmp..PartialEq$GT$2eq17hfffab2a392bba721E
0000000000550cb4 l       .gcc_except_table	0000000000000000              GCC_except_table521
000000000042edb0 l     F .text	0000000000000205              _ZN82_$LT$std..io..buffered..bufreader..BufReader$LT$R$GT$$u20$as$u20$std..io..Read$GT$4read17had967a8dc71c1a8cE
0000000000550cf4 l       .gcc_except_table	0000000000000000              GCC_except_table524
0000000000405500 l     F .text	00000000000000dc              _ZN3std2io8buffered9bufwriter18BufWriter$LT$W$GT$10write_cold17hf84d60b975ee3520E
00000000004055e0 l     F .text	0000000000000113              _ZN3std2io8buffered9bufwriter18BufWriter$LT$W$GT$14write_all_cold17h311bd606582f06d0E
0000000000431420 l     F .text	00000000000000a3              _ZN3std2io5stdio12handle_ebadf17h6e7e8eab2aeb5d2fE
000000000042f360 l     F .text	00000000000005eb              _ZN93_$LT$std..io..buffered..linewritershim..LineWriterShim$LT$W$GT$$u20$as$u20$std..io..Write$GT$14write_vectored17h4106a5413dd1f284E
000000000042fa10 l     F .text	0000000000000127              _ZN3std2io5error5Error3new17h92f928e3973e6a1bE
0000000000550d14 l       .gcc_except_table	0000000000000000              GCC_except_table541
0000000000550d3c l       .gcc_except_table	0000000000000000              GCC_except_table542
0000000000550d4c l       .gcc_except_table	0000000000000000              GCC_except_table543
0000000000550d64 l       .gcc_except_table	0000000000000000              GCC_except_table544
00000000004304c0 l     F .text	000000000000006a              _ZN3std2io5impls74_$LT$impl$u20$std..io..Write$u20$for$u20$alloc..vec..Vec$LT$u8$C$A$GT$$GT$5write17h3822eb2865c8050dE
0000000000430530 l     F .text	00000000000001a1              _ZN3std2io5impls74_$LT$impl$u20$std..io..Write$u20$for$u20$alloc..vec..Vec$LT$u8$C$A$GT$$GT$14write_vectored17h52075bb8ddc51005E
00000000004306e0 l     F .text	0000000000000003              _ZN3std2io5impls74_$LT$impl$u20$std..io..Write$u20$for$u20$alloc..vec..Vec$LT$u8$C$A$GT$$GT$17is_write_vectored17h5af6c1e8d8473f5aE
00000000004306f0 l     F .text	000000000000005f              _ZN3std2io5impls74_$LT$impl$u20$std..io..Write$u20$for$u20$alloc..vec..Vec$LT$u8$C$A$GT$$GT$9write_all17h51d9aebc99a533c7E
0000000000430750 l     F .text	0000000000000003              _ZN3std2io5impls74_$LT$impl$u20$std..io..Write$u20$for$u20$alloc..vec..Vec$LT$u8$C$A$GT$$GT$5flush17h19a7047b22a14b92E
0000000000435340 l     F .text	000000000000024f              _ZN3std2io19default_read_to_end17h830d5b6d5076c610E
0000000000550d7c l       .gcc_except_table	0000000000000000              GCC_except_table558
0000000000550d90 l       .gcc_except_table	0000000000000000              GCC_except_table559
0000000000550db8 l       .gcc_except_table	0000000000000000              GCC_except_table564
0000000000435c20 l     F .text	00000000000002ac              _ZN3std2io5Write18write_all_vectored17hafd6061b8887097aE
0000000000550dd8 l       .gcc_except_table	0000000000000000              GCC_except_table571
00000000008034f8 l     O .bss	0000000000000038              _ZN3std2io5stdio5stdin8INSTANCE17h60bbc7016460234cE
0000000000405890 l     F .text	0000000000000043              _ZN3std4sync9once_lock17OnceLock$LT$T$GT$10initialize17hce681be4d16a63edE
0000000000550de4 l       .gcc_except_table	0000000000000000              GCC_except_table574
0000000000550df4 l       .gcc_except_table	0000000000000000              GCC_except_table577
0000000000550e04 l       .gcc_except_table	0000000000000000              GCC_except_table578
0000000000550e14 l       .gcc_except_table	0000000000000000              GCC_except_table579
0000000000550e30 l       .gcc_except_table	0000000000000000              GCC_except_table580
0000000000550e40 l       .gcc_except_table	0000000000000000              GCC_except_table581
0000000000550e50 l       .gcc_except_table	0000000000000000              GCC_except_table586
0000000000550e98 l       .gcc_except_table	0000000000000000              GCC_except_table587
0000000000436560 l     F .text	0000000000000347              _ZN3std2io10read_until17h5c215eda078ea2b2E
0000000000550eb0 l       .gcc_except_table	0000000000000000              GCC_except_table591
0000000000803530 l     O .bss	0000000000000040              _ZN3std2io5stdio6STDOUT17h256ac56fcf0798deE
00000000004057f0 l     F .text	0000000000000043              _ZN3std4sync9once_lock17OnceLock$LT$T$GT$10initialize17h211617b45d6d803fE
000000000000007b l       .tbss	0000000000000001              _ZN3std10sys_common7remutex25current_thread_unique_ptr1X7__getit3VAL17h9d3ca209e7af740bE
0000000000550ecc l       .gcc_except_table	0000000000000000              GCC_except_table602
0000000000550edc l       .gcc_except_table	0000000000000000              GCC_except_table603
0000000000550ef4 l       .gcc_except_table	0000000000000000              GCC_except_table604
0000000000550f08 l       .gcc_except_table	0000000000000000              GCC_except_table605
0000000000550f18 l       .gcc_except_table	0000000000000000              GCC_except_table606
0000000000550f28 l       .gcc_except_table	0000000000000000              GCC_except_table607
0000000000550f4c l       .gcc_except_table	0000000000000000              GCC_except_table608
0000000000550f74 l       .gcc_except_table	0000000000000000              GCC_except_table609
0000000000550f80 l       .gcc_except_table	0000000000000000              GCC_except_table610
0000000000550f8c l       .gcc_except_table	0000000000000000              GCC_except_table611
0000000000550fb8 l       .gcc_except_table	0000000000000000              GCC_except_table612
0000000000803570 l     O .bss	0000000000000018              _ZN3std2io5stdio6stderr8INSTANCE17hdaf417672ed242c1E
0000000000550fd8 l       .gcc_except_table	0000000000000000              GCC_except_table623
0000000000550fe8 l       .gcc_except_table	0000000000000000              GCC_except_table624
0000000000550ff8 l       .gcc_except_table	0000000000000000              GCC_except_table625
0000000000551008 l       .gcc_except_table	0000000000000000              GCC_except_table626
0000000000551018 l       .gcc_except_table	0000000000000000              GCC_except_table627
0000000000551030 l       .gcc_except_table	0000000000000000              GCC_except_table628
0000000000551054 l       .gcc_except_table	0000000000000000              GCC_except_table632
0000000000551068 l       .gcc_except_table	0000000000000000              GCC_except_table633
00000000008034f0 l     O .bss	0000000000000001              _ZN3std2io5stdio19OUTPUT_CAPTURE_USED17h775401294dfa6031E.0
0000000000551074 l       .gcc_except_table	0000000000000000              GCC_except_table635
0000000000434a30 l     F .text	0000000000000212              _ZN3std2io5stdio31print_to_buffer_if_capture_used17hbf537a8b445987a3E
0000000000435fd0 l     F .text	00000000000000f4              _ZN3std2io5Write9write_fmt17he8b2346b6dea07fbE
0000000000551084 l       .gcc_except_table	0000000000000000              GCC_except_table636
00000000005510a0 l       .gcc_except_table	0000000000000000              GCC_except_table637
00000000005510b4 l       .gcc_except_table	0000000000000000              GCC_except_table638
00000000005510d0 l       .gcc_except_table	0000000000000000              GCC_except_table639
0000000000435830 l     F .text	00000000000000b5              _ZN3std2io5Write9write_all17h4eee5d47410ce908E
00000000004358f0 l     F .text	0000000000000321              _ZN3std2io5Write18write_all_vectored17h6f18fe7db90daed6E
00000000005510ec l       .gcc_except_table	0000000000000000              GCC_except_table654
0000000000551104 l       .gcc_except_table	0000000000000000              GCC_except_table655
0000000000551120 l       .gcc_except_table	0000000000000000              GCC_except_table656
000000000055113c l       .gcc_except_table	0000000000000000              GCC_except_table657
000000000055114c l       .gcc_except_table	0000000000000000              GCC_except_table658
0000000000551164 l       .gcc_except_table	0000000000000000              GCC_except_table659
0000000000436440 l     F .text	0000000000000062              _ZN80_$LT$std..io..Write..write_fmt..Adapter$LT$T$GT$$u20$as$u20$core..fmt..Write$GT$9write_str17hc96c9ea3d5e36fefE
000000000055117c l       .gcc_except_table	0000000000000000              GCC_except_table661
000000000055118c l       .gcc_except_table	0000000000000000              GCC_except_table662
0000000000436f50 l     F .text	0000000000000123              _ZN66_$LT$std..net..ip_addr..Ipv6Addr$u20$as$u20$core..fmt..Display$GT$3fmt12fmt_subslice17hc2b770070c58473bE
00000000004370a0 l     F .text	00000000000006aa              _ZN3std3net6parser6Parser11read_number17h67e87710fe023163E
0000000000437750 l     F .text	000000000000063a              _ZN3std3net6parser6Parser14read_ipv4_addr17hebf5ce3bc75c9243E
0000000000437d90 l     F .text	0000000000000147              _ZN3std3net6parser6Parser14read_ipv6_addr17h7630f20d68e9be67E
0000000000437ee0 l     F .text	00000000000001b8              _ZN3std3net6parser6Parser14read_ipv6_addr11read_groups17hdfa54b6ebaaa27d0E
00000000004380a0 l     F .text	00000000000001c8              _ZN3std3net6parser6Parser19read_socket_addr_v617h69540d5e41452851E
0000000000439410 l     F .text	000000000000033d              _ZN3std3net11socket_addr19resolve_socket_addr17h02e918daef3cece6E
00000000005511a4 l       .gcc_except_table	0000000000000000              GCC_except_table729
0000000000454c40 l     F .text	0000000000000289              _ZN104_$LT$std..sys_common..net..LookupHost$u20$as$u20$core..convert..TryFrom$LT$$LP$$RF$str$C$u16$RP$$GT$$GT$8try_from28_$u7b$$u7b$closure$u7d$$u7d$17hd4359ea839eae756E
0000000000406570 l     F .text	00000000000000c1              _ZN3std3sys6common14small_c_string24run_with_cstr_allocating17h9fdcd8c79b30e8f7E
00000000004526b0 l     F .text	00000000000000a4              _ZN3std3sys4unix4time5inner48_$LT$impl$u20$std..sys..unix..time..Timespec$GT$3now17h86ad49fb3730e5b1E
0000000000452580 l     F .text	0000000000000126              _ZN3std3sys4unix4time8Timespec12sub_timespec17hb689992b1d4e2894E
00000000005511cc l       .gcc_except_table	0000000000000000              GCC_except_table735
0000000000455020 l     F .text	000000000000014a              _ZN3std10sys_common3net9TcpStream9peer_addr17h7fda319efdb556beE
00000000004554a0 l     F .text	000000000000014a              _ZN3std10sys_common3net11TcpListener11socket_addr17hddd1f3fe7876e1f1E
00000000005511f0 l       .gcc_except_table	0000000000000000              GCC_except_table752
000000000044d410 l     F .text	000000000000015f              _ZN3std3sys4unix3net6Socket20recv_from_with_flags17h61b70af36dce2b0eE
0000000000551204 l       .gcc_except_table	0000000000000000              GCC_except_table833
000000000044d320 l     F .text	00000000000000eb              _ZN3std3sys4unix3net6Socket8new_pair17h5307473afb68ac46E
0000000000551228 l       .gcc_except_table	0000000000000000              GCC_except_table845
0000000000551240 l       .gcc_except_table	0000000000000000              GCC_except_table851
0000000000551264 l       .gcc_except_table	0000000000000000              GCC_except_table868
000000000044ed70 l     F .text	0000000000000f52              _ZN3std3sys4unix7process14process_common7Command11capture_env17h1410ea7bbeb63608E
000000000044fcd0 l     F .text	00000000000002c2              _ZN3std3sys4unix7process14process_common7Command8setup_io17hf8be13ba954dd700E
0000000000453e10 l     F .text	00000000000003a6              _ZN3std3sys4unix7process13process_inner66_$LT$impl$u20$std..sys..unix..process..process_common..Command$GT$7do_exec17hbd46e406b41643d7E
0000000000551274 l       .gcc_except_table	0000000000000000              GCC_except_table876
0000000000447690 l     F .text	000000000000006a              _ZN3std9panicking23rust_panic_without_hook17h074f3bebe9ca374cE
0000000000803588 l     O .bss	0000000000000008              _ZN3std5panic14SHOULD_CAPTURE17h54e24c47bc33818eE.0
000000000043efc0 l     F .text	00000000000000df              _ZN3std4path10Components15include_cur_dir17hb0b633fca7223216E
000000000043f0a0 l     F .text	00000000000001ba              _ZN3std4path10Components25parse_next_component_back17hdae96cccd5215e24E
0000000000449350 l     F .text	00000000000000dc              _ZN61_$LT$std..path..Component$u20$as$u20$core..cmp..PartialEq$GT$2eq17h8ae01412b6fdf88bE
00000000005512ac l       .gcc_except_table	0000000000000000              GCC_except_table936
00000000005512c0 l       .gcc_except_table	0000000000000000              GCC_except_table937
00000000005512d4 l       .gcc_except_table	0000000000000000              GCC_except_table938
00000000005512e8 l       .gcc_except_table	0000000000000000              GCC_except_table940
00000000005512fc l       .gcc_except_table	0000000000000000              GCC_except_table941
0000000000551310 l       .gcc_except_table	0000000000000000              GCC_except_table942
0000000000452f40 l     F .text	0000000000000ecf              _ZN3std3sys4unix7process13process_inner66_$LT$impl$u20$std..sys..unix..process..process_common..Command$GT$5spawn17h542ab2dcc0dadaa1E
000000000044e660 l     F .text	00000000000000d3              _ZN3std3sys4unix4pipe5read24read17h91f2a0a76c06cdbdE
0000000000551324 l       .gcc_except_table	0000000000000000              GCC_except_table999
000000000044db40 l     F .text	0000000000000009              _ZN3std3sys4unix2os4exit17ha99a3aa4b66223b5E
00000000005513b8 l       .gcc_except_table	0000000000000000              GCC_except_table1013
00000000005513d4 l       .gcc_except_table	0000000000000000              GCC_except_table1019
0000000000407b40 l     F .text	0000000000000270              _ZN3std10sys_common4once5futex4Once4call17h3a634571abb49588E
0000000000405840 l     F .text	0000000000000046              _ZN3std4sync9once_lock17OnceLock$LT$T$GT$10initialize17ha0b7c96b0a1b3276E
00000000004078f0 l     F .text	0000000000000250              _ZN3std10sys_common4once5futex4Once4call17h299fa060cc48fdcfE
0000000000407db0 l     F .text	000000000000026f              _ZN3std10sys_common4once5futex4Once4call17ha7065f120660ec91E
0000000000443660 l     F .text	000000000000002c              _ZN76_$LT$std..sync..poison..PoisonError$LT$T$GT$$u20$as$u20$core..fmt..Debug$GT$3fmt17h8d71e3cecb7b5dadE
00000000004058e0 l     F .text	0000000000000159              _ZN3std3sys6common14small_c_string24run_with_cstr_allocating17h02d979c27b1df4adE
0000000000406f30 l     F .text	00000000000000a0              _ZN3std3sys6common14small_c_string24run_with_cstr_allocating17hef52f7745085dc79E
00000000005513e8 l       .gcc_except_table	0000000000000000              GCC_except_table1055
000000000055140c l       .gcc_except_table	0000000000000000              GCC_except_table1056
0000000000405af0 l     F .text	000000000000008e              _ZN3std3sys6common14small_c_string24run_with_cstr_allocating17h24a05e1635bcdbfdE
0000000000405b80 l     F .text	00000000000000a7              _ZN3std3sys6common14small_c_string24run_with_cstr_allocating17h29e5cd04ce4bd364E
0000000000405c30 l     F .text	000000000000008a              _ZN3std3sys6common14small_c_string24run_with_cstr_allocating17h2de91e0e6055765fE
0000000000405cc0 l     F .text	00000000000000a7              _ZN3std3sys6common14small_c_string24run_with_cstr_allocating17h3000313fe1b6ba56E
0000000000405d70 l     F .text	00000000000000a9              _ZN3std3sys6common14small_c_string24run_with_cstr_allocating17h34b4080f56dad5f2E
0000000000405e20 l     F .text	000000000000009a              _ZN3std3sys6common14small_c_string24run_with_cstr_allocating17h3507fa313c5353eaE
0000000000405ec0 l     F .text	00000000000001b9              _ZN3std3sys6common14small_c_string24run_with_cstr_allocating17h47adf14c30c103bdE
0000000000551424 l       .gcc_except_table	0000000000000000              GCC_except_table1063
0000000000406080 l     F .text	00000000000000b5              _ZN3std3sys6common14small_c_string24run_with_cstr_allocating17h61ef18066845298fE
0000000000551444 l       .gcc_except_table	0000000000000000              GCC_except_table1064
000000000055145c l       .gcc_except_table	0000000000000000              GCC_except_table1065
0000000000406310 l     F .text	000000000000009a              _ZN3std3sys6common14small_c_string24run_with_cstr_allocating17h938a02caa447ad82E
00000000004063b0 l     F .text	00000000000001b6              _ZN3std3sys6common14small_c_string24run_with_cstr_allocating17h9c7d3154c1c2c6f0E
0000000000551480 l       .gcc_except_table	0000000000000000              GCC_except_table1068
00000000005514a0 l       .gcc_except_table	0000000000000000              GCC_except_table1069
0000000000406640 l     F .text	00000000000000a0              _ZN3std3sys6common14small_c_string24run_with_cstr_allocating17ha0a35504b090b891E
00000000004066e0 l     F .text	00000000000000a8              _ZN3std3sys6common14small_c_string24run_with_cstr_allocating17ha62e4ab4e2fb9551E
000000000044c240 l     F .text	000000000000035d              _ZN3std3sys4unix2fs15remove_dir_impl24remove_dir_all_recursive17h632d44f3cfee1292E
00000000005514b8 l       .gcc_except_table	0000000000000000              GCC_except_table1071
0000000000406790 l     F .text	0000000000000096              _ZN3std3sys6common14small_c_string24run_with_cstr_allocating17ha992632880c28186E
0000000000406830 l     F .text	0000000000000159              _ZN3std3sys6common14small_c_string24run_with_cstr_allocating17haaf9bdc42e6c7bbeE
00000000005514d0 l       .gcc_except_table	0000000000000000              GCC_except_table1073
0000000000406990 l     F .text	000000000000009a              _ZN3std3sys6common14small_c_string24run_with_cstr_allocating17hb3f348e09ac6b4d7E
00000000005514f4 l       .gcc_except_table	0000000000000000              GCC_except_table1075
0000000000406b70 l     F .text	00000000000000e8              _ZN3std3sys6common14small_c_string24run_with_cstr_allocating17hd8d9f4bcd0fc12ceE
000000000055150c l       .gcc_except_table	0000000000000000              GCC_except_table1077
0000000000406d10 l     F .text	0000000000000142              _ZN3std3sys6common14small_c_string24run_with_cstr_allocating17he141a7385073ba38E
0000000000551524 l       .gcc_except_table	0000000000000000              GCC_except_table1078
0000000000551548 l       .gcc_except_table	0000000000000000              GCC_except_table1079
0000000000443fe0 l     F .text	000000000000014b              _ZN3std10sys_common9backtrace5print17h9e7d2f98fb7af075E
0000000000551560 l       .gcc_except_table	0000000000000000              GCC_except_table1081
0000000000551570 l       .gcc_except_table	0000000000000000              GCC_except_table1082
00000000004443b0 l     F .text	0000000000000035              _ZN3std10sys_common9backtrace10_print_fmt28_$u7b$$u7b$closure$u7d$$u7d$17h45e102e0f905cd76E
0000000000457460 l     F .text	0000000000000109              _ZN3std12backtrace_rs9symbolize5gimli7resolve17h8223f26d8311c4a4E
000000000055158c l       .gcc_except_table	0000000000000000              GCC_except_table1084
00000000005515a0 l       .gcc_except_table	0000000000000000              GCC_except_table1085
0000000000444750 l     F .text	000000000000001e              _ZN3std10sys_common9backtrace26__rust_end_short_backtrace17h6c6853376cf416d1E
0000000000447260 l     F .text	00000000000000e0              _ZN3std9panicking19begin_panic_handler28_$u7b$$u7b$closure$u7d$$u7d$17h02b5b35b126d5cf2E
00000000005515b4 l       .gcc_except_table	0000000000000000              GCC_except_table1087
00000000005515c4 l       .gcc_except_table	0000000000000000              GCC_except_table1088
00000000005515dc l       .gcc_except_table	0000000000000000              GCC_except_table1090
00000000005515fc l       .gcc_except_table	0000000000000000              GCC_except_table1091
0000000000803598 l     O .bss	0000000000000008              _ZN3std10sys_common6thread9min_stack3MIN17hc10af71d89d862d9E.0
0000000000551624 l       .gcc_except_table	0000000000000000              GCC_except_table1096
000000000000007c l       .tbss	0000000000000001              _ZN3std10sys_common11thread_info11THREAD_INFO7__getit5STATE17hb4fb56d86b214f00E.0
0000000000000000 l       .tdata	0000000000000028              _ZN3std10sys_common11thread_info11THREAD_INFO7__getit3VAL17h8b6c9dd2036e112fE
00000000004547c0 l     F .text	0000000000000033              _ZN3std10sys_common11thread_info11THREAD_INFO7__getit7destroy17hcec1551e4a4ed7b5E
0000000000551638 l       .gcc_except_table	0000000000000000              GCC_except_table1097
000000000055164c l       .gcc_except_table	0000000000000000              GCC_except_table1098
0000000000445730 l     F .text	00000000000000c0              _ZN3std10sys_common17thread_local_dtor22register_dtor_fallback9run_dtors17h38f0da9efaad67edE
0000000000454800 l     F .text	0000000000000151              _ZN3std10sys_common16thread_local_key9StaticKey3key17hfed93c95aeb78629E
0000000000551668 l       .gcc_except_table	0000000000000000              GCC_except_table1099
0000000000445b60 l     F .text	0000000000000221              _ZN64_$LT$std..sys_common..wtf8..Wtf8$u20$as$u20$core..fmt..Debug$GT$3fmt17write_str_escaped17h6e7f48bc50e5af95E
00000000008035a0 l     O .bss	0000000000000008              _ZN3std5alloc4HOOK17h99e8b57755e3886aE
0000000000446040 l     F .text	0000000000000153              _ZN3std5alloc24default_alloc_error_hook17h97ad2f65fe1e1390E
000000000055167c l       .gcc_except_table	0000000000000000              GCC_except_table1109
0000000000551694 l       .gcc_except_table	0000000000000000              GCC_except_table1114
00000000005516a4 l       .gcc_except_table	0000000000000000              GCC_except_table1115
00000000005516b4 l       .gcc_except_table	0000000000000000              GCC_except_table1116
00000000005516d8 l       .gcc_except_table	0000000000000000              GCC_except_table1117
0000000000446cc0 l     F .text	000000000000024c              _ZN3std9panicking12default_hook28_$u7b$$u7b$closure$u7d$$u7d$17hf74999dab2d0a95cE
00000000005516f4 l       .gcc_except_table	0000000000000000              GCC_except_table1118
0000000000800268 l     O .data	0000000000000001              _ZN3std9panicking12default_hook28_$u7b$$u7b$closure$u7d$$u7d$11FIRST_PANIC17ha267301a88ac1a4cE
0000000000551730 l       .gcc_except_table	0000000000000000              GCC_except_table1119
0000000000551768 l       .gcc_except_table	0000000000000000              GCC_except_table1126
000000000055177c l       .gcc_except_table	0000000000000000              GCC_except_table1127
000000000055178c l       .gcc_except_table	0000000000000000              GCC_except_table1130
00000000005517a0 l       .gcc_except_table	0000000000000000              GCC_except_table1131
00000000005517d8 l       .gcc_except_table	0000000000000000              GCC_except_table1132
0000000000447800 l     F .text	000000000000017f              _ZN3std11personality5dwarf2eh20read_encoded_pointer17h780c4b1fce972741E
0000000000407030 l     F .text	0000000000000047              _ZN3std3sys4unix4weak18DlsymWeak$LT$F$GT$10initialize17h4033888398baeca8E
0000000000800280 l     O .data	0000000000000008              _ZN3std3sys4unix6thread14min_stack_size5DLSYM17h2cc9a0de626f80b3E.2
00000000005517e8 l       .gcc_except_table	0000000000000000              GCC_except_table1219
0000000000551800 l       .gcc_except_table	0000000000000000              GCC_except_table1227
0000000000551854 l       .gcc_except_table	0000000000000000              GCC_except_table1228
0000000000551874 l       .gcc_except_table	0000000000000000              GCC_except_table1234
000000000055189c l       .gcc_except_table	0000000000000000              GCC_except_table1240
00000000005518e0 l       .gcc_except_table	0000000000000000              GCC_except_table1245
000000000044cc40 l     F .text	0000000000000202              _ZN3std3sys4unix11kernel_copy10fd_to_meta17h09584bd2632efccaE
0000000000551930 l       .gcc_except_table	0000000000000000              GCC_except_table1259
0000000000551948 l       .gcc_except_table	0000000000000000              GCC_except_table1262
00000000008035e8 l     O .bss	0000000000000001              _ZN3std3sys4unix11kernel_copy18copy_regular_files19HAS_COPY_FILE_RANGE17h22d1dea20e6b1075E.0
000000000080026a l     O .data	0000000000000001              _ZN3std3sys4unix11kernel_copy15sendfile_splice10HAS_SPLICE17h776fc8f17f2ca578E
0000000000800269 l     O .data	0000000000000001              _ZN3std3sys4unix11kernel_copy15sendfile_splice12HAS_SENDFILE17h843d6d84e07a40aeE
0000000000551960 l       .gcc_except_table	0000000000000000              GCC_except_table1264
000000000055197c l       .gcc_except_table	0000000000000000              GCC_except_table1268
000000000044d6f0 l     F .text	0000000000000007              _ZN3std3sys4unix2os11split_paths12is_separator17h13169c291383c1faE
000000000044d670 l     F .text	0000000000000077              _ZN3std3sys4unix2os11split_paths13bytes_to_path17h827bf13465ae5b7cE
000000000044d8d0 l     F .text	0000000000000054              _ZN3std3sys4unix2os13env_read_lock17h6c8a61b6ea01e655E
000000000044db50 l     F .text	000000000000013a              _ZN3std3sys4unix2os13glibc_version17h1fcd5718c5797af6E
0000000000551990 l       .gcc_except_table	0000000000000000              GCC_except_table1291
00000000005519ac l       .gcc_except_table	0000000000000000              GCC_except_table1298
000000000044e510 l     F .text	00000000000000e3              _ZN3std3sys4unix4pipe9anon_pipe17hcfc1cf97b489fdaeE
00000000005519d4 l       .gcc_except_table	0000000000000000              GCC_except_table1299
000000000044e600 l     F .text	0000000000000052              _ZN3std3sys4unix4pipe8AnonPipe5write17h36a3ddce64429efcE
00000000005519e8 l       .gcc_except_table	0000000000000000              GCC_except_table1301
000000000044ffa0 l     F .text	00000000000000ff              _ZN3std3sys4unix7process14process_common4os2c17h82b8f6331b080f2fE
00000000005519fc l       .gcc_except_table	0000000000000000              GCC_except_table1302
0000000000551a34 l       .gcc_except_table	0000000000000000              GCC_except_table1303
0000000000551a54 l       .gcc_except_table	0000000000000000              GCC_except_table1304
0000000000551a80 l       .gcc_except_table	0000000000000000              GCC_except_table1306
0000000000551a90 l       .gcc_except_table	0000000000000000              GCC_except_table1311
00000000004500a0 l     F .text	0000000000000157              _ZN3std3sys4unix7process14process_common5Stdio14to_child_stdio17h5759005cad843519E
0000000000551b54 l       .gcc_except_table	0000000000000000              GCC_except_table1312
0000000000551b70 l       .gcc_except_table	0000000000000000              GCC_except_table1313
00000000008035f8 l     O .bss	0000000000000001              _ZN3std3sys4unix4rand3imp20getrandom_fill_bytes21GETRANDOM_UNAVAILABLE17h8cc9c79af441eb0aE.0
000000000080026b l     O .data	0000000000000001              _ZN3std3sys4unix4rand3imp9getrandom23GRND_INSECURE_AVAILABLE17h41f8fa1ce47e4db6E.0
0000000000551b88 l       .gcc_except_table	0000000000000000              GCC_except_table1323
0000000000551bbc l       .gcc_except_table	0000000000000000              GCC_except_table1325
0000000000551bd4 l       .gcc_except_table	0000000000000000              GCC_except_table1326
0000000000451040 l     F .text	0000000000000003              _ZN64_$LT$std..sys..unix..stdio..Stderr$u20$as$u20$std..io..Write$GT$17is_write_vectored17h0dc6d930f6fc8a62E
00000000004512f0 l     F .text	00000000000000d3              _ZN3std3sys4unix6thread6Thread3new12thread_start17h1541b4390bbc26caE
0000000000551bf0 l       .gcc_except_table	0000000000000000              GCC_except_table1335
0000000000551c1c l       .gcc_except_table	0000000000000000              GCC_except_table1336
0000000000551c30 l       .gcc_except_table	0000000000000000              GCC_except_table1338
0000000000551c44 l       .gcc_except_table	0000000000000000              GCC_except_table1342
0000000000451910 l     F .text	00000000000009aa              _ZN3std3sys4unix6thread7cgroups15find_mountpoint17h1f2848b4ce23ae58E
0000000000551c78 l       .gcc_except_table	0000000000000000              GCC_except_table1343
0000000000800270 l     O .data	0000000000000008              _rust_extern_with_linkage___dso_handle
0000000000551cdc l       .gcc_except_table	0000000000000000              GCC_except_table1349
0000000000803619 l     O .bss	0000000000000001              _ZN3std3sys4unix2fs9try_statx11STATX_STATE17h65c1e0eb6ec1018aE.0
0000000000800278 l     O .data	0000000000000001              _ZN3std3sys4unix7process13process_inner66_$LT$impl$u20$std..sys..unix..process..process_common..Command$GT$7do_fork10HAS_CLONE317ha1323844d459c7e8E.0
00000000004541f0 l     F .text	00000000000000b2              _ZN3std3sys4unix7process13process_inner7Process4wait17h0123e0cbf8588d47E
0000000000551cf4 l       .gcc_except_table	0000000000000000              GCC_except_table1368
0000000000551d70 l       .gcc_except_table	0000000000000000              GCC_except_table1369
0000000000551d8c l       .gcc_except_table	0000000000000000              GCC_except_table1385
0000000000551dac l       .gcc_except_table	0000000000000000              GCC_except_table1386
0000000000551dc0 l       .gcc_except_table	0000000000000000              GCC_except_table1387
0000000000551dd4 l       .gcc_except_table	0000000000000000              GCC_except_table1388
0000000000551de8 l       .gcc_except_table	0000000000000000              GCC_except_table1389
0000000000800258 l     O .data	0000000000000010              _ZN3std10sys_common17thread_local_dtor22register_dtor_fallback5DTORS17h4d5ce09018ef1ff6E
0000000000551e1c l       .gcc_except_table	0000000000000000              GCC_except_table1399
0000000000551e38 l       .gcc_except_table	0000000000000000              GCC_except_table1402
0000000000551e6c l       .gcc_except_table	0000000000000000              GCC_except_table1405
0000000000551e90 l       .gcc_except_table	0000000000000000              GCC_except_table1409
0000000000455bd0 l     F .text	000000000000000c              _ZN3std11personality3gcc14find_eh_action28_$u7b$$u7b$closure$u7d$$u7d$17h2e792f797aafd178E
0000000000455be0 l     F .text	000000000000000c              _ZN3std11personality3gcc14find_eh_action28_$u7b$$u7b$closure$u7d$$u7d$17h2d345d7993879117E
0000000000551eb4 l       .gcc_except_table	0000000000000000              GCC_except_table1416
0000000000551ecc l       .gcc_except_table	0000000000000000              GCC_except_table1418
0000000000456170 l     F .text	00000000000000f2              _ZN3std12backtrace_rs9symbolize5gimli5stash5Stash8allocate17h4b0c8c5d1a642519E
0000000000551ed4 l       .gcc_except_table	0000000000000000              GCC_except_table1421
0000000000456270 l     F .text	0000000000000f0d              _ZN3std12backtrace_rs9symbolize5gimli7Context3new17hab6b761bc709c0c4E
0000000000551eec l       .gcc_except_table	0000000000000000              GCC_except_table1422
0000000000457180 l     F .text	00000000000002d2              _ZN3std12backtrace_rs9symbolize5gimli4mmap17h55f8c8a9fb744742E
0000000000551f3c l       .gcc_except_table	0000000000000000              GCC_except_table1423
0000000000803620 l     O .bss	0000000000000030              _ZN3std12backtrace_rs9symbolize5gimli5Cache11with_global14MAPPINGS_CACHE17hc84ff6a3c1ecca27E
000000000045e040 l     F .text	0000000000000297              _ZN3std12backtrace_rs9symbolize5gimli20libs_dl_iterate_phdr8callback17h7f98dcf8c5fc67ecE
0000000000457570 l     F .text	0000000000004cab              _ZN3std12backtrace_rs9symbolize5gimli7resolve28_$u7b$$u7b$closure$u7d$$u7d$17h58a016560a7ccadeE
000000000045cef0 l     F .text	00000000000006f2              _ZN3std12backtrace_rs9symbolize5gimli3elf6Object5parse17hba654129423dc14bE
000000000045dab0 l     F .text	0000000000000211              _ZN3std12backtrace_rs9symbolize5gimli3elf6Object8build_id17h57dfccf89968a900E
000000000045dd50 l     F .text	00000000000002e5              _ZN3std12backtrace_rs9symbolize5gimli3elf15locate_build_id17h6a5935e0f79d4cc2E
000000000045c240 l     F .text	0000000000000caa              _ZN3std12backtrace_rs9symbolize5gimli3elf62_$LT$impl$u20$std..backtrace_rs..symbolize..gimli..Mapping$GT$9new_debug17h7c63493cd13e4ff3E
000000000045d9e0 l     F .text	00000000000000c5              _ZN3std12backtrace_rs9symbolize5gimli3elf6Object13search_symtab17h68a295b13907ed45E
0000000000803650 l     O .bss	0000000000000001              _ZN3std12backtrace_rs9symbolize5gimli3elf17debug_path_exists17DEBUG_PATH_EXISTS17hfc31cb3165e0e785E.0
0000000000551f64 l       .gcc_except_table	0000000000000000              GCC_except_table1425
00000000005521b8 l       .gcc_except_table	0000000000000000              GCC_except_table1428
0000000000552250 l       .gcc_except_table	0000000000000000              GCC_except_table1429
000000000045dcd0 l     F .text	000000000000007b              _ZN3std12backtrace_rs9symbolize5gimli3elf15decompress_zlib17hcf78321e3898022fE
0000000000552284 l       .gcc_except_table	0000000000000000              GCC_except_table1434
00000000005522b0 l       .gcc_except_table	0000000000000000              GCC_except_table1435
0000000000000000 l    df *ABS*	0000000000000000              object.0f5bcfba-cgu.0
000000000045e590 l     F .text	0000000000000083              _ZN42_$LT$$RF$T$u20$as$u20$core..fmt..Debug$GT$3fmt17h0230ee60ef497b2fE
000000000045e620 l     F .text	0000000000000046              _ZN42_$LT$$RF$T$u20$as$u20$core..fmt..Debug$GT$3fmt17h02e3086ea06a4219E
000000000045e670 l     F .text	000000000000002c              _ZN42_$LT$$RF$T$u20$as$u20$core..fmt..Debug$GT$3fmt17h047595f2b43feb86E
000000000045e6a0 l     F .text	0000000000000071              _ZN42_$LT$$RF$T$u20$as$u20$core..fmt..Debug$GT$3fmt17h05f2723e96b94f0bE
000000000045e720 l     F .text	0000000000000052              _ZN42_$LT$$RF$T$u20$as$u20$core..fmt..Debug$GT$3fmt17h07d9b15a0f36a21cE
000000000045e780 l     F .text	00000000000000c0              _ZN42_$LT$$RF$T$u20$as$u20$core..fmt..Debug$GT$3fmt17h08b0e9d004ade351E
000000000045e840 l     F .text	0000000000000009              _ZN42_$LT$$RF$T$u20$as$u20$core..fmt..Debug$GT$3fmt17h11673626c40ca615E
000000000045e850 l     F .text	0000000000000053              _ZN42_$LT$$RF$T$u20$as$u20$core..fmt..Debug$GT$3fmt17h12007240df05cf46E
000000000045e8b0 l     F .text	00000000000000d7              _ZN42_$LT$$RF$T$u20$as$u20$core..fmt..Debug$GT$3fmt17h18358eccdc4b1defE
000000000045e990 l     F .text	0000000000000098              _ZN42_$LT$$RF$T$u20$as$u20$core..fmt..Debug$GT$3fmt17h1974fe26d39a679aE
000000000045ea30 l     F .text	0000000000000065              _ZN42_$LT$$RF$T$u20$as$u20$core..fmt..Debug$GT$3fmt17h1a79d9c5561d5338E
000000000045eaa0 l     F .text	00000000000001be              _ZN42_$LT$$RF$T$u20$as$u20$core..fmt..Debug$GT$3fmt17h1cedb4450a47d583E
000000000045ec60 l     F .text	00000000000001df              _ZN42_$LT$$RF$T$u20$as$u20$core..fmt..Debug$GT$3fmt17h1f7f4e772a8788c0E
000000000045ee40 l     F .text	0000000000000009              _ZN42_$LT$$RF$T$u20$as$u20$core..fmt..Debug$GT$3fmt17h20b963e542374e78E
000000000045ee50 l     F .text	0000000000000009              _ZN42_$LT$$RF$T$u20$as$u20$core..fmt..Debug$GT$3fmt17h2740cc7afbb44fc9E
000000000045ee60 l     F .text	0000000000000083              _ZN42_$LT$$RF$T$u20$as$u20$core..fmt..Debug$GT$3fmt17h27729d8de643e1fcE
000000000045eef0 l     F .text	0000000000000140              _ZN42_$LT$$RF$T$u20$as$u20$core..fmt..Debug$GT$3fmt17h287811f82f6e935aE
000000000045f030 l     F .text	00000000000000dc              _ZN42_$LT$$RF$T$u20$as$u20$core..fmt..Debug$GT$3fmt17h2f9446ccf5d477c7E
000000000045f110 l     F .text	000000000000006e              _ZN42_$LT$$RF$T$u20$as$u20$core..fmt..Debug$GT$3fmt17h37bfe27e51b746cdE
000000000045f180 l     F .text	000000000000006c              _ZN42_$LT$$RF$T$u20$as$u20$core..fmt..Debug$GT$3fmt17h3a8eb7946796a423E
000000000045f1f0 l     F .text	0000000000000083              _ZN42_$LT$$RF$T$u20$as$u20$core..fmt..Debug$GT$3fmt17h3a97dfbe87559e58E
000000000045f280 l     F .text	00000000000002e4              _ZN42_$LT$$RF$T$u20$as$u20$core..fmt..Debug$GT$3fmt17h44b54ac793b6c6dbE
000000000045f570 l     F .text	0000000000000116              _ZN42_$LT$$RF$T$u20$as$u20$core..fmt..Debug$GT$3fmt17h464f33f2a93fe9a2E
000000000045f690 l     F .text	0000000000000083              _ZN42_$LT$$RF$T$u20$as$u20$core..fmt..Debug$GT$3fmt17h48d7a79b79794f4eE
000000000045f720 l     F .text	0000000000000053              _ZN42_$LT$$RF$T$u20$as$u20$core..fmt..Debug$GT$3fmt17h55cb932293827369E
000000000045f780 l     F .text	0000000000000065              _ZN42_$LT$$RF$T$u20$as$u20$core..fmt..Debug$GT$3fmt17h588eaa8d30c43fedE
000000000045f7f0 l     F .text	000000000000006d              _ZN42_$LT$$RF$T$u20$as$u20$core..fmt..Debug$GT$3fmt17h593dc6c6d79a5d9fE
000000000045f860 l     F .text	0000000000000046              _ZN42_$LT$$RF$T$u20$as$u20$core..fmt..Debug$GT$3fmt17h5bcc80a7f47ed5b0E
000000000045f8b0 l     F .text	00000000000001e8              _ZN42_$LT$$RF$T$u20$as$u20$core..fmt..Debug$GT$3fmt17h5c8674ac849655e4E
000000000045faa0 l     F .text	0000000000000009              _ZN42_$LT$$RF$T$u20$as$u20$core..fmt..Debug$GT$3fmt17h5ee643c6c520bb97E
000000000045fab0 l     F .text	0000000000000083              _ZN42_$LT$$RF$T$u20$as$u20$core..fmt..Debug$GT$3fmt17h60fd2ad7cf59c586E
000000000045fb40 l     F .text	00000000000000bc              _ZN42_$LT$$RF$T$u20$as$u20$core..fmt..Debug$GT$3fmt17h6282731aa79ed4aeE
0000000000461630 l     F .text	0000000000000024              _ZN66_$LT$alloc..borrow..Cow$LT$B$GT$$u20$as$u20$core..fmt..Display$GT$3fmt17h46eeee6be817e155E
00000000004613b0 l     F .text	0000000000000024              _ZN4core3ptr50drop_in_place$LT$alloc..borrow..Cow$LT$str$GT$$GT$17h035b1430761e3ae5E
0000000000552314 l       .gcc_except_table	0000000000000000              GCC_except_table31
000000000045fc00 l     F .text	0000000000000053              _ZN42_$LT$$RF$T$u20$as$u20$core..fmt..Debug$GT$3fmt17h6aa3b36bf84d4920E
000000000045fc60 l     F .text	0000000000000089              _ZN42_$LT$$RF$T$u20$as$u20$core..fmt..Debug$GT$3fmt17h736b8402aac4a1f8E
000000000045fcf0 l     F .text	0000000000000098              _ZN42_$LT$$RF$T$u20$as$u20$core..fmt..Debug$GT$3fmt17h73d41c5a19812e65E
000000000045fd90 l     F .text	00000000000000c2              _ZN42_$LT$$RF$T$u20$as$u20$core..fmt..Debug$GT$3fmt17h79596e6338e9e433E
000000000045fe60 l     F .text	0000000000000116              _ZN42_$LT$$RF$T$u20$as$u20$core..fmt..Debug$GT$3fmt17h82e0ed5173497277E
000000000045ff80 l     F .text	0000000000000083              _ZN42_$LT$$RF$T$u20$as$u20$core..fmt..Debug$GT$3fmt17h8a59d3edffa74b24E
0000000000460010 l     F .text	00000000000000b1              _ZN42_$LT$$RF$T$u20$as$u20$core..fmt..Debug$GT$3fmt17h8adbe663dc5069edE
00000000004600d0 l     F .text	0000000000000065              _ZN42_$LT$$RF$T$u20$as$u20$core..fmt..Debug$GT$3fmt17h91c3fb987ee31207E
0000000000460140 l     F .text	00000000000000ba              _ZN42_$LT$$RF$T$u20$as$u20$core..fmt..Debug$GT$3fmt17h941f091ff141d5b9E
0000000000460200 l     F .text	00000000000000c1              _ZN42_$LT$$RF$T$u20$as$u20$core..fmt..Debug$GT$3fmt17h967c47fc803e326cE
00000000004602d0 l     F .text	0000000000000053              _ZN42_$LT$$RF$T$u20$as$u20$core..fmt..Debug$GT$3fmt17h99574439b0659ba8E
0000000000460330 l     F .text	00000000000000ec              _ZN42_$LT$$RF$T$u20$as$u20$core..fmt..Debug$GT$3fmt17h9c409f3b73e7581eE
0000000000460420 l     F .text	0000000000000071              _ZN42_$LT$$RF$T$u20$as$u20$core..fmt..Debug$GT$3fmt17h9d08686775793b9cE
00000000004604a0 l     F .text	000000000000002c              _ZN42_$LT$$RF$T$u20$as$u20$core..fmt..Debug$GT$3fmt17hb17320fcb84f5a2bE
00000000004604d0 l     F .text	0000000000000083              _ZN42_$LT$$RF$T$u20$as$u20$core..fmt..Debug$GT$3fmt17hb3dde5e9801b8f5cE
0000000000460560 l     F .text	0000000000000053              _ZN42_$LT$$RF$T$u20$as$u20$core..fmt..Debug$GT$3fmt17hb5bbc4b6acf5fd81E
00000000004605c0 l     F .text	0000000000000073              _ZN42_$LT$$RF$T$u20$as$u20$core..fmt..Debug$GT$3fmt17hbd3d9da2fe79e599E
0000000000460640 l     F .text	0000000000000053              _ZN42_$LT$$RF$T$u20$as$u20$core..fmt..Debug$GT$3fmt17hc095fb281415041bE
00000000004606a0 l     F .text	0000000000000065              _ZN42_$LT$$RF$T$u20$as$u20$core..fmt..Debug$GT$3fmt17hc19db2ced810104eE
0000000000460710 l     F .text	0000000000000053              _ZN42_$LT$$RF$T$u20$as$u20$core..fmt..Debug$GT$3fmt17hcd171ac93dcac7d8E
0000000000460770 l     F .text	0000000000000098              _ZN42_$LT$$RF$T$u20$as$u20$core..fmt..Debug$GT$3fmt17hd0aa233c9608afeeE
0000000000460810 l     F .text	000000000000007c              _ZN42_$LT$$RF$T$u20$as$u20$core..fmt..Debug$GT$3fmt17hd72114feb7ea790aE
0000000000460890 l     F .text	000000000000012a              _ZN42_$LT$$RF$T$u20$as$u20$core..fmt..Debug$GT$3fmt17hd7387b1192aa2f54E
00000000004609c0 l     F .text	0000000000000089              _ZN42_$LT$$RF$T$u20$as$u20$core..fmt..Debug$GT$3fmt17hd99f5c5681926672E
0000000000460a50 l     F .text	0000000000000172              _ZN42_$LT$$RF$T$u20$as$u20$core..fmt..Debug$GT$3fmt17hdb66b2931a0e82f2E
0000000000460bd0 l     F .text	0000000000000192              _ZN42_$LT$$RF$T$u20$as$u20$core..fmt..Debug$GT$3fmt17hdda3050ae4d3bd74E
0000000000460d70 l     F .text	000000000000010b              _ZN42_$LT$$RF$T$u20$as$u20$core..fmt..Debug$GT$3fmt17hde077aa6306e9a6bE
0000000000460e80 l     F .text	0000000000000083              _ZN42_$LT$$RF$T$u20$as$u20$core..fmt..Debug$GT$3fmt17he27a7995c6866a6aE
0000000000460f10 l     F .text	0000000000000194              _ZN42_$LT$$RF$T$u20$as$u20$core..fmt..Debug$GT$3fmt17he80dd44dc84bf3dcE
00000000004610b0 l     F .text	0000000000000013              _ZN42_$LT$$RF$T$u20$as$u20$core..fmt..Debug$GT$3fmt17hea0794047b0c9d1bE
00000000004610d0 l     F .text	0000000000000009              _ZN42_$LT$$RF$T$u20$as$u20$core..fmt..Debug$GT$3fmt17hee3bf013b9f71e35E
00000000004610e0 l     F .text	0000000000000083              _ZN42_$LT$$RF$T$u20$as$u20$core..fmt..Debug$GT$3fmt17heef2799f4651359bE
0000000000461170 l     F .text	0000000000000083              _ZN42_$LT$$RF$T$u20$as$u20$core..fmt..Debug$GT$3fmt17hf4eb80a8487f3d8cE
0000000000461200 l     F .text	00000000000000ea              _ZN42_$LT$$RF$T$u20$as$u20$core..fmt..Debug$GT$3fmt17hfa1419ff448cdf72E
00000000004612f0 l     F .text	0000000000000009              _ZN42_$LT$$RF$T$u20$as$u20$core..fmt..Debug$GT$3fmt17hff26f6307e1de3aaE
0000000000461300 l     F .text	0000000000000009              _ZN44_$LT$$RF$T$u20$as$u20$core..fmt..Display$GT$3fmt17h487cfe0ec219aa77E
0000000000461310 l     F .text	0000000000000009              _ZN45_$LT$$RF$T$u20$as$u20$core..fmt..LowerHex$GT$3fmt17h044786cfdd9eef14E
0000000000461320 l     F .text	0000000000000053              _ZN4core3fmt3num50_$LT$impl$u20$core..fmt..Debug$u20$for$u20$u32$GT$3fmt17hfae888e800f4a5dfE
0000000000461380 l     F .text	0000000000000001              _ZN4core3ptr106drop_in_place$LT$$RF$$u5b$object..endian..U16Bytes$LT$object..endian..LittleEndian$GT$$u3b$$u20$4$u5d$$GT$17hfa4b7f65d2966de6E
0000000000461390 l     F .text	000000000000001d              _ZN4core3ptr42drop_in_place$LT$alloc..string..String$GT$17h71716e4e2a220ac9E
00000000004613e0 l     F .text	000000000000001e              _ZN4core3ptr76drop_in_place$LT$alloc..vec..Vec$LT$object..read..pe..export..Export$GT$$GT$17h9f42cbdffce0483dE
0000000000461400 l     F .text	0000000000000087              _ZN5alloc7raw_vec11finish_grow17h7a8427112c7416e0E
0000000000461490 l     F .text	00000000000000cc              _ZN5alloc7raw_vec19RawVec$LT$T$C$A$GT$16reserve_for_push17h111b2f1fc338a52aE
0000000000461560 l     F .text	00000000000000c4              _ZN5alloc7raw_vec19RawVec$LT$T$C$A$GT$16reserve_for_push17haed77833f56bf072E
0000000000408490 l     F .text	00000000000000c4              _ZN5alloc7raw_vec19RawVec$LT$T$C$A$GT$7reserve21do_reserve_and_handle17h68047cc312e42235E
0000000000461660 l     F .text	0000000000000045              _ZN66_$LT$core..option..Option$LT$T$GT$$u20$as$u20$core..fmt..Debug$GT$3fmt17h1d00f2e5b69aa9e2E
0000000000552328 l       .gcc_except_table	0000000000000000              GCC_except_table88
000000000055233c l       .gcc_except_table	0000000000000000              GCC_except_table154
0000000000552358 l       .gcc_except_table	0000000000000000              GCC_except_table182
0000000000000000 l    df *ABS*	0000000000000000              memchr.76c9d3d8-cgu.0
000000000046c1a0 l     F .text	000000000000002c              _ZN42_$LT$$RF$T$u20$as$u20$core..fmt..Debug$GT$3fmt17h07f91a177d49bb2fE
000000000046c1d0 l     F .text	00000000000000c7              _ZN42_$LT$$RF$T$u20$as$u20$core..fmt..Debug$GT$3fmt17h1e585e73ee6d98afE
000000000046c2a0 l     F .text	0000000000000046              _ZN42_$LT$$RF$T$u20$as$u20$core..fmt..Debug$GT$3fmt17h1fce59649783c567E
000000000046c2f0 l     F .text	0000000000000048              _ZN42_$LT$$RF$T$u20$as$u20$core..fmt..Debug$GT$3fmt17h205b42345a94747cE
000000000046c340 l     F .text	00000000000000a1              _ZN42_$LT$$RF$T$u20$as$u20$core..fmt..Debug$GT$3fmt17h2979f3664cd03e78E
000000000046c3f0 l     F .text	000000000000002c              _ZN42_$LT$$RF$T$u20$as$u20$core..fmt..Debug$GT$3fmt17h2a3a20071a90a8d4E
000000000046c420 l     F .text	0000000000000046              _ZN42_$LT$$RF$T$u20$as$u20$core..fmt..Debug$GT$3fmt17h3e00a5626798d25aE
000000000046c470 l     F .text	0000000000000053              _ZN42_$LT$$RF$T$u20$as$u20$core..fmt..Debug$GT$3fmt17h446116523abcb263E
000000000046c4d0 l     F .text	0000000000000046              _ZN42_$LT$$RF$T$u20$as$u20$core..fmt..Debug$GT$3fmt17h475d0db723e96fd8E
000000000046c520 l     F .text	0000000000000009              _ZN42_$LT$$RF$T$u20$as$u20$core..fmt..Debug$GT$3fmt17h4cb5c80227300f3fE
000000000046c530 l     F .text	000000000000002c              _ZN42_$LT$$RF$T$u20$as$u20$core..fmt..Debug$GT$3fmt17h4e80b97d905d0970E
000000000046c560 l     F .text	0000000000000071              _ZN42_$LT$$RF$T$u20$as$u20$core..fmt..Debug$GT$3fmt17h4f5b823619c6afc0E
000000000046c5e0 l     F .text	0000000000000053              _ZN42_$LT$$RF$T$u20$as$u20$core..fmt..Debug$GT$3fmt17h5c231b51181ee71bE
000000000046c640 l     F .text	000000000000002c              _ZN42_$LT$$RF$T$u20$as$u20$core..fmt..Debug$GT$3fmt17h5d4e7d0e48e45a86E
000000000046c670 l     F .text	00000000000000a1              _ZN42_$LT$$RF$T$u20$as$u20$core..fmt..Debug$GT$3fmt17h5e4dd0a1f519db7aE
000000000046c720 l     F .text	000000000000002c              _ZN42_$LT$$RF$T$u20$as$u20$core..fmt..Debug$GT$3fmt17h672ce423c59e1815E
000000000046c750 l     F .text	000000000000002c              _ZN42_$LT$$RF$T$u20$as$u20$core..fmt..Debug$GT$3fmt17h6b7bcc83e8dcbccaE
000000000046c780 l     F .text	0000000000000053              _ZN42_$LT$$RF$T$u20$as$u20$core..fmt..Debug$GT$3fmt17h7491e0f425354855E
000000000046c7e0 l     F .text	000000000000004c              _ZN42_$LT$$RF$T$u20$as$u20$core..fmt..Debug$GT$3fmt17h7565cef2d79c7aeaE
000000000046c830 l     F .text	000000000000002c              _ZN42_$LT$$RF$T$u20$as$u20$core..fmt..Debug$GT$3fmt17h930057e7c68234c6E
000000000046c860 l     F .text	0000000000000015              _ZN42_$LT$$RF$T$u20$as$u20$core..fmt..Debug$GT$3fmt17h9bc0194566959ff0E
000000000046c880 l     F .text	000000000000002c              _ZN42_$LT$$RF$T$u20$as$u20$core..fmt..Debug$GT$3fmt17ha00b4aa210eefeb8E
000000000046c8b0 l     F .text	0000000000000071              _ZN42_$LT$$RF$T$u20$as$u20$core..fmt..Debug$GT$3fmt17ha148831e5adb5513E
000000000046c930 l     F .text	0000000000000015              _ZN42_$LT$$RF$T$u20$as$u20$core..fmt..Debug$GT$3fmt17ha4f29e7890f2c1c4E
000000000046c950 l     F .text	0000000000000029              _ZN42_$LT$$RF$T$u20$as$u20$core..fmt..Debug$GT$3fmt17hac085f96bb2c4d64E
000000000046c980 l     F .text	0000000000000065              _ZN42_$LT$$RF$T$u20$as$u20$core..fmt..Debug$GT$3fmt17hbc0339eb51da098aE
000000000046c9f0 l     F .text	0000000000000071              _ZN42_$LT$$RF$T$u20$as$u20$core..fmt..Debug$GT$3fmt17hc3e1716c0f20ad18E
000000000046ca70 l     F .text	0000000000000064              _ZN42_$LT$$RF$T$u20$as$u20$core..fmt..Debug$GT$3fmt17hcd2dc092f0a2b880E
000000000046cae0 l     F .text	0000000000000053              _ZN42_$LT$$RF$T$u20$as$u20$core..fmt..Debug$GT$3fmt17hd7dde701a0f14f8aE
000000000046cb40 l     F .text	0000000000000090              _ZN42_$LT$$RF$T$u20$as$u20$core..fmt..Debug$GT$3fmt17he306e7725ec394d0E
000000000046cbd0 l     F .text	0000000000000064              _ZN42_$LT$$RF$T$u20$as$u20$core..fmt..Debug$GT$3fmt17hea9c1e1a67f2d9ccE
000000000046cc40 l     F .text	0000000000000086              _ZN42_$LT$$RF$T$u20$as$u20$core..fmt..Debug$GT$3fmt17hf622738d134cb795E
000000000046ccd0 l     F .text	0000000000000001              _ZN4core3ptr27drop_in_place$LT$$RF$u8$GT$17h0475319270d2182bE
0000000000408560 l     F .text	0000000000000059              _ZN4core9panicking13assert_failed17hfa265444ddaadcb8E
00000000004085c0 l     F .text	0000000000000008              _ZN6memchr6memmem11genericsimd7matched17h011e15e529d1abd1E
00000000004085d0 l     F .text	0000000000000034              _ZN6memchr6memmem9prefilter11genericsimd7matched17h6f53512514b534b5E
000000000046e3f0 l     F .text	000000000000038d              _ZN6memchr6memmem9prefilter3x863sse4find17h7bab5c63b61156e7E
0000000000408610 l     F .text	000000000000008d              _ZN6memchr6memmem9rabinkarp9is_prefix17h8aa1c7c558d7d466E
00000000004086a0 l     F .text	000000000000009d              _ZN6memchr6memmem9rabinkarp9is_suffix17h0469cd07609246d6E
000000000046ec60 l     F .text	00000000000003e0              _ZN6memchr6memmem3x863sse7Forward9find_impl17h54ad48a3229024b5E
0000000000470970 l     F .text	000000000000072d              _ZN6memchr6memmem8Searcher7find_tw17h06250cd6ed05a177E
0000000000000000 l    df *ABS*	0000000000000000              addr2line.2f3eca84-cgu.0
0000000000472050 l     F .text	000000000000008a              _ZN5alloc7raw_vec11finish_grow17h752b1204ab9a6e2dE
00000000004720e0 l     F .text	00000000000000c4              _ZN5alloc7raw_vec19RawVec$LT$T$C$A$GT$16reserve_for_push17h959f22d546f54c92E
0000000000408740 l     F .text	00000000000000c4              _ZN5alloc7raw_vec19RawVec$LT$T$C$A$GT$7reserve21do_reserve_and_handle17h11eff3a69c753278E
0000000000000000 l    df *ABS*	0000000000000000              gimli.4e76dda6-cgu.0
0000000000472490 l     F .text	0000000000000029              _ZN42_$LT$$RF$T$u20$as$u20$core..fmt..Debug$GT$3fmt17h0bebf0443d6be72eE
00000000004724c0 l     F .text	000000000000027b              _ZN42_$LT$$RF$T$u20$as$u20$core..fmt..Debug$GT$3fmt17h0f84feb9739a0322E
00000000004733f0 l     F .text	0000000000000006              _ZN4core3ptr72drop_in_place$LT$alloc..collections..btree..mem..replace..PanicGuard$GT$17h6cf105afa1b6cb3cE
0000000000552374 l       .gcc_except_table	0000000000000000              GCC_except_table1
0000000000472740 l     F .text	0000000000000053              _ZN42_$LT$$RF$T$u20$as$u20$core..fmt..Debug$GT$3fmt17h123e5c37c49fe50dE
00000000004727a0 l     F .text	00000000000000a1              _ZN42_$LT$$RF$T$u20$as$u20$core..fmt..Debug$GT$3fmt17h141f6d5af99cc5eeE
0000000000472850 l     F .text	00000000000000c7              _ZN42_$LT$$RF$T$u20$as$u20$core..fmt..Debug$GT$3fmt17h15ec8df5b3a9cd80E
0000000000472920 l     F .text	0000000000000053              _ZN42_$LT$$RF$T$u20$as$u20$core..fmt..Debug$GT$3fmt17h1d258e363d0a8bd4E
0000000000472980 l     F .text	0000000000000053              _ZN42_$LT$$RF$T$u20$as$u20$core..fmt..Debug$GT$3fmt17h2677f719dce2c768E
00000000004729e0 l     F .text	000000000000002c              _ZN42_$LT$$RF$T$u20$as$u20$core..fmt..Debug$GT$3fmt17h26a50de77177c3f2E
0000000000472a10 l     F .text	00000000000000ba              _ZN42_$LT$$RF$T$u20$as$u20$core..fmt..Debug$GT$3fmt17h2c074bf50b3b9f7eE
0000000000472ad0 l     F .text	0000000000000009              _ZN42_$LT$$RF$T$u20$as$u20$core..fmt..Debug$GT$3fmt17h31ef235cf65e98e7E
0000000000472ae0 l     F .text	0000000000000048              _ZN42_$LT$$RF$T$u20$as$u20$core..fmt..Debug$GT$3fmt17h38b7b05ec3289477E
0000000000472b30 l     F .text	0000000000000009              _ZN42_$LT$$RF$T$u20$as$u20$core..fmt..Debug$GT$3fmt17h40a36091f8afb3c5E
0000000000472b40 l     F .text	000000000000008b              _ZN42_$LT$$RF$T$u20$as$u20$core..fmt..Debug$GT$3fmt17h428c36f3ad1fea8aE
0000000000472bd0 l     F .text	000000000000002c              _ZN42_$LT$$RF$T$u20$as$u20$core..fmt..Debug$GT$3fmt17h446624bf1b6d0daeE
0000000000472c00 l     F .text	0000000000000053              _ZN42_$LT$$RF$T$u20$as$u20$core..fmt..Debug$GT$3fmt17h4f9c2c7d94c26b22E
0000000000472c60 l     F .text	000000000000002c              _ZN42_$LT$$RF$T$u20$as$u20$core..fmt..Debug$GT$3fmt17h67ade016b3de4c37E
0000000000472c90 l     F .text	0000000000000053              _ZN42_$LT$$RF$T$u20$as$u20$core..fmt..Debug$GT$3fmt17h7057c0967b4d3851E
0000000000472cf0 l     F .text	000000000000002c              _ZN42_$LT$$RF$T$u20$as$u20$core..fmt..Debug$GT$3fmt17h7c8600640ff7689dE
0000000000472d20 l     F .text	0000000000000053              _ZN42_$LT$$RF$T$u20$as$u20$core..fmt..Debug$GT$3fmt17h7d0e33554f0ca85aE
0000000000472d80 l     F .text	0000000000000047              _ZN42_$LT$$RF$T$u20$as$u20$core..fmt..Debug$GT$3fmt17h812245dbe54b50f9E
0000000000472dd0 l     F .text	000000000000002c              _ZN42_$LT$$RF$T$u20$as$u20$core..fmt..Debug$GT$3fmt17h842cb38fb9342ae5E
0000000000472e00 l     F .text	000000000000004a              _ZN42_$LT$$RF$T$u20$as$u20$core..fmt..Debug$GT$3fmt17h8786c241db19c492E
0000000000472e50 l     F .text	0000000000000009              _ZN42_$LT$$RF$T$u20$as$u20$core..fmt..Debug$GT$3fmt17h8e6bb2df4eca74a4E
0000000000472e60 l     F .text	0000000000000053              _ZN42_$LT$$RF$T$u20$as$u20$core..fmt..Debug$GT$3fmt17ha0c09fa60aee1eedE
0000000000472ec0 l     F .text	000000000000002c              _ZN42_$LT$$RF$T$u20$as$u20$core..fmt..Debug$GT$3fmt17ha922bbf8c5bcfef1E
0000000000472ef0 l     F .text	000000000000005f              _ZN42_$LT$$RF$T$u20$as$u20$core..fmt..Debug$GT$3fmt17had023c24625ed9dbE
0000000000472f50 l     F .text	000000000000004c              _ZN42_$LT$$RF$T$u20$as$u20$core..fmt..Debug$GT$3fmt17haeba639f9c75a6bfE
0000000000472fa0 l     F .text	000000000000002c              _ZN42_$LT$$RF$T$u20$as$u20$core..fmt..Debug$GT$3fmt17hb67305b32f5ae1a8E
0000000000472fd0 l     F .text	0000000000000083              _ZN42_$LT$$RF$T$u20$as$u20$core..fmt..Debug$GT$3fmt17hb72c4b441b50a261E
0000000000473060 l     F .text	000000000000002c              _ZN42_$LT$$RF$T$u20$as$u20$core..fmt..Debug$GT$3fmt17hc333755fcbd224e1E
0000000000473090 l     F .text	000000000000002c              _ZN42_$LT$$RF$T$u20$as$u20$core..fmt..Debug$GT$3fmt17hc96f0ad0a0780a00E
00000000004730c0 l     F .text	0000000000000009              _ZN42_$LT$$RF$T$u20$as$u20$core..fmt..Debug$GT$3fmt17hd845b1610680db16E
00000000004730d0 l     F .text	00000000000000a1              _ZN42_$LT$$RF$T$u20$as$u20$core..fmt..Debug$GT$3fmt17hdb08cd83bb124fb7E
0000000000473180 l     F .text	000000000000002c              _ZN42_$LT$$RF$T$u20$as$u20$core..fmt..Debug$GT$3fmt17hdb822c8d2d681ee2E
00000000004731b0 l     F .text	0000000000000061              _ZN42_$LT$$RF$T$u20$as$u20$core..fmt..Debug$GT$3fmt17he474507c49f05760E
0000000000473220 l     F .text	0000000000000053              _ZN42_$LT$$RF$T$u20$as$u20$core..fmt..Debug$GT$3fmt17he5879d970ee98355E
0000000000473280 l     F .text	0000000000000066              _ZN42_$LT$$RF$T$u20$as$u20$core..fmt..Debug$GT$3fmt17hf384158a76b4bb2eE
00000000004732f0 l     F .text	000000000000002c              _ZN42_$LT$$RF$T$u20$as$u20$core..fmt..Debug$GT$3fmt17hf6371d6aeab1bfbbE
0000000000473320 l     F .text	0000000000000013              _ZN44_$LT$$RF$T$u20$as$u20$core..fmt..Display$GT$3fmt17hab0d91a6ba52d716E
0000000000473340 l     F .text	0000000000000001              _ZN4core3ptr112drop_in_place$LT$$RF$alloc..collections..btree..map..BTreeMap$LT$u64$C$gimli..read..abbrev..Abbreviation$GT$$GT$17h641e48fdf962f7bdE
0000000000473350 l     F .text	0000000000000010              _ZN4core3ptr134drop_in_place$LT$alloc..boxed..Box$LT$alloc..collections..btree..node..LeafNode$LT$u64$C$gimli..read..abbrev..Abbreviation$GT$$GT$$GT$17h789fe08ff0bec238E
0000000000473360 l     F .text	0000000000000010              _ZN4core3ptr138drop_in_place$LT$alloc..boxed..Box$LT$alloc..collections..btree..node..InternalNode$LT$u64$C$gimli..read..abbrev..Abbreviation$GT$$GT$$GT$17hd53a0b75ac8e661cE
0000000000473370 l     F .text	000000000000001f              _ZN4core3ptr42drop_in_place$LT$alloc..string..String$GT$17hd5ccb90f64370ec7E
0000000000473390 l     F .text	0000000000000023              _ZN4core3ptr52drop_in_place$LT$gimli..read..abbrev..Attributes$GT$17h273eedcb2d4a6fbeE
00000000004733c0 l     F .text	0000000000000024              _ZN4core3ptr68drop_in_place$LT$$LP$u64$C$gimli..read..abbrev..Abbreviation$RP$$GT$17h5869d5d93c9e34a9E
0000000000473400 l     F .text	000000000000001c              _ZN4core3ptr87drop_in_place$LT$alloc..vec..Vec$LT$gimli..read..abbrev..AttributeSpecification$GT$$GT$17h64ccfd24e1c2bf26E
0000000000408810 l     F .text	0000000000000060              _ZN4core9panicking13assert_failed17hbe468d591cb750caE
0000000000473420 l     F .text	0000000000000087              _ZN5alloc7raw_vec11finish_grow17hbb899f2c3b8ada21E
00000000004734b0 l     F .text	00000000000000cf              _ZN5alloc7raw_vec19RawVec$LT$T$C$A$GT$16reserve_for_push17h82d70abe156eeea4E
0000000000473580 l     F .text	00000000000000cc              _ZN5alloc7raw_vec19RawVec$LT$T$C$A$GT$16reserve_for_push17hfeccf313b0992d35E
0000000000552390 l       .gcc_except_table	0000000000000000              GCC_except_table58
00000000005523fc l       .gcc_except_table	0000000000000000              GCC_except_table59
0000000000552408 l       .gcc_except_table	0000000000000000              GCC_except_table61
00000000004f8e40 l     O .rodata	0000000000000019              str.0
00000000004f8e60 l     O .rodata	0000000000000039              str.2
0000000000552428 l       .gcc_except_table	0000000000000000              GCC_except_table122
000000000055243c l       .gcc_except_table	0000000000000000              GCC_except_table125
0000000000552450 l       .gcc_except_table	0000000000000000              GCC_except_table128
0000000000552464 l       .gcc_except_table	0000000000000000              GCC_except_table131
0000000000552478 l       .gcc_except_table	0000000000000000              GCC_except_table134
000000000055248c l       .gcc_except_table	0000000000000000              GCC_except_table137
00000000005524a0 l       .gcc_except_table	0000000000000000              GCC_except_table140
00000000005524b4 l       .gcc_except_table	0000000000000000              GCC_except_table143
00000000005524c8 l       .gcc_except_table	0000000000000000              GCC_except_table146
00000000005524dc l       .gcc_except_table	0000000000000000              GCC_except_table149
00000000005524f0 l       .gcc_except_table	0000000000000000              GCC_except_table152
0000000000552504 l       .gcc_except_table	0000000000000000              GCC_except_table155
0000000000552518 l       .gcc_except_table	0000000000000000              GCC_except_table158
000000000055252c l       .gcc_except_table	0000000000000000              GCC_except_table161
0000000000552540 l       .gcc_except_table	0000000000000000              GCC_except_table164
0000000000552554 l       .gcc_except_table	0000000000000000              GCC_except_table167
0000000000552568 l       .gcc_except_table	0000000000000000              GCC_except_table170
000000000055257c l       .gcc_except_table	0000000000000000              GCC_except_table173
0000000000552590 l       .gcc_except_table	0000000000000000              GCC_except_table176
00000000005525a4 l       .gcc_except_table	0000000000000000              GCC_except_table179
00000000005525b8 l       .gcc_except_table	0000000000000000              GCC_except_table182
00000000005525cc l       .gcc_except_table	0000000000000000              GCC_except_table185
00000000005525e0 l       .gcc_except_table	0000000000000000              GCC_except_table188
00000000005525f4 l       .gcc_except_table	0000000000000000              GCC_except_table191
0000000000552608 l       .gcc_except_table	0000000000000000              GCC_except_table194
000000000055261c l       .gcc_except_table	0000000000000000              GCC_except_table197
0000000000552630 l       .gcc_except_table	0000000000000000              GCC_except_table200
0000000000552644 l       .gcc_except_table	0000000000000000              GCC_except_table203
0000000000552658 l       .gcc_except_table	0000000000000000              GCC_except_table206
000000000055266c l       .gcc_except_table	0000000000000000              GCC_except_table209
0000000000552680 l       .gcc_except_table	0000000000000000              GCC_except_table212
0000000000000000 l    df *ABS*	0000000000000000              miniz_oxide.d1beca2b-cgu.0
0000000000489670 l     F .text	0000000000000009              _ZN42_$LT$$RF$T$u20$as$u20$core..fmt..Debug$GT$3fmt17h2e12780b4d82a119E
0000000000489680 l     F .text	0000000000000050              _ZN42_$LT$$RF$T$u20$as$u20$core..fmt..Debug$GT$3fmt17h668263284d4dc79dE
00000000004896d0 l     F .text	000000000000005e              _ZN42_$LT$$RF$T$u20$as$u20$core..fmt..Debug$GT$3fmt17h79a0dbd37d0ff2d1E
0000000000489730 l     F .text	0000000000000053              _ZN42_$LT$$RF$T$u20$as$u20$core..fmt..Debug$GT$3fmt17h93317a04c75b90beE
0000000000489790 l     F .text	0000000000000001              _ZN4core3ptr30drop_in_place$LT$$RF$usize$GT$17h912fd178a8be4b2aE
00000000004897a0 l     F .text	000000000000001f              _ZN4core3ptr46drop_in_place$LT$alloc..vec..Vec$LT$u8$GT$$GT$17h722d9a37b2222735E
00000000004897c0 l     F .text	0000000000000010              _ZN4core3ptr60drop_in_place$LT$miniz_oxide..deflate..core..ParamsOxide$GT$17h1e2dfe0030c35ea7E
00000000004897d0 l     F .text	0000000000000050              _ZN4core3ptr64drop_in_place$LT$miniz_oxide..deflate..core..CompressorOxide$GT$17hc97138305db5aa9eE
0000000000489820 l     F .text	0000000000000010              _ZN4core3ptr86drop_in_place$LT$alloc..boxed..Box$LT$miniz_oxide..deflate..core..HuffmanOxide$GT$$GT$17hc78629fb9c2dcfc2E
0000000000489830 l     F .text	0000000000000010              _ZN4core3ptr91drop_in_place$LT$alloc..boxed..Box$LT$miniz_oxide..inflate..core..DecompressorOxide$GT$$GT$17h9932b61cdbf988d1E
0000000000489840 l     F .text	000000000000008a              _ZN5alloc7raw_vec11finish_grow17h06be8ec23680a26bE
0000000000408870 l     F .text	00000000000000c4              _ZN5alloc7raw_vec19RawVec$LT$T$C$A$GT$7reserve21do_reserve_and_handle17hb93bc75d97849c10E
0000000000552698 l       .gcc_except_table	0000000000000000              GCC_except_table16
0000000000489e80 l     F .text	0000000000001003              _ZN11miniz_oxide7deflate4core12HuffmanOxide14optimize_table17hea212492da84d7bdE
000000000048b000 l     F .text	0000000000001513              _ZN11miniz_oxide7deflate4core14compress_block17hb5bd0ec31a27b87cE
000000000048c520 l     F .text	0000000000000a08              _ZN11miniz_oxide7deflate4core11flush_block17hd63f1b85833f4b93E
000000000048cf30 l     F .text	00000000000001e3              _ZN11miniz_oxide7deflate4core12record_match17h0f0048c8b1f8e119E
000000000048d120 l     F .text	000000000000010f              _ZN11miniz_oxide7deflate4core19flush_output_buffer17h249fa5bc5390e776E
000000000048ecf0 l     F .text	00000000000002f0              _ZN11miniz_oxide7deflate21compress_to_vec_inner17h217472e3a442dd4cE
00000000005526b4 l       .gcc_except_table	0000000000000000              GCC_except_table41
000000000048f0a0 l     F .text	000000000000057c              _ZN11miniz_oxide7inflate4core9init_tree17hf177bb1f51f8245eE
000000000048f620 l     F .text	00000000000002de              _ZN11miniz_oxide7inflate4core8transfer17hbefae21102d988f8E
000000000048f900 l     F .text	0000000000000207              _ZN11miniz_oxide7inflate4core11apply_match17h124d967f9ebe7ffeE
00000000005526e0 l       .gcc_except_table	0000000000000000              GCC_except_table58
0000000000000000 l    df *ABS*	0000000000000000              alloc.9cd654ea-cgu.0
0000000000494d90 l     F .text	0000000000000053              _ZN42_$LT$$RF$T$u20$as$u20$core..fmt..Debug$GT$3fmt17h2cb016e56d7c799dE
0000000000494df0 l     F .text	0000000000000053              _ZN42_$LT$$RF$T$u20$as$u20$core..fmt..Debug$GT$3fmt17h3385d31a4debbb53E
0000000000494e50 l     F .text	000000000000004c              _ZN42_$LT$$RF$T$u20$as$u20$core..fmt..Debug$GT$3fmt17h6ec7a25d8881fc5fE
0000000000494ea0 l     F .text	0000000000000009              _ZN42_$LT$$RF$T$u20$as$u20$core..fmt..Debug$GT$3fmt17h7668a7d66f0a2d79E
0000000000494eb0 l     F .text	0000000000000090              _ZN42_$LT$$RF$T$u20$as$u20$core..fmt..Debug$GT$3fmt17h838f3ed81eec1910E
0000000000494f40 l     F .text	0000000000000071              _ZN42_$LT$$RF$T$u20$as$u20$core..fmt..Debug$GT$3fmt17hbcf9007f1970d610E
0000000000494fc0 l     F .text	0000000000000013              _ZN42_$LT$$RF$T$u20$as$u20$core..fmt..Debug$GT$3fmt17hd78dc49117cd0403E
0000000000494fe0 l     F .text	0000000000000009              _ZN42_$LT$$RF$T$u20$as$u20$core..fmt..Debug$GT$3fmt17hdb6025311a04d175E
0000000000494ff0 l     F .text	0000000000000013              _ZN42_$LT$$RF$T$u20$as$u20$core..fmt..Debug$GT$3fmt17he79d0f22aa859badE
0000000000495010 l     F .text	0000000000000015              _ZN42_$LT$$RF$T$u20$as$u20$core..fmt..Debug$GT$3fmt17hf6fe877db8435eb4E
0000000000495030 l     F .text	0000000000000018              _ZN4core3ptr205drop_in_place$LT$$LT$alloc..boxed..Box$LT$dyn$u20$core..error..Error$u2b$core..marker..Send$u2b$core..marker..Sync$GT$$u20$as$u20$core..convert..From$LT$alloc..string..String$GT$$GT$..from..StringError$GT$17hd42dfa8162f95e7cE
0000000000495050 l     F .text	0000000000000001              _ZN4core3ptr27drop_in_place$LT$$RF$u8$GT$17ha55aeb3bf15fe026E
0000000000495060 l     F .text	0000000000000018              _ZN4core3ptr42drop_in_place$LT$alloc..string..String$GT$17hfdea6b875cfef3bcE
0000000000495080 l     F .text	0000000000000018              _ZN4core3ptr46drop_in_place$LT$alloc..vec..Vec$LT$u8$GT$$GT$17h6baf4516b5970d74E
00000000004950a0 l     F .text	000000000000001f              _ZN4core3ptr50drop_in_place$LT$alloc..borrow..Cow$LT$str$GT$$GT$17hed5774feaa2eda48E
00000000004950c0 l     F .text	0000000000000003              _ZN4core5error5Error5cause17h94be4707b0755130E
00000000004950d0 l     F .text	0000000000000003              _ZN4core5error5Error5cause17hfbc29c99cf47cf16E
00000000004950e0 l     F .text	0000000000000003              _ZN4core5error5Error6source17h66c0713b9082098eE
00000000004950f0 l     F .text	0000000000000001              _ZN4core5error5Error7provide17h3edae55190ddbd48E
0000000000495100 l     F .text	000000000000000b              _ZN4core5error5Error7type_id17h0064647232e28434E
0000000000495110 l     F .text	000000000000000b              _ZN4core5error5Error7type_id17hbade5248ff6f6b0fE
0000000000495120 l     F .text	000000000000000d              _ZN50_$LT$$RF$mut$u20$W$u20$as$u20$core..fmt..Write$GT$10write_char17h78f18e5075fd2c6cE
0000000000497e00 l     F .text	0000000000000121              _ZN5alloc6string6String4push17hd522760c47868155E
0000000000495130 l     F .text	0000000000000042              _ZN50_$LT$$RF$mut$u20$W$u20$as$u20$core..fmt..Write$GT$9write_fmt17hc7404540df906f85E
0000000000495180 l     F .text	0000000000000061              _ZN50_$LT$$RF$mut$u20$W$u20$as$u20$core..fmt..Write$GT$9write_str17hf0282703a23dabbaE
0000000000408940 l     F .text	00000000000000be              _ZN5alloc7raw_vec19RawVec$LT$T$C$A$GT$7reserve21do_reserve_and_handle17h17fb5ebcf698c538E
00000000004952b0 l     F .text	000000000000008a              _ZN5alloc7raw_vec11finish_grow17h21687731c0ce8ca7E
00000000004951f0 l     F .text	00000000000000be              _ZN5alloc7raw_vec19RawVec$LT$T$C$A$GT$16reserve_for_push17h73a8d38966a0a24eE
0000000000552714 l       .gcc_except_table	0000000000000000              GCC_except_table37
0000000000552720 l       .gcc_except_table	0000000000000000              GCC_except_table38
0000000000552734 l       .gcc_except_table	0000000000000000              GCC_except_table39
0000000000552748 l       .gcc_except_table	0000000000000000              GCC_except_table40
0000000000552760 l       .gcc_except_table	0000000000000000              GCC_except_table41
000000000055278c l       .gcc_except_table	0000000000000000              GCC_except_table48
00000000005527ac l       .gcc_except_table	0000000000000000              GCC_except_table49
00000000005527cc l       .gcc_except_table	0000000000000000              GCC_except_table50
0000000000498350 l     F .text	000000000000008a              _ZN5alloc3vec16Vec$LT$T$C$A$GT$16into_boxed_slice17hc025eea064a9bd6bE
00000000005527ec l       .gcc_except_table	0000000000000000              GCC_except_table52
000000000055280c l       .gcc_except_table	0000000000000000              GCC_except_table54
0000000000552828 l       .gcc_except_table	0000000000000000              GCC_except_table59
0000000000552844 l       .gcc_except_table	0000000000000000              GCC_except_table71
0000000000552860 l       .gcc_except_table	0000000000000000              GCC_except_table78
0000000000552874 l       .gcc_except_table	0000000000000000              GCC_except_table80
0000000000552894 l       .gcc_except_table	0000000000000000              GCC_except_table81
00000000005528c4 l       .gcc_except_table	0000000000000000              GCC_except_table82
00000000005528d4 l       .gcc_except_table	0000000000000000              GCC_except_table83
00000000005528f4 l       .gcc_except_table	0000000000000000              GCC_except_table84
0000000000552924 l       .gcc_except_table	0000000000000000              GCC_except_table85
000000000055293c l       .gcc_except_table	0000000000000000              GCC_except_table108
0000000000000000 l    df *ABS*	0000000000000000              core.4acfcb96-cgu.0
00000000004987a0 l     F .text	0000000000000012              _ZN4core3ops8function6FnOnce9call_once17hae59dfac0c820158E
00000000004987c0 l     F .text	0000000000000001              _ZN4core3ptr102drop_in_place$LT$$RF$core..iter..adapters..copied..Copied$LT$core..slice..iter..Iter$LT$u8$GT$$GT$$GT$17hfcd19792f526df8aE
0000000000505298 l     O .rodata	00000000000028b0              _ZN4core3num7dec2flt5table17POWER_OF_FIVE_12817hb74118bd78861744E
0000000000408e30 l     F .text	0000000000000056              _ZN4core9panicking13assert_failed17hc39178ae982534e1E
0000000000503448 l     O .rodata	0000000000000028              _ZN4core3num7flt2dec8strategy6dragon5POW1017hd2da02164bd4adb6E
0000000000503504 l     O .rodata	000000000000006c              _ZN4core3num7flt2dec8strategy6dragon10POW10TO25617h58ad8b8ba5757fc9E
0000000000503498 l     O .rodata	0000000000000008              _ZN4core3num7flt2dec8strategy6dragon9POW10TO1617h4c45f7640399a219E
00000000005034a0 l     O .rodata	0000000000000010              _ZN4core3num7flt2dec8strategy6dragon9POW10TO3217he41f238dc4a0e6faE
00000000005034b0 l     O .rodata	000000000000001c              _ZN4core3num7flt2dec8strategy6dragon9POW10TO6417h803a29e43da68bfbE
00000000005034cc l     O .rodata	0000000000000038              _ZN4core3num7flt2dec8strategy6dragon10POW10TO12817hc41b144f60a34623E
0000000000503470 l     O .rodata	0000000000000028              _ZN4core3num7flt2dec8strategy6dragon8TWOPOW1017h86681be60842f467E
0000000000503c00 l     O .rodata	0000000000000019              str.1
000000000049d160 l     F .text	0000000000000168              _ZN4core3num7flt2dec8strategy5grisu16format_exact_opt14possibly_round17hf24794c3b2f35278E
000000000049dbc0 l     F .text	00000000000001f4              _ZN4core3num14from_str_radix17h0b83b0b6933b4bd6E
000000000049ddc0 l     F .text	0000000000000268              _ZN4core3num14from_str_radix17h12cba388ebe966e6E
000000000049e030 l     F .text	0000000000000360              _ZN4core3num14from_str_radix17h1cc1bcbc76305907E
000000000049e390 l     F .text	0000000000000333              _ZN4core3num14from_str_radix17h55396e794af7d8c8E
000000000049e6d0 l     F .text	000000000000021a              _ZN4core3num14from_str_radix17h63fdae26372790e2E
000000000049e8f0 l     F .text	000000000000022a              _ZN4core3num14from_str_radix17h6644bbb8570065d7E
000000000049eb20 l     F .text	000000000000039f              _ZN4core3num14from_str_radix17h83a4bec0cbc34034E
000000000049eec0 l     F .text	00000000000002ba              _ZN4core3num14from_str_radix17hb6dee37e3636c05aE
000000000049f180 l     F .text	00000000000001c4              _ZN4core3num14from_str_radix17hbad9c722e9cb9773E
000000000049f350 l     F .text	00000000000004cf              _ZN4core3num14from_str_radix17hf629faab5c4a0d7cE
00000000004aec00 l     F .text	0000000000000012              _ZN69_$LT$core..num..nonzero..NonZeroUsize$u20$as$u20$core..fmt..Debug$GT$3fmt17h2f35f6370a538796E
00000000004b3330 l     F .text	0000000000000215              _ZN4core3fmt3num50_$LT$impl$u20$core..fmt..Debug$u20$for$u20$u32$GT$3fmt17hfae888e800f4a5dfE
000000000049fac0 l     F .text	000000000000007f              _ZN71_$LT$core..ops..range..Range$LT$Idx$GT$$u20$as$u20$core..fmt..Debug$GT$3fmt17h8780df6d9435c000E
00000000004b3770 l     F .text	0000000000000228              _ZN4core3fmt3num52_$LT$impl$u20$core..fmt..Debug$u20$for$u20$usize$GT$3fmt17h855c8063f38684f0E
000000000049fb40 l     F .text	000000000000000b              _ZN36_$LT$T$u20$as$u20$core..any..Any$GT$7type_id17h6d2568c249d5bf89E
00000000004a0f20 l     F .text	00000000000000aa              _ZN86_$LT$core..iter..adapters..filter..Filter$LT$I$C$P$GT$$u20$as$u20$core..fmt..Debug$GT$3fmt17h3c3e5c9db8f06a8eE
00000000004a1220 l     F .text	000000000000001d              _ZN4core9panicking9panic_str17he2d190e15dd7e6c1E
00000000004b7e90 l     F .text	0000000000000013              _ZN44_$LT$$RF$T$u20$as$u20$core..fmt..Display$GT$3fmt17hdd49f93e4db7c342E
00000000004b7eb0 l     F .text	0000000000000035              _ZN44_$LT$$RF$T$u20$as$u20$core..fmt..Display$GT$3fmt17hf60b6574286525a3E
00000000004b7e70 l     F .text	0000000000000016              _ZN44_$LT$$RF$T$u20$as$u20$core..fmt..Display$GT$3fmt17h36d5881133f14534E
0000000000552950 l       .gcc_except_table	0000000000000000              GCC_except_table169
00000000004a1240 l     F .text	0000000000000053              _ZN4core9panicking13panic_display17h45b76cd63e812370E
0000000000408dd0 l     F .text	0000000000000056              _ZN4core9panicking13assert_failed17had72e6a656737d79E
00000000004b7570 l     F .text	0000000000000010              _ZN42_$LT$$RF$T$u20$as$u20$core..fmt..Debug$GT$3fmt17hd5d2f686c0b72c38E
00000000004a1980 l     F .text	0000000000000119              _ZN4core3fmt8builders10DebugInner5entry17hb09d817a25e12be2E
00000000004a1e70 l     F .text	00000000000003b4              _ZN4core3fmt5float29float_to_decimal_common_exact17h7f896be5f9c83d02E
00000000004a4d10 l     F .text	0000000000000242              _ZN4core3fmt9Formatter19pad_formatted_parts17hc9e0ccbe63025edcE
00000000004a2230 l     F .text	00000000000003f6              _ZN4core3fmt5float29float_to_decimal_common_exact17hb0c40cb43fcb6438E
00000000004a2630 l     F .text	00000000000002f8              _ZN4core3fmt5float32float_to_decimal_common_shortest17he8f47865abb00bb7E
00000000004a2930 l     F .text	00000000000002cf              _ZN4core3fmt5float32float_to_decimal_common_shortest17hfe38998ba783281eE
00000000004a2c00 l     F .text	00000000000003eb              _ZN4core3fmt5float33float_to_exponential_common_exact17hb34e70a01837f2a0E
00000000004a2ff0 l     F .text	00000000000003bb              _ZN4core3fmt5float33float_to_exponential_common_exact17hc022f400deed2fb5E
00000000004a33b0 l     F .text	00000000000002bc              _ZN4core3fmt5float36float_to_exponential_common_shortest17h4cc647aca950249dE
00000000004a3670 l     F .text	000000000000028c              _ZN4core3fmt5float36float_to_exponential_common_shortest17h4ed08d4dde47bdf3E
00000000004a3900 l     F .text	00000000000003d6              _ZN4core3fmt3num14parse_u64_into17h20725308d9652c95E
00000000004a3d30 l     F .text	0000000000000197              _ZN4core3fmt3num8fmt_u12817h6e2bc78f19c38dadE
00000000004a3ed0 l     F .text	00000000000000db              _ZN4core3fmt5Write10write_char17h7ab569590ffbb9f9E
00000000004a3fb0 l     F .text	000000000000003f              _ZN4core3fmt5Write9write_fmt17hf032c6550980e0f0E
00000000004a3ff0 l     F .text	0000000000000009              _ZN50_$LT$$RF$mut$u20$W$u20$as$u20$core..fmt..Write$GT$9write_str17h54f60cb823bd427bE
00000000004a4000 l     F .text	00000000000000de              _ZN50_$LT$$RF$mut$u20$W$u20$as$u20$core..fmt..Write$GT$10write_char17ha6ff5dc01594268dE
00000000004a40e0 l     F .text	0000000000000042              _ZN50_$LT$$RF$mut$u20$W$u20$as$u20$core..fmt..Write$GT$9write_fmt17h1f7d520c675da8b2E
00000000004a4880 l     F .text	000000000000005c              _ZN4core3fmt9Formatter12pad_integral12write_prefix17h83329f216b07269aE
00000000004a4f60 l     F .text	00000000000002b8              _ZN4core3fmt9Formatter21write_formatted_parts17h5a12b20a9875f44dE
00000000004a5fe0 l     F .text	0000000000000032              _ZN41_$LT$bool$u20$as$u20$core..fmt..Debug$GT$3fmt17h1800f90810d9fc9bE
00000000004a69a0 l     F .text	00000000000000e6              _ZN52_$LT$$BP$const$u20$T$u20$as$u20$core..fmt..Debug$GT$3fmt17h0ebdb2ab26aeb09dE
00000000004a7410 l     F .text	0000000000000074              _ZN4core5slice5index29slice_start_index_len_fail_rt17h93e77f2fc16edfffE
00000000004a7490 l     F .text	0000000000000074              _ZN4core5slice5index27slice_end_index_len_fail_rt17he67751b56180fcebE
00000000004a7510 l     F .text	0000000000000074              _ZN4core5slice5index25slice_index_order_fail_rt17hfb094444d630a8b1E
00000000004a7690 l     F .text	00000000000000c9              _ZN74_$LT$core..slice..iter..Split$LT$T$C$P$GT$$u20$as$u20$core..fmt..Debug$GT$3fmt17h7fdf113c748a3770E
00000000004a86b0 l     F .text	0000000000000121              _ZN76_$LT$core..str..iter..SplitInternal$LT$P$GT$$u20$as$u20$core..fmt..Debug$GT$3fmt17h1b29e46610813125E
00000000004a87e0 l     F .text	0000000000000121              _ZN76_$LT$core..str..iter..SplitInternal$LT$P$GT$$u20$as$u20$core..fmt..Debug$GT$3fmt17hbc0afa51de9cd147E
00000000004a8960 l     F .text	00000000000000c9              _ZN87_$LT$core..str..pattern..CharPredicateSearcher$LT$F$GT$$u20$as$u20$core..fmt..Debug$GT$3fmt17h021a364ae46dd2d2E
00000000004aa530 l     F .text	0000000000000784              _ZN57_$LT$core..time..Duration$u20$as$u20$core..fmt..Debug$GT$3fmt11fmt_decimal17h1bece4b7c6ffa517E
00000000004aacc0 l     F .text	0000000000000226              _ZN57_$LT$core..time..Duration$u20$as$u20$core..fmt..Debug$GT$3fmt11fmt_decimal28_$u7b$$u7b$closure$u7d$$u7d$17hf8bc423fdb5bafb7E
00000000004aaf50 l     F .text	0000000000000126              _ZN4core7unicode9printable5check17hcf3611a0bcc21f5eE
00000000004b0b00 l     F .text	0000000000000092              _ZN94_$LT$core..iter..adapters..flatten..FlattenCompat$LT$I$C$U$GT$$u20$as$u20$core..fmt..Debug$GT$3fmt17h26072abe95b9abf1E
00000000004b0ba0 l     F .text	0000000000000092              _ZN94_$LT$core..iter..adapters..flatten..FlattenCompat$LT$I$C$U$GT$$u20$as$u20$core..fmt..Debug$GT$3fmt17h90a867502526d96bE
00000000004b0c40 l     F .text	0000000000000092              _ZN94_$LT$core..iter..adapters..flatten..FlattenCompat$LT$I$C$U$GT$$u20$as$u20$core..fmt..Debug$GT$3fmt17hb41e505ea8fafc7bE
00000000004b0ce0 l     F .text	0000000000000092              _ZN94_$LT$core..iter..adapters..flatten..FlattenCompat$LT$I$C$U$GT$$u20$as$u20$core..fmt..Debug$GT$3fmt17hb6737e83ead913a0E
00000000004b27d0 l     F .text	000000000000018c              _ZN4core3fmt3num49_$LT$impl$u20$core..fmt..Debug$u20$for$u20$i8$GT$3fmt17hdda4ae549ccb746aE
00000000004b2fd0 l     F .text	000000000000017a              _ZN4core3fmt3num49_$LT$impl$u20$core..fmt..Debug$u20$for$u20$u8$GT$3fmt17h1d18db74da95bde9E
00000000004b2960 l     F .text	0000000000000229              _ZN4core3fmt3num50_$LT$impl$u20$core..fmt..Debug$u20$for$u20$i16$GT$3fmt17h55c9e75429077740E
00000000004b3150 l     F .text	00000000000001dc              _ZN4core3fmt3num50_$LT$impl$u20$core..fmt..Debug$u20$for$u20$u16$GT$3fmt17hab615cf65d65fa5cE
00000000004b2b90 l     F .text	000000000000021d              _ZN4core3fmt3num50_$LT$impl$u20$core..fmt..Debug$u20$for$u20$i32$GT$3fmt17h08ad726449ed5b2eE
00000000004b2db0 l     F .text	0000000000000212              _ZN4core3fmt3num50_$LT$impl$u20$core..fmt..Debug$u20$for$u20$i64$GT$3fmt17h6784c2c7aafdb003E
00000000004b3550 l     F .text	0000000000000214              _ZN4core3fmt3num50_$LT$impl$u20$core..fmt..Debug$u20$for$u20$u64$GT$3fmt17h38ec332c4aa958bcE
00000000004b41e0 l     F .text	00000000000002f9              _ZN4core3fmt3num3imp7exp_u6417h13191a3792fb3ab2E
00000000004b4750 l     F .text	00000000000003b1              _ZN4core3fmt3num8exp_u12817h221ec7cdf0614adeE
00000000004b4c30 l     F .text	0000000000000013              _ZN42_$LT$$RF$T$u20$as$u20$core..fmt..Debug$GT$3fmt17h02ca5c2abd9542ebE
00000000004b4c50 l     F .text	0000000000000009              _ZN42_$LT$$RF$T$u20$as$u20$core..fmt..Debug$GT$3fmt17h0520d919c607b5c1E
00000000004b4c60 l     F .text	00000000000000b2              _ZN42_$LT$$RF$T$u20$as$u20$core..fmt..Debug$GT$3fmt17h08000a979b82873bE
00000000004b4d20 l     F .text	0000000000000115              _ZN42_$LT$$RF$T$u20$as$u20$core..fmt..Debug$GT$3fmt17h086d2e574891cfa6E
00000000004b4e40 l     F .text	0000000000000115              _ZN42_$LT$$RF$T$u20$as$u20$core..fmt..Debug$GT$3fmt17h0af46da07913b285E
00000000004b4f60 l     F .text	0000000000000077              _ZN42_$LT$$RF$T$u20$as$u20$core..fmt..Debug$GT$3fmt17h0ea6453cadd7e452E
00000000004b4fe0 l     F .text	000000000000000b              _ZN42_$LT$$RF$T$u20$as$u20$core..fmt..Debug$GT$3fmt17h120012dae8b1088aE
00000000004b4ff0 l     F .text	0000000000000010              _ZN42_$LT$$RF$T$u20$as$u20$core..fmt..Debug$GT$3fmt17h1700a9a5c1e7a832E
00000000004b5000 l     F .text	0000000000000009              _ZN42_$LT$$RF$T$u20$as$u20$core..fmt..Debug$GT$3fmt17h1713b2edee6eb49cE
00000000004b5010 l     F .text	00000000000000aa              _ZN42_$LT$$RF$T$u20$as$u20$core..fmt..Debug$GT$3fmt17h1c1d5f998d185305E
00000000004b50c0 l     F .text	00000000000000aa              _ZN42_$LT$$RF$T$u20$as$u20$core..fmt..Debug$GT$3fmt17h1ed94d3925cbd23cE
00000000004b5170 l     F .text	000000000000004c              _ZN42_$LT$$RF$T$u20$as$u20$core..fmt..Debug$GT$3fmt17h21c304e9b4760ac5E
00000000004b51c0 l     F .text	00000000000000b2              _ZN42_$LT$$RF$T$u20$as$u20$core..fmt..Debug$GT$3fmt17h2426c036cca42427E
00000000004b5280 l     F .text	00000000000000c0              _ZN42_$LT$$RF$T$u20$as$u20$core..fmt..Debug$GT$3fmt17h25d411eb0849a9e6E
00000000004b5340 l     F .text	00000000000000b2              _ZN42_$LT$$RF$T$u20$as$u20$core..fmt..Debug$GT$3fmt17h2897c32de3fd9cc8E
00000000004b5400 l     F .text	0000000000000009              _ZN42_$LT$$RF$T$u20$as$u20$core..fmt..Debug$GT$3fmt17h2af7f85908543de4E
00000000004b5410 l     F .text	0000000000000009              _ZN42_$LT$$RF$T$u20$as$u20$core..fmt..Debug$GT$3fmt17h3051c45f65dcef10E
00000000004b5420 l     F .text	00000000000000e9              _ZN42_$LT$$RF$T$u20$as$u20$core..fmt..Debug$GT$3fmt17h33a652a72dd6aa0cE
00000000004b5510 l     F .text	00000000000000aa              _ZN42_$LT$$RF$T$u20$as$u20$core..fmt..Debug$GT$3fmt17h34768f3cb046484dE
00000000004b55c0 l     F .text	00000000000000b2              _ZN42_$LT$$RF$T$u20$as$u20$core..fmt..Debug$GT$3fmt17h34f3d65a8e09730bE
00000000004b5680 l     F .text	00000000000000df              _ZN42_$LT$$RF$T$u20$as$u20$core..fmt..Debug$GT$3fmt17h3580e877d162950bE
00000000004b5760 l     F .text	000000000000000b              _ZN42_$LT$$RF$T$u20$as$u20$core..fmt..Debug$GT$3fmt17h3841fd6cba424f15E
00000000004b5770 l     F .text	00000000000000d3              _ZN42_$LT$$RF$T$u20$as$u20$core..fmt..Debug$GT$3fmt17h3dd80722fbbcaab1E
00000000004b5850 l     F .text	00000000000000dd              _ZN42_$LT$$RF$T$u20$as$u20$core..fmt..Debug$GT$3fmt17h3f57f53dc83020ffE
00000000004b5930 l     F .text	00000000000000aa              _ZN42_$LT$$RF$T$u20$as$u20$core..fmt..Debug$GT$3fmt17h41335b68e74fed5dE
00000000004b59e0 l     F .text	00000000000000e6              _ZN42_$LT$$RF$T$u20$as$u20$core..fmt..Debug$GT$3fmt17h41d97ce09a794e87E
00000000004b5ad0 l     F .text	00000000000000b2              _ZN42_$LT$$RF$T$u20$as$u20$core..fmt..Debug$GT$3fmt17h4b0eabbed099fca9E
00000000004b5b90 l     F .text	00000000000000b2              _ZN42_$LT$$RF$T$u20$as$u20$core..fmt..Debug$GT$3fmt17h4c24ff6607d59766E
00000000004b5c50 l     F .text	00000000000000b5              _ZN42_$LT$$RF$T$u20$as$u20$core..fmt..Debug$GT$3fmt17h502428eb2aac22ceE
00000000004b5d10 l     F .text	000000000000000a              _ZN42_$LT$$RF$T$u20$as$u20$core..fmt..Debug$GT$3fmt17h5c2d4ab76c46e825E
00000000004b5d20 l     F .text	00000000000000e9              _ZN42_$LT$$RF$T$u20$as$u20$core..fmt..Debug$GT$3fmt17h5c7de5e718011ca3E
00000000004b5e10 l     F .text	00000000000000ca              _ZN42_$LT$$RF$T$u20$as$u20$core..fmt..Debug$GT$3fmt17h5e39f16f35749c95E
00000000004b5ee0 l     F .text	000000000000007a              _ZN42_$LT$$RF$T$u20$as$u20$core..fmt..Debug$GT$3fmt17h605c9da6e41cdfd0E
00000000004b5f60 l     F .text	00000000000000b2              _ZN42_$LT$$RF$T$u20$as$u20$core..fmt..Debug$GT$3fmt17h609a2b052ed1606dE
00000000004b6020 l     F .text	00000000000000aa              _ZN42_$LT$$RF$T$u20$as$u20$core..fmt..Debug$GT$3fmt17h63906aab86010d41E
00000000004b60d0 l     F .text	00000000000000ec              _ZN42_$LT$$RF$T$u20$as$u20$core..fmt..Debug$GT$3fmt17h63c379dbca95fda6E
00000000004b61c0 l     F .text	00000000000000ac              _ZN42_$LT$$RF$T$u20$as$u20$core..fmt..Debug$GT$3fmt17h6c0bdf79530c38acE
00000000004b6270 l     F .text	00000000000000e6              _ZN42_$LT$$RF$T$u20$as$u20$core..fmt..Debug$GT$3fmt17h73e406e693435a11E
00000000004b6360 l     F .text	0000000000000038              _ZN42_$LT$$RF$T$u20$as$u20$core..fmt..Debug$GT$3fmt17h7458bb3a91b8ddcaE
00000000004b63a0 l     F .text	000000000000008b              _ZN42_$LT$$RF$T$u20$as$u20$core..fmt..Debug$GT$3fmt17h7473961841c8b8fcE
00000000004b6430 l     F .text	00000000000000aa              _ZN42_$LT$$RF$T$u20$as$u20$core..fmt..Debug$GT$3fmt17h75dc96a2718c75d8E
00000000004b64e0 l     F .text	000000000000003a              _ZN42_$LT$$RF$T$u20$as$u20$core..fmt..Debug$GT$3fmt17h75fa800e41b6200aE
00000000004b6520 l     F .text	0000000000000093              _ZN42_$LT$$RF$T$u20$as$u20$core..fmt..Debug$GT$3fmt17h78364df1f0514345E
00000000004b65c0 l     F .text	00000000000000ea              _ZN42_$LT$$RF$T$u20$as$u20$core..fmt..Debug$GT$3fmt17h7dc01c8afe7a0e3fE
00000000004b66b0 l     F .text	00000000000000b3              _ZN42_$LT$$RF$T$u20$as$u20$core..fmt..Debug$GT$3fmt17h7eecb8e43ab48fd7E
00000000004b6770 l     F .text	00000000000000e9              _ZN42_$LT$$RF$T$u20$as$u20$core..fmt..Debug$GT$3fmt17h8306d2ae4f724f57E
00000000004b6860 l     F .text	00000000000000c0              _ZN42_$LT$$RF$T$u20$as$u20$core..fmt..Debug$GT$3fmt17h854db045a3a971faE
00000000004b6920 l     F .text	00000000000000e9              _ZN42_$LT$$RF$T$u20$as$u20$core..fmt..Debug$GT$3fmt17h8573d9136b2c55b0E
00000000004b6a10 l     F .text	00000000000000b2              _ZN42_$LT$$RF$T$u20$as$u20$core..fmt..Debug$GT$3fmt17h866cba303192e9c5E
00000000004b6ad0 l     F .text	00000000000000ea              _ZN42_$LT$$RF$T$u20$as$u20$core..fmt..Debug$GT$3fmt17h8d6a66e06df4dbd3E
00000000004b6bc0 l     F .text	00000000000000e6              _ZN42_$LT$$RF$T$u20$as$u20$core..fmt..Debug$GT$3fmt17h92379e1a6f57dfb2E
00000000004b6cb0 l     F .text	0000000000000009              _ZN42_$LT$$RF$T$u20$as$u20$core..fmt..Debug$GT$3fmt17h983f02aa01c94d13E
00000000004b6cc0 l     F .text	00000000000000d3              _ZN42_$LT$$RF$T$u20$as$u20$core..fmt..Debug$GT$3fmt17h9ac6719af582af0eE
00000000004b6da0 l     F .text	000000000000008a              _ZN42_$LT$$RF$T$u20$as$u20$core..fmt..Debug$GT$3fmt17h9b6745f88fb498beE
00000000004b6e30 l     F .text	00000000000000eb              _ZN42_$LT$$RF$T$u20$as$u20$core..fmt..Debug$GT$3fmt17h9ea36c19a6a139e4E
00000000004b6f20 l     F .text	000000000000000b              _ZN42_$LT$$RF$T$u20$as$u20$core..fmt..Debug$GT$3fmt17ha4920fc4272a55ffE
00000000004b6f30 l     F .text	0000000000000009              _ZN42_$LT$$RF$T$u20$as$u20$core..fmt..Debug$GT$3fmt17ha7e96a56c89e0844E
00000000004b6f40 l     F .text	00000000000000e9              _ZN42_$LT$$RF$T$u20$as$u20$core..fmt..Debug$GT$3fmt17hae4873f6aa98527cE
00000000004b7030 l     F .text	000000000000003a              _ZN42_$LT$$RF$T$u20$as$u20$core..fmt..Debug$GT$3fmt17hb17916f307901066E
00000000004b7070 l     F .text	0000000000000015              _ZN42_$LT$$RF$T$u20$as$u20$core..fmt..Debug$GT$3fmt17hbe728527102d2fc3E
00000000004b7090 l     F .text	00000000000000e9              _ZN42_$LT$$RF$T$u20$as$u20$core..fmt..Debug$GT$3fmt17hbe8605057288295bE
00000000004b7180 l     F .text	0000000000000077              _ZN42_$LT$$RF$T$u20$as$u20$core..fmt..Debug$GT$3fmt17hc37e9eb884cfdaaeE
00000000004b7200 l     F .text	00000000000000b2              _ZN42_$LT$$RF$T$u20$as$u20$core..fmt..Debug$GT$3fmt17hc38fbd7e7ce67b62E
00000000004b72c0 l     F .text	00000000000000a1              _ZN42_$LT$$RF$T$u20$as$u20$core..fmt..Debug$GT$3fmt17hc7e8fc35abdd5738E
00000000004b7370 l     F .text	00000000000000eb              _ZN42_$LT$$RF$T$u20$as$u20$core..fmt..Debug$GT$3fmt17hc7ea90bf079e8498E
00000000004b7460 l     F .text	000000000000000b              _ZN42_$LT$$RF$T$u20$as$u20$core..fmt..Debug$GT$3fmt17hc866502faf428759E
00000000004b7470 l     F .text	0000000000000098              _ZN42_$LT$$RF$T$u20$as$u20$core..fmt..Debug$GT$3fmt17hc89133635d3ca0ffE
00000000004b7510 l     F .text	0000000000000009              _ZN42_$LT$$RF$T$u20$as$u20$core..fmt..Debug$GT$3fmt17hc8b5977affa89d86E
00000000004b7520 l     F .text	000000000000003a              _ZN42_$LT$$RF$T$u20$as$u20$core..fmt..Debug$GT$3fmt17hd184a28688e4d9a8E
00000000004b7560 l     F .text	000000000000000b              _ZN42_$LT$$RF$T$u20$as$u20$core..fmt..Debug$GT$3fmt17hd3f8c2b861a2853eE
00000000004b7580 l     F .text	0000000000000035              _ZN42_$LT$$RF$T$u20$as$u20$core..fmt..Debug$GT$3fmt17hd7a01ccde56dd00aE
00000000004b75c0 l     F .text	0000000000000077              _ZN42_$LT$$RF$T$u20$as$u20$core..fmt..Debug$GT$3fmt17hdcaf14d21f50d92aE
00000000004b7640 l     F .text	000000000000000b              _ZN42_$LT$$RF$T$u20$as$u20$core..fmt..Debug$GT$3fmt17hdce01edb61c1f6aaE
00000000004b7650 l     F .text	00000000000000eb              _ZN42_$LT$$RF$T$u20$as$u20$core..fmt..Debug$GT$3fmt17hdff1b29ece8d4d8cE
00000000004b7740 l     F .text	00000000000000b1              _ZN42_$LT$$RF$T$u20$as$u20$core..fmt..Debug$GT$3fmt17he052975ef875ebccE
00000000004b7800 l     F .text	00000000000000b3              _ZN42_$LT$$RF$T$u20$as$u20$core..fmt..Debug$GT$3fmt17he282610540e2eb82E
00000000004b78c0 l     F .text	00000000000000a1              _ZN42_$LT$$RF$T$u20$as$u20$core..fmt..Debug$GT$3fmt17he3129785f105d52dE
00000000004b7970 l     F .text	00000000000000db              _ZN42_$LT$$RF$T$u20$as$u20$core..fmt..Debug$GT$3fmt17he3868fdc23b7880eE
00000000004b7a50 l     F .text	0000000000000008              _ZN42_$LT$$RF$T$u20$as$u20$core..fmt..Debug$GT$3fmt17he3a0e658bc7e1c3dE
00000000004b7a60 l     F .text	0000000000000009              _ZN42_$LT$$RF$T$u20$as$u20$core..fmt..Debug$GT$3fmt17he455900723df801fE
00000000004b7a70 l     F .text	0000000000000008              _ZN42_$LT$$RF$T$u20$as$u20$core..fmt..Debug$GT$3fmt17he70f765407214bcfE
00000000004b7a80 l     F .text	0000000000000013              _ZN42_$LT$$RF$T$u20$as$u20$core..fmt..Debug$GT$3fmt17he9c0b7a3c7d215d7E
00000000004b7aa0 l     F .text	0000000000000077              _ZN42_$LT$$RF$T$u20$as$u20$core..fmt..Debug$GT$3fmt17hedc38848d08c85edE
00000000004b7b20 l     F .text	00000000000000aa              _ZN42_$LT$$RF$T$u20$as$u20$core..fmt..Debug$GT$3fmt17hefdec7872c7899faE
00000000004b7bd0 l     F .text	00000000000000aa              _ZN42_$LT$$RF$T$u20$as$u20$core..fmt..Debug$GT$3fmt17hf8fe3d23887ea6cbE
00000000004b7c80 l     F .text	00000000000000b2              _ZN42_$LT$$RF$T$u20$as$u20$core..fmt..Debug$GT$3fmt17hfa763227c5477ce3E
00000000004b7d40 l     F .text	0000000000000129              _ZN42_$LT$$RF$T$u20$as$u20$core..fmt..Debug$GT$3fmt17hfaed0f70e2ffb847E
00000000004b84a0 l     F .text	00000000000000b5              _ZN68_$LT$core..str..iter..Split$LT$P$GT$$u20$as$u20$core..fmt..Debug$GT$3fmt17h1bcd5512fd6ec8eeE
00000000004b8560 l     F .text	00000000000000b5              _ZN78_$LT$core..str..iter..SplitTerminator$LT$P$GT$$u20$as$u20$core..fmt..Debug$GT$3fmt17h58265ceae80b38f7E
0000000000508064 l     O .rodata	00000000000000d4              _ZN4core7unicode12unicode_data10alphabetic17SHORT_OFFSET_RUNS17h4203f2b706e701a1E
0000000000508138 l     O .rodata	00000000000005b9              _ZN4core7unicode12unicode_data10alphabetic7OFFSETS17h0a916595c0d08df2E
00000000005086f4 l     O .rodata	000000000000008c              _ZN4core7unicode12unicode_data14case_ignorable17SHORT_OFFSET_RUNS17h67ad609c1d49cb41E
0000000000508780 l     O .rodata	000000000000036b              _ZN4core7unicode12unicode_data14case_ignorable7OFFSETS17hd1391cae08456508E
0000000000508aec l     O .rodata	0000000000000058              _ZN4core7unicode12unicode_data5cased17SHORT_OFFSET_RUNS17h71fc84ea8c68c3eeE
0000000000508b44 l     O .rodata	000000000000013b              _ZN4core7unicode12unicode_data5cased7OFFSETS17hb9cc433886f257deE
0000000000508c80 l     O .rodata	0000000000000084              _ZN4core7unicode12unicode_data15grapheme_extend17SHORT_OFFSET_RUNS17h30741fac245ae9edE
0000000000508d04 l     O .rodata	00000000000002d7              _ZN4core7unicode12unicode_data15grapheme_extend7OFFSETS17h5ca59c55f88d5c2cE
000000000050937c l     O .rodata	000000000000009c              _ZN4core7unicode12unicode_data1n17SHORT_OFFSET_RUNS17h57d9e68128172c42E
0000000000509418 l     O .rodata	0000000000000113              _ZN4core7unicode12unicode_data1n7OFFSETS17h07c00712f6eb2b1aE
0000000000000000 l    df *ABS*	0000000000000000              a-finali.adb
000000000040929a l     F .text	000000000000000e              ada__finalization___assign__3.cold
00000000004092a8 l     F .text	000000000000001a              ada__finalization__Tlimited_controlledCFD.cold
0000000000000000 l    df *ABS*	0000000000000000              a-stream.adb
00000000004c7e90 l     F .text	0000000000000018              ada__streams__read_sea.part.0
00000000004092c2 l     F .text	000000000000001a              ada__streams__Troot_stream_typeCFD.cold
0000000000000000 l    df *ABS*	0000000000000000              a-sttebu.adb
00000000004092dc l     F .text	000000000000001a              ada__strings__text_buffers__Troot_buffer_typeCFD.cold
0000000000000000 l    df *ABS*	0000000000000000              a-textio.adb
00000000004ca3a0 l     F .text	000000000000014a              ada__text_io__get_line__get_chunk.1
00000000004ca4f0 l     F .text	0000000000000060              ada__text_io__get_upper_half_char__wc_in__char_sequence_to_utf__get_hex.6
00000000004ca550 l     F .text	0000000000000060              ada__text_io__get_upper_half_char_immed__wc_in__char_sequence_to_utf__get_hex.11
00000000004ca860 l     F .text	0000000000000018              ada__text_io__putc.part.0
00000000004ca880 l     F .text	0000000000000018              ada__text_io__ungetc.part.0
00000000004ca8a0 l     F .text	0000000000000086              ada__text_io__get_upper_half_char_immed__in_char.12
00000000004ca930 l     F .text	0000000000000055              ada__text_io__get_upper_half_char__in_char.7
00000000004092f6 l     F .text	000000000000001a              ada__text_io__Ttext_afcbCFD.cold
00000000004cc600 l     F .text	000000000000026d              ada__text_io__get_line__get_rest__3.2
0000000000000000 l    df *ABS*	0000000000000000              s-ficobl.ads
0000000000517490 l     O .rodata	0000000000000010              file_modeG.1
0000000000409310 l     F .text	000000000000001a              system__file_control_block__TafcbCFD.cold
0000000000000000 l    df *ABS*	0000000000000000              s-fileio.adb
00000000004cfde0 l     F .text	000000000000004d              system__file_io__raise_device_error
000000000040932a l     F .text	0000000000000010              system__file_io__raise_device_error.cold
00000000004cfe30 l     F .text	00000000000001a7              system__file_io__errno_message
00000000004cffe0 l     F .text	0000000000000018              system__file_io__check_file_open.part.0
00000000004d0000 l     F .text	0000000000000018              system__file_io__check_read_status.part.0
00000000004d0020 l     F .text	0000000000000018              system__file_io__check_write_status.part.0
00000000004d0040 l     F .text	00000000000000ec              system__file_io__fopen_mode.isra.0
000000000040933a l     F .text	000000000000001a              system__file_io__Tfile_io_clean_up_typeCFD.cold
0000000000409354 l     F .text	000000000000003d              system__file_io__chain_file.cold
00000000004d0230 l     F .text	0000000000000171              system__file_io__open__record_afcb.3
0000000000409392 l     F .text	000000000000003d              system__file_io__close.cold
00000000004093d0 l     F .text	000000000000003d              system__file_io__finalize__2.cold
000000000040940e l     F .text	0000000000000011              system__file_io__delete.cold
0000000000409420 l     F .text	0000000000000095              system__file_io__open.cold
00000000004094b6 l     F .text	0000000000000048              system__file_io__finalize_body.cold
0000000000000000 l    df *ABS*	0000000000000000              s-os_lib.adb
00000000004d1e00 l     F .text	000000000000007e              system__os_lib__spawn_internal__spawn__add_to_command.10
00000000004d1e80 l     F .text	000000000000004e              system__os_lib__to_path_string_access
00000000004d1ed0 l     F .text	0000000000000372              system__os_lib__copy_file__build_path.0
00000000004d2250 l     F .text	00000000000001fb              system__os_lib__normalize_pathname__final_value.15
00000000004d2460 l     F .text	0000000000000111              system__os_lib__copy_file__copy.1
00000000008007a0 l     O .data	0000000000000028              system__os_lib__copy_file__copy_error.17
00000000004d2580 l     F .text	000000000000004e              system__os_lib__normalize_pathname__missed_drive_letter.12
00000000004d25d0 l     F .text	00000000000002b7              system__os_lib__normalize_pathname__fill_directory.14
00000000004094fe l     F .text	000000000000003d              system__os_lib__gm_split.cold
00000000004d3920 l     F .text	0000000000000159              system__os_lib__create_temp_file_internal.constprop.0
000000000040953c l     F .text	000000000000003d              system__os_lib__create_temp_file_internal.constprop.0.cold
00000000004d4200 l     F .text	00000000000003fb              system__os_lib__spawn_internal
000000000040957a l     F .text	0000000000000011              system__os_lib__locate_exec_on_path.cold
000000000040958c l     F .text	0000000000000011              system__os_lib__locate_regular_file.cold
00000000004d54f0 l     F .text	0000000000000183              system__os_lib__copy_file__copy_to.2
00000000008007c8 l     O .data	0000000000000001              copy_errorF.18
000000000040959e l     F .text	0000000000000047              system__os_lib__copy_file.cold
00000000005180c0 l     O .rodata	0000000000000023              copy_errorE.16
0000000000000000 l    df *ABS*	0000000000000000              s-secsta.adb
00000000004095e6 l     F .text	0000000000000043              system__secondary_stack__allocate_dynamic.cold
0000000000000000 l    df *ABS*	0000000000000000              s-trasym.adb
00000000004d9720 l     F .text	0000000000000099              system__traceback__symbolic__hexa_traceback
00000000004d97c0 l     F .text	00000000000001a5              system__traceback__symbolic__module_cache_array_sort__sort__sift.4
00000000004d9970 l     F .text	0000000000000119              system__traceback__symbolic__module_cache_array_sort
000000000040962a l     F .text	000000000000005c              system__traceback__symbolic__module_name__getXnn.cold
0000000000409686 l     F .text	0000000000000010              system__traceback__symbolic__module_name__build_cache_for_all_modulesXnn.cold
0000000000409696 l     F .text	0000000000000010              system__traceback__symbolic__init_exec_module.cold
00000000004da1d0 l     F .text	000000000000037e              system__traceback__symbolic__multi_module_symbolic_traceback
00000000004da550 l     F .text	000000000000017a              system__traceback__symbolic__multi_module_symbolic_traceback__2
00000000004096a6 l     F .text	0000000000000012              system__traceback__symbolic__multi_module_symbolic_traceback.cold
00000000004096b8 l     F .text	0000000000000025              system__traceback__symbolic__multi_module_symbolic_traceback__2.cold
00000000004096de l     F .text	000000000000003d              system__traceback__symbolic__symbolic_traceback__3.cold
0000000000000000 l    df *ABS*	0000000000000000              s-objrea.adb
00000000004dbec0 l     F .text	0000000000000018              system__object_reader__seek.part.0
00000000004dbee0 l     F .text	0000000000000128              system__object_reader__xcoff32_ops__read_symbol__read_ld_symbol.0
0000000000518fd2 l     O .rodata	0000000000000002              object_formatT1.12
0000000000518fd0 l     O .rodata	0000000000000002              object_formatT2.11
0000000000518fc0 l     O .rodata	0000000000000010              object_formatG.10
0000000000518fb0 l     O .rodata	0000000000000010              object_archP.9
0000000000518fac l     O .rodata	0000000000000004              object_archT1.8
0000000000518fa8 l     O .rodata	0000000000000004              object_archT2.7
0000000000518f90 l     O .rodata	0000000000000017              object_archG.6
000000000040971c l     F .text	0000000000000010              system__object_reader__get_section__2.cold
000000000040972c l     F .text	000000000000007c              system__object_reader__open.cold
0000000000000000 l    df *ABS*	0000000000000000              s-dwalin.adb
00000000004df750 l     F .text	000000000000012b              system__dwarf_lines__sort_search_array__sort__sift.2
00000000004df880 l     F .text	00000000000000ca              system__dwarf_lines__read_entry_format_array.part.0
00000000004097a8 l     F .text	0000000000000039              system__dwarf_lines__dump_cache.cold
00000000004097e2 l     F .text	0000000000000031              system__dwarf_lines__read_and_execute_insn.cold
0000000000409814 l     F .text	0000000000000022              system__dwarf_lines__dump_row.cold
00000000004e1310 l     F .text	00000000000003a9              system__dwarf_lines__symbolic_address__set_result.8
0000000000409836 l     F .text	0000000000000026              system__dwarf_lines__symbolic_traceback.cold
0000000000000000 l    df *ABS*	0000000000000000              s-mmap.adb
000000000040985c l     F .text	000000000000005c              system__mmap__read.cold
00000000004098b8 l     F .text	00000000000000b4              system__mmap__read_whole_file.cold
0000000000000000 l    df *ABS*	0000000000000000              raise-gcc.c
00000000004e5d10 l     F .text	0000000000000142              read_encoded_value_with_base
000000000040996c l     F .text	0000000000000006              read_encoded_value_with_base.cold
00000000004e5e60 l     F .text	0000000000000055              base_of_encoded_value
0000000000409972 l     F .text	0000000000000006              base_of_encoded_value.cold
00000000004e5ec0 l     F .text	000000000000011c              db
0000000000800ba8 l     O .data	0000000000000004              accepted_codes.1
000000000080c810 l     O .bss	0000000000000004              current_indentation_level.0
00000000004e5fe0 l     F .text	00000000000000aa              db_action_for
0000000000519e20 l     O .rodata	0000000000000050              phase_descriptors
0000000000409978 l     F .text	0000000000000005              __gnat_personality_v0.cold
0000000000000000 l    df *ABS*	0000000000000000              a-stbuut.adb
000000000040997e l     F .text	0000000000000010              ada__strings__text_buffers__utils__utf_8_linesPredicate.cold
000000000040998e l     F .text	0000000000000010              ada__strings__text_buffers__utils__utf_8Predicate.cold
0000000000000000 l    df *ABS*	0000000000000000              unwind-dw2.c
00000000004e8ac0 l     F .text	000000000000007c              init_dwarf_reg_size_table
000000000080c830 l     O .bss	0000000000000012              dwarf_reg_size_table
00000000004e8b40 l     F .text	00000000000001a8              uw_install_context_1
000000000040999e l     F .text	0000000000000005              uw_install_context_1.cold
00000000004e8cf0 l     F .text	000000000000019f              read_encoded_value
00000000004099a3 l     F .text	0000000000000005              read_encoded_value.cold
00000000004e8e90 l     F .text	000000000000081c              execute_stack_op
00000000004099a8 l     F .text	000000000000000a              execute_stack_op.cold
00000000004e96b0 l     F .text	000000000000042c              uw_update_context_1
00000000004099b2 l     F .text	000000000000000a              uw_update_context_1.cold
00000000004e9ae0 l     F .text	000000000000084a              execute_cfa_program
00000000004099bc l     F .text	0000000000000005              execute_cfa_program.cold
00000000004ea330 l     F .text	0000000000000662              uw_frame_state_for
00000000004099c1 l     F .text	0000000000000005              uw_frame_state_for.cold
00000000004ea9a0 l     F .text	0000000000000175              uw_init_context_1
000000000080c820 l     O .bss	0000000000000004              once_regsizes.0
00000000004099c6 l     F .text	0000000000000005              uw_init_context_1.cold
00000000004eab20 l     F .text	000000000000015a              _Unwind_RaiseException_Phase2
00000000004099cb l     F .text	0000000000000005              _Unwind_RaiseException_Phase2.cold
00000000004eac80 l     F .text	000000000000017a              _Unwind_ForcedUnwind_Phase2
00000000004099d0 l     F .text	0000000000000005              _Unwind_ForcedUnwind_Phase2.cold
00000000004099d5 l     F .text	0000000000000006              _Unwind_GetGR.cold
00000000004099db l     F .text	0000000000000006              _Unwind_SetGR.cold
00000000004eb070 l     F .text	0000000000000005              _Unwind_DebugHook
00000000004099e1 l     F .text	0000000000000005              _Unwind_RaiseException.cold
00000000004099e6 l     F .text	0000000000000005              _Unwind_Resume.cold
00000000004099eb l     F .text	0000000000000005              _Unwind_Resume_or_Rethrow.cold
00000000004099f0 l     F .text	0000000000000005              _Unwind_Backtrace.cold
0000000000000000 l    df *ABS*	0000000000000000              unwind-dw2-fde-dip.c
00000000004eba20 l     F .text	000000000000001c              fde_unencoded_compare
00000000004eba40 l     F .text	00000000000000bf              frame_downheap
00000000004ebb00 l     F .text	000000000000009c              frame_heapsort
00000000004ebba0 l     F .text	0000000000000258              _Unwind_IteratePhdrCallback
0000000000800bd8 l     O .data	0000000000000008              adds.1
000000000080c880 l     O .bss	0000000000000180              frame_hdr_cache
000000000080c868 l     O .bss	0000000000000008              subs.2
000000000080c870 l     O .bss	0000000000000008              frame_hdr_cache_head
00000000004ebe00 l     F .text	0000000000000142              read_encoded_value_with_base
00000000004099f5 l     F .text	0000000000000006              read_encoded_value_with_base.cold
00000000004ebf50 l     F .text	0000000000000121              get_cie_encoding
00000000004ec080 l     F .text	0000000000000222              classify_object_over_fdes
00000000004099fb l     F .text	0000000000000005              classify_object_over_fdes.cold
00000000004ec2b0 l     F .text	000000000000009b              fde_single_encoding_compare
0000000000409a00 l     F .text	0000000000000005              fde_single_encoding_compare.cold
00000000004ec350 l     F .text	00000000000000f0              fde_mixed_encoding_compare
0000000000409a05 l     F .text	0000000000000005              fde_mixed_encoding_compare.cold
00000000004ec440 l     F .text	0000000000000295              add_fdes
0000000000409a0a l     F .text	0000000000000005              add_fdes.cold
00000000004ec6e0 l     F .text	00000000000002ed              linear_search_fdes
0000000000409a0f l     F .text	0000000000000005              linear_search_fdes.cold
00000000004ec9d0 l     F .text	00000000000006b0              search_object
000000000051a5a0 l     O .rodata	0000000000000008              terminator.3
000000000080c860 l     O .bss	0000000000000008              marker.4
0000000000409a14 l     F .text	0000000000000005              search_object.cold
000000000080ca00 l     O .bss	0000000000000028              object_mutex
000000000080ca38 l     O .bss	0000000000000008              unseen_objects
000000000080ca28 l     O .bss	0000000000000004              any_objects_registered
000000000080ca30 l     O .bss	0000000000000008              seen_objects
0000000000409a19 l     F .text	0000000000000005              _Unwind_Find_FDE.cold
0000000000000000 l    df *ABS*	0000000000000000              crtstuff.c
0000000000409a60 l     F .text	0000000000000000              deregister_tm_clones
0000000000409a90 l     F .text	0000000000000000              register_tm_clones
0000000000409ad0 l     F .text	0000000000000000              __do_global_dtors_aux
0000000000800c68 l     O .bss	0000000000000001              completed.0
00000000007f3428 l     O .fini_array	0000000000000000              __do_global_dtors_aux_fini_array_entry
0000000000409b00 l     F .text	0000000000000000              frame_dummy
00000000007f3420 l     O .init_array	0000000000000000              __frame_dummy_init_array_entry
0000000000000000 l    df *ABS*	0000000000000000              b~main.adb
0000000000409be0 l     F .text	0000000000000038              ada_main__finalize_library
0000000000800252 l     O .data	0000000000000001              ada_main__is_elaborated
00000000004edc9a l     O .rodata	0000000000000001              ada_main__local_priority_specific_dispatching
00000000004edc9b l     O .rodata	0000000000000001              ada_main__local_interrupt_states
0000000000800c80 l     O .bss	0000000000002860              ada_main__sec_default_sized_stacks
0000000000000000 l    df *ABS*	0000000000000000              main.adb
0000000000000000 l    df *ABS*	0000000000000000              lib.b5bc459a-cgu.1
0000000000000000 l    df *ABS*	0000000000000000              panic_unwind.0857a229-cgu.0
000000000045e340 l     F .text	000000000000005d              _ZN4core3ptr54drop_in_place$LT$panic_unwind..real_imp..Exception$GT$17h050712bde82ed57bE
000000000045e430 l     F .text	000000000000000c              _ZN5alloc5alloc8box_free17ha99dbe1b75d73e9eE
00000000005522d8 l       .gcc_except_table	0000000000000000              GCC_except_table0
000000000045e3a0 l     F .text	0000000000000072              _ZN4core3ptr79drop_in_place$LT$alloc..boxed..Box$LT$panic_unwind..real_imp..Exception$GT$$GT$17h4f2586a30e8d68dfE
000000000045e420 l     F .text	0000000000000010              _ZN5alloc5alloc8box_free17h3f7c15615d287bbdE
00000000005522e4 l       .gcc_except_table	0000000000000000              GCC_except_table1
00000000004f2500 l     O .rodata	0000000000000001              _ZN12panic_unwind8real_imp6CANARY17hecbce520c38043d6E
000000000045e570 l     F .text	000000000000001d              _ZN12panic_unwind8real_imp5panic17exception_cleanup17h775be8682db0d4fdE
00000000005522f0 l       .gcc_except_table	0000000000000000              GCC_except_table5
000000000055230c l       .gcc_except_table	0000000000000000              GCC_except_table6
0000000000000000 l    df *ABS*	0000000000000000              rustc_demangle.f4dd0940-cgu.0
0000000000482b70 l     F .text	0000000000000515              _ZN104_$LT$core..iter..sources..from_fn..FromFn$LT$F$GT$$u20$as$u20$core..iter..traits..iterator..Iterator$GT$4next17h85fd7b3d1d6e6685E
00000000004831c0 l     F .text	0000000000000012              _ZN4core3str5count11count_chars17h0660293f1a6f6cb1E
0000000000483260 l     F .text	0000000000000071              _ZN50_$LT$$RF$mut$u20$T$u20$as$u20$core..fmt..Debug$GT$3fmt17h41b5298af01a6fbbE
00000000004830f0 l     F .text	0000000000000013              _ZN42_$LT$$RF$T$u20$as$u20$core..fmt..Debug$GT$3fmt17hdf59c73f73e30ed7E
0000000000483090 l     F .text	0000000000000053              _ZN42_$LT$$RF$T$u20$as$u20$core..fmt..Debug$GT$3fmt17h1ff7c0892f2e8a21E
0000000000483110 l     F .text	0000000000000015              _ZN42_$LT$$RF$T$u20$as$u20$core..fmt..Debug$GT$3fmt17hfeb85c1b48f1ab73E
0000000000483130 l     F .text	0000000000000052              _ZN44_$LT$$RF$T$u20$as$u20$core..fmt..Display$GT$3fmt17hc919a15f0b78ea0aE
00000000004863e0 l     F .text	000000000000075a              _ZN14rustc_demangle2v07Printer10print_path17he6e8c4932c717426E
0000000000483190 l     F .text	0000000000000015              _ZN45_$LT$$LP$$RP$$u20$as$u20$core..fmt..Debug$GT$3fmt17h607289e0563c325eE
00000000004831b0 l     F .text	0000000000000001              _ZN4core3ptr110drop_in_place$LT$$RF$mut$u20$rustc_demangle..SizeLimitedFmtAdapter$LT$$RF$mut$u20$core..fmt..Formatter$GT$$GT$17ha6fbd1b8ae7626b5E
00000000004831e0 l     F .text	0000000000000031              _ZN4core3str6traits110_$LT$impl$u20$core..slice..index..SliceIndex$LT$str$GT$$u20$for$u20$core..ops..range..RangeTo$LT$usize$GT$$GT$5index17hf195ff77b7f6bbbeE
0000000000483220 l     F .text	0000000000000038              _ZN4core3str6traits112_$LT$impl$u20$core..slice..index..SliceIndex$LT$str$GT$$u20$for$u20$core..ops..range..RangeFrom$LT$usize$GT$$GT$5index17h9c710d882c4d146aE
00000000004832e0 l     F .text	00000000000000e0              _ZN50_$LT$$RF$mut$u20$W$u20$as$u20$core..fmt..Write$GT$10write_char17hd5bdf5fccca473f1E
00000000004833c0 l     F .text	0000000000000042              _ZN50_$LT$$RF$mut$u20$W$u20$as$u20$core..fmt..Write$GT$9write_fmt17hcb8c8b33a54f9c76E
0000000000483410 l     F .text	000000000000002c              _ZN50_$LT$$RF$mut$u20$W$u20$as$u20$core..fmt..Write$GT$9write_str17h055e04c89082a8ddE
0000000000483440 l     F .text	00000000000003b9              _ZN80_$LT$core..str..pattern..StrSearcher$u20$as$u20$core..str..pattern..Searcher$GT$4next17ha46a8d06bffc70d5E
0000000000483800 l     F .text	0000000000000212              _ZN81_$LT$core..str..pattern..CharSearcher$u20$as$u20$core..str..pattern..Searcher$GT$10next_match17h52c738fb7051fcb3E
0000000000484b00 l     F .text	00000000000001a3              _ZN14rustc_demangle2v010HexNibbles14try_parse_uint17hec8328de088edd8eE
0000000000484d20 l     F .text	00000000000000c8              _ZN14rustc_demangle2v06Parser11hex_nibbles17h96e8fcbf2bd7dd41E
0000000000484df0 l     F .text	00000000000000b5              _ZN14rustc_demangle2v06Parser10integer_6217h3754eaf1d37b77d0E
0000000000484eb0 l     F .text	00000000000000ca              _ZN14rustc_demangle2v06Parser13disambiguator17hf16fa7f975e6c834E
0000000000484f80 l     F .text	0000000000000055              _ZN14rustc_demangle2v06Parser9namespace17h7a7573a1bd4bacb2E
0000000000484fe0 l     F .text	00000000000001c7              _ZN14rustc_demangle2v06Parser5ident17hbdd0b3173d8f2b41E
00000000004851b0 l     F .text	000000000000004f              _ZN14rustc_demangle2v07Printer17skipping_printing17h0b7bbe16b20558adE
0000000000485200 l     F .text	00000000000001ae              _ZN14rustc_demangle2v07Printer13print_backref17h8a93bda8974a89bbE
00000000004853b0 l     F .text	00000000000001ae              _ZN14rustc_demangle2v07Printer13print_backref17hb5b8070fa88729f1E
0000000000487b20 l     F .text	0000000000000763              _ZN14rustc_demangle2v07Printer11print_const17h27ee030698419e4fE
0000000000485560 l     F .text	000000000000019b              _ZN14rustc_demangle2v07Printer13print_backref17hd0494913416e4f9dE
0000000000486c50 l     F .text	0000000000000519              _ZN14rustc_demangle2v07Printer10print_type17h34ac9ee853f6bd42E
0000000000485700 l     F .text	0000000000000162              _ZN14rustc_demangle2v07Printer26print_quoted_escaped_chars17h69184d4edda32214E
0000000000485870 l     F .text	00000000000000f1              _ZN14rustc_demangle2v07Printer25print_lifetime_from_index17h67fbe9fe5588b369E
0000000000485970 l     F .text	000000000000021e              _ZN14rustc_demangle2v07Printer9in_binder17ha2400db81af1613bE
0000000000487170 l     F .text	0000000000000515              _ZN14rustc_demangle2v07Printer10print_type28_$u7b$$u7b$closure$u7d$$u7d$17heab8b38698045a32E
0000000000485b90 l     F .text	0000000000000308              _ZN14rustc_demangle2v07Printer9in_binder17hb3aa2f5ae8af0453E
0000000000487910 l     F .text	0000000000000206              _ZN14rustc_demangle2v07Printer15print_dyn_trait17h57e45ab72c22ba1cE
0000000000485ea0 l     F .text	00000000000002a9              _ZN14rustc_demangle2v07Printer14print_sep_list17h09de8ff989e5bd8dE
0000000000486150 l     F .text	0000000000000098              _ZN14rustc_demangle2v07Printer14print_sep_list17h3d9ce409178f2610E
00000000004861f0 l     F .text	0000000000000093              _ZN14rustc_demangle2v07Printer14print_sep_list17ha1117a0fbd52e0e9E
0000000000486b40 l     F .text	000000000000010f              _ZN14rustc_demangle2v07Printer17print_generic_arg17h09709968be6cdeb9E
0000000000486290 l     F .text	000000000000009f              _ZN14rustc_demangle2v07Printer14print_sep_list17habfe1c4e6b8173c9E
0000000000486330 l     F .text	00000000000000a4              _ZN14rustc_demangle2v07Printer14print_sep_list17he1733b201e307a65E
0000000000487690 l     F .text	0000000000000274              _ZN14rustc_demangle2v07Printer30print_path_maybe_open_generics17h6a3b0a2d5a6be743E
0000000000488290 l     F .text	00000000000001e1              _ZN14rustc_demangle2v07Printer16print_const_uint17h31d862893c02c197E
0000000000488480 l     F .text	00000000000002d0              _ZN14rustc_demangle2v07Printer23print_const_str_literal17hd0e6f01597ff0eb1E
0000000000000000 l    df *ABS*	0000000000000000              adler.e8a2c075-cgu.0
0000000000493300 l     F .text	0000000000000053              _ZN42_$LT$$RF$T$u20$as$u20$core..fmt..Debug$GT$3fmt17hee2db9d2343735fbE
0000000000493360 l     F .text	0000000000000001              _ZN4core3ptr28drop_in_place$LT$$RF$u16$GT$17hf21a71919a3cab6fE
0000000000501810 l     O .rodata	0000000000000039              str.0
0000000000000000 l    df *ABS*	0000000000000000              libc.5bdde9c2-cgu.0
0000000000000000 l    df *ABS*	0000000000000000              compiler_builtins.2cbf27ff-cgu.124
0000000000000000 l    df *ABS*	0000000000000000              compiler_builtins.2cbf27ff-cgu.21
0000000000000000 l    df *ABS*	0000000000000000              compiler_builtins.2cbf27ff-cgu.42
0000000000000000 l    df *ABS*	0000000000000000              lib.b5bc459a-cgu.0
0000000000000000 l    df *ABS*	0000000000000000              2disnc7ewjmjuvqj
0000000000000000 l    df *ABS*	0000000000000000              a-contai.ads
0000000000000000 l    df *ABS*	0000000000000000              a-except.adb
0000000000515ae0 l     O .rodata	0000000000000010              h.10
00000000004c4cae l     F .text	0000000000000099              ada__exceptions__exception_data__set_exception_c_msg__append_number.0
00000000004c509a l     F .text	0000000000000011              ada__exceptions__exception_traces__notify_exception__B373b___finalizerXn.1
00000000004c5316 l     F .text	0000000000000018              ada__exceptions__stream_attributes__string_to_eo__bad_eo.3
00000000004c56c8 l     F .text	000000000000006c              ada__exceptions__stream_attributes__string_to_eo__next_string.2
00000000004c5b42 l     F .text	0000000000000012              ada__exceptions__raise_from_controlled_operation___finalizer.5
00000000004c5d76 l     F .text	0000000000000011              ada__exceptions__raise_from_controlled_operation__B_3___finalizer.4
00000000004c616e l     F .text	0000000000000011              ada__exceptions__rcheck_ce_index_check_ext___finalizer.6
00000000004c6366 l     F .text	0000000000000011              ada__exceptions__rcheck_ce_invalid_data_ext___finalizer.7
00000000004c6552 l     F .text	0000000000000011              ada__exceptions__rcheck_ce_range_check_ext___finalizer.8
0000000000515af0 l     O .rodata	0000000000000017              prefix.9
0000000000000000 l    df *ABS*	0000000000000000              a-ioexce.ads
0000000000000000 l    df *ABS*	0000000000000000              a-stmaco.ads
0000000000000000 l    df *ABS*	0000000000000000              a-string.ads
0000000000000000 l    df *ABS*	0000000000000000              a-strmap.adb
0000000000000000 l    df *ABS*	0000000000000000              a-stuten.adb
0000000000000000 l    df *ABS*	0000000000000000              a-tags.adb
00000000004c8ec0 l     F .text	0000000000000056              ada__tags__htable_subprograms__hashXn
00000000004c8f20 l     F .text	0000000000000071              ada__tags__external_tag_htable__getXn
0000000000803be0 l     O .bss	0000000000000200              ada__tags__external_tag_htable__tableXn
0000000000516a24 l     O .rodata	0000000000000002              prim_op_kindT1.8
0000000000516a22 l     O .rodata	0000000000000002              prim_op_kindT2.7
0000000000516a10 l     O .rodata	0000000000000012              prim_op_kindG.6
0000000000516a00 l     O .rodata	0000000000000010              tagged_kindP.5
00000000005169f4 l     O .rodata	0000000000000004              tagged_kindT1.4
00000000005169f0 l     O .rodata	0000000000000004              tagged_kindT2.3
00000000005169e0 l     O .rodata	0000000000000010              tagged_kindG.2
0000000000000000 l    df *ABS*	0000000000000000              i-c.adb
0000000000000000 l    df *ABS*	0000000000000000              i-cstrea.adb
0000000000517360 l     O .rodata	0000000000000019              content_encodingG.0
0000000000000000 l    df *ABS*	0000000000000000              s-bitops.adb
00000000004cf3c0 l     F .text	0000000000000018              system__bit_ops__raise_error
00000000005173f8 l     O .rodata	0000000000000008              system__bit_ops__masks
0000000000000000 l    df *ABS*	0000000000000000              s-excdeb.adb
0000000000000000 l    df *ABS*	0000000000000000              s-except.adb
0000000000000000 l    df *ABS*	0000000000000000              s-exctab.adb
00000000004cf5e0 l     F .text	0000000000000063              system__exception_table__register.part.0
0000000000000000 l    df *ABS*	0000000000000000              s-finroo.adb
0000000000000000 l    df *ABS*	0000000000000000              s-imgint.adb
0000000000000000 l    df *ABS*	0000000000000000              s-memory.adb
0000000000000000 l    df *ABS*	0000000000000000              s-putima.adb
00000000004d6300 l     F .text	0000000000000061              system__put_images__hex__put_digitsXn
00000000004d6370 l     F .text	00000000000000d8              system__put_images__thin_instance
00000000004d6450 l     F .text	0000000000000176              system__put_images__integer_images__put_digitsXn
00000000004d65d0 l     F .text	00000000000002ca              system__put_images__lll_integer_images__put_digitsXn
00000000004d68a0 l     F .text	000000000000015e              system__put_images__ll_integer_images__put_digitsXn
0000000000000000 l    df *ABS*	0000000000000000              s-soflin.adb
0000000000000000 l    df *ABS*	0000000000000000              s-soliin.adb
0000000000000000 l    df *ABS*	0000000000000000              s-stalib.adb
0000000000518472 l     O .rodata	0000000000000002              exception_trace_kindT1.2
0000000000518470 l     O .rodata	0000000000000002              exception_trace_kindT2.1
0000000000518460 l     O .rodata	0000000000000010              exception_trace_kindG.0
0000000000000000 l    df *ABS*	0000000000000000              s-traceb.adb
00000000004d9690 l     F .text	0000000000000012              system__traceback__call_chain__2
0000000000000000 l    df *ABS*	0000000000000000              s-traent.adb
0000000000000000 l    df *ABS*	0000000000000000              s-valllu.adb
0000000000000000 l    df *ABS*	0000000000000000              s-valuti.adb
0000000000000000 l    df *ABS*	0000000000000000              s-wchcon.adb
0000000000000000 l    df *ABS*	0000000000000000              s-wchjis.adb
0000000000000000 l    df *ABS*	0000000000000000              s-wchstw.adb
00000000004db510 l     F .text	0000000000000060              system__wch_stw__get_next_code__get_utf_32__get_hex.3
00000000004db570 l     F .text	000000000000070b              system__wch_stw__get_next_code__get_utf_32.1
00000000004dbc80 l     F .text	0000000000000129              system__wch_stw__get_next_code
0000000000000000 l    df *ABS*	0000000000000000              s-mmosin.adb
0000000000000000 l    df *ABS*	0000000000000000              s-excmac.adb
00000000005198f6 l     O .rodata	0000000000000002              unwind_reason_codeT1.2
00000000005198f4 l     O .rodata	0000000000000002              unwind_reason_codeT2.1
00000000005198e0 l     O .rodata	0000000000000013              unwind_reason_codeG.0
0000000000000000 l    df *ABS*	0000000000000000              adadecode.c
0000000000804780 l     O .bss	0000000000000004              verbose_info
0000000000000000 l    df *ABS*	0000000000000000              adaint.c
0000000000800b38 l     O .data	0000000000000004              file_names_case_sensitive_cache
0000000000804790 l     O .bss	0000000000000001              empty.0
0000000000000000 l    df *ABS*	0000000000000000              argv.c
0000000000000000 l    df *ABS*	0000000000000000              cio.c
0000000000000000 l    df *ABS*	0000000000000000              cstreams.c
0000000000000000 l    df *ABS*	0000000000000000              env.c
0000000000000000 l    df *ABS*	0000000000000000              errno.c
0000000000000000 l    df *ABS*	0000000000000000              exit.c
0000000000000000 l    df *ABS*	0000000000000000              final.c
0000000000000000 l    df *ABS*	0000000000000000              rtfinal.c
0000000000000000 l    df *ABS*	0000000000000000              rtinit.c
0000000000000000 l    df *ABS*	0000000000000000              init.c
00000000004e5840 l     F .text	0000000000000038              __gnat_error_handler
0000000000519d60 l     O .rodata	0000000000000028              CSWTCH.9
0000000000519d20 l     O .rodata	0000000000000028              CSWTCH.10
0000000000000000 l    df *ABS*	0000000000000000              initialize.c
0000000000000000 l    df *ABS*	0000000000000000              sysdep.c
0000000000000000 l    df *ABS*	0000000000000000              targext.c
0000000000000000 l    df *ABS*	0000000000000000              tracebak.c
00000000004e5c60 l     F .text	000000000000006a              trace_callback
0000000000000000 l    df *ABS*	0000000000000000              a-chahan.adb
0000000000000000 l    df *ABS*	0000000000000000              a-elchha.adb
000000000051a1a8 l     O .rodata	0000000000000001              nline.0
0000000000000000 l    df *ABS*	0000000000000000              a-exctra.adb
0000000000000000 l    df *ABS*	0000000000000000              a-suezst.adb
00000000004e77b0 l     F .text	0000000000000056              ada__strings__utf_encoding__wide_wide_strings__decode__get_continuation__2.0
0000000000000000 l    df *ABS*	0000000000000000              s-addima.adb
000000000051a1d0 l     O .rodata	0000000000000010              hexdigs.0
0000000000000000 l    df *ABS*	0000000000000000              s-boustr.adb
000000000051a1f0 l     O .rodata	0000000000000010              h.0
0000000000000000 l    df *ABS*	0000000000000000              s-casuti.adb
0000000000000000 l    df *ABS*	0000000000000000              s-exctra.adb
00000000004e8500 l     F .text	0000000000000031              system__exception_traces__decorator_wrapper
0000000000800bc0 l     O .data	0000000000000008              system__exception_traces__current_decorator
0000000000000000 l    df *ABS*	0000000000000000              s-imguns.adb
0000000000000000 l    df *ABS*	0000000000000000              s-io.adb
0000000000000000 l    df *ABS*	0000000000000000              s-vallli.adb
0000000000000000 l    df *ABS*	0000000000000000              raise.c
0000000000000000 l    df *ABS*	0000000000000000              libgcc2.c
0000000000000000 l    df *ABS*	0000000000000000              crtstuff.c
0000000000550204 l     O .eh_frame	0000000000000000              __FRAME_END__
0000000000000000 l    df *ABS*	0000000000000000              
00000000007f3428 l       .init_array	0000000000000000              __init_array_end
00000000007feeb0 l     O .dynamic	0000000000000000              _DYNAMIC
00000000007f3418 l       .init_array	0000000000000000              __init_array_start
000000000051a5a8 l       .eh_frame_hdr	0000000000000000              __GNU_EH_FRAME_HDR
00000000007fffe8 l     O .got.plt	0000000000000000              _GLOBAL_OFFSET_TABLE_
0000000000800bcc g     O .data	0000000000000001              system__io__current_out
000000000042ae20 g     F .text	00000000000001c5              _ZN3std3env11current_dir17h43e2f57afc27a455E
0000000000489990 g     F .text	00000000000001f5              _ZN11miniz_oxide7deflate4core15CompressorOxide3new17hcae1a081bd1da48fE
00000000008039c0 g     O .bss	0000000000000020              ada__strings__maps__constants__A144s
000000000049dae0 g     F .text	0000000000000015              _ZN72_$LT$core..num..error..TryFromIntError$u20$as$u20$core..fmt..Display$GT$3fmt17h7118b0c877c75cceE
00000000004dcf20 g     F .text	000000000000004a              system__object_reader__xcoff32_ops__read_headerXn
00000000004625c0 g     F .text	0000000000000007              _ZN6object4read2pe6export12ExportTarget10is_forward17h06794dc011b7672cE
000000000048ecd0 g     F .text	0000000000000014              _ZN11miniz_oxide7deflate20compress_to_vec_zlib17h64c904132a8ebd84E
000000000047e130 g     F .text	00000000000000f8              _ZN63_$LT$gimli..constants..DwForm$u20$as$u20$core..fmt..Display$GT$3fmt17haa164db96067310aE
0000000000408a90 g     F .text	0000000000000078              _ZN5alloc3vec16Vec$LT$T$C$A$GT$6insert13assert_failed17h94bb1c0e6506695eE
00000000004462a0 g     F .text	0000000000000075              .hidden __rdl_alloc_zeroed
0000000000471a40 g     F .text	0000000000000029              _ZN70_$LT$memchr..memmem..x86..sse..Forward$u20$as$u20$core..fmt..Debug$GT$3fmt17h60a2a63f4b6c5aefE
00000000004edc0c g     O .rodata	0000000000000004              ada__tagsB
000000000043c280 g     F .text	0000000000000049              _ZN3std2os4unix3net8datagram12UnixDatagram7unbound17h3950e88808730507E
000000000045c230 g     F .text	0000000000000010              _ZN89_$LT$std..backtrace_rs..symbolize..gimli..mmap..Mmap$u20$as$u20$core..ops..drop..Drop$GT$4drop17hbe9ed3606bfcc870E
0000000000408db0 g     F .text	0000000000000015              _ZN4core9panicking15panic_no_unwind17hb07180a78460155fE
00000000004edc54 g     O .rodata	0000000000000004              ada__finalizationS
000000000044a780 g     F .text	0000000000000004              _ZN3std3net3tcp11TcpListener8incoming17h770dd487aa8bb8ffE
00000000004ed9a0 g     F .text	0000000000000005              __libc_csu_fini
000000000043a7b0 g     F .text	000000000000004c              _ZN3std3net3tcp9TcpStream7set_ttl17h011402afd1ad2537E
00000000004a52c0 g     F .text	0000000000000007              _ZN4core3fmt9Formatter9sign_plus17h2fa51dc66ba0d8f4E
00000000004304a0 g     F .text	000000000000001f              _ZN60_$LT$std..io..error..Error$u20$as$u20$core..error..Error$GT$6source17h12198949e83c7b1cE
00000000004e5730 g     F .text	000000000000000c              __set_errno
0000000000493fc0 g     F .text	0000000000000022              _ZN82_$LT$libc..unix..linux_like..linux..dl_phdr_info$u20$as$u20$core..clone..Clone$GT$5clone17he69721a4c4d79907E
00000000004bb060 g     F .text	00000000000000bd              _ZN59_$LT$core..future..ResumeTy$u20$as$u20$core..fmt..Debug$GT$3fmt17hb305ad7d73fe96aaE
00000000004d5c80 g     F .text	00000000000000a6              system__os_lib__set_file_last_modify_time_stamp
00000000004436a0 g     F .text	000000000000004c              _ZN3std4time7Instant14duration_since17h313c5ee37f346db3E
00000000004dce80 g     F .text	000000000000009e              system__object_reader__xcoff32_ops__get_sectionXn
00000000008004f0 g     O .data	0000000000000008              ada__streams__root_stream_typeH25s
000000000049fc60 g     F .text	0000000000000002              _ZN103_$LT$core..array..TryFromSliceError$u20$as$u20$core..convert..From$LT$core..convert..Infallible$GT$$GT$4from17h69d65ae2989d766bE
0000000000442240 g     F .text	000000000000000b              _ZN95_$LT$std..process..CommandArgs$u20$as$u20$core..iter..traits..exact_size..ExactSizeIterator$GT$8is_empty17h98066cbf4316f67dE
000000000044ed60 g     F .text	0000000000000004              _ZN3std3sys4unix7process14process_common7Command7env_mut17h26a41c82ff388ed6E
0000000000516bb8 g     O .rodata	0000000000000008              ada__tags__dt_predef_prims_size
00000000004486b0 g     F .text	000000000000006e              _ZN59_$LT$std..io..error..Custom$u20$as$u20$core..fmt..Debug$GT$3fmt17h53d2bbc300aabf95E
0000000000463640 g     F .text	0000000000000006              _ZN6object4read2pe8resource57_$LT$impl$u20$object..pe..ImageResourceDirectoryEntry$GT$8has_name17h00da13383444284dE
00000000005168a0 g     O .rodata	0000000000000015              ada__strings__utf_encoding__encoding_schemeS
00000000005158f0 g     O .rodata	0000000000000019              ada__exceptions__rmsg_25
0000000000449bb0 g     F .text	000000000000002e              _ZN100_$LT$std..sys..unix..args..Args$u20$as$u20$core..iter..traits..double_ended..DoubleEndedIterator$GT$9next_back17hd0209189f0b99dd6E
00000000004cc140 g     F .text	0000000000000015              ada__text_io__line_length__2
00000000004e6e30 g     F .text	0000000000000067              ada__characters__handling__F106b
00000000005158a0 g     O .rodata	0000000000000021              ada__exceptions__rmsg_23
0000000000516fa0 g     O .rodata	0000000000000008              ada__text_io__out_name
0000000000499f80 g     F .text	00000000000001cf              _ZN4core3num7flt2dec8strategy6dragon9mul_pow1017hd33a75d1229d7251E
00000000004dfe10 g     F .text	0000000000000060              system__dwarf_lines__initialize_pass
0000000000493ed0 g     F .text	000000000000000a              _ZN80_$LT$libc..unix..linux_like..linux..input_mask$u20$as$u20$core..clone..Clone$GT$5clone17hcc0c0737220f1b69E
0000000000463460 g     F .text	0000000000000008              _ZN89_$LT$object..pe..ImageThunkData32$u20$as$u20$object..read..pe..import..ImageThunkData$GT$7address17hee5fe5d6c56a2024E
00000000004b0620 g     F .text	00000000000000bd              _ZN65_$LT$core..char..TryFromCharError$u20$as$u20$core..fmt..Debug$GT$3fmt17h91d4a470abdc38d9E
00000000004657b0 g     F .text	00000000000000ae              _ZN64_$LT$object..read..SymbolSection$u20$as$u20$core..fmt..Debug$GT$3fmt17h0ad705f89ed8e5daE
00000000004d30c0 g     F .text	000000000000005d              system__os_lib__file_time_stamp
00000000004eb920 g     F .text	00000000000000f7              .hidden _Unwind_Backtrace
00000000004a02e0 g     F .text	000000000000003c              _ZN84_$LT$core..char..EscapeDefault$u20$as$u20$core..iter..traits..iterator..Iterator$GT$4last17h20e8ed30ac2a98dbE
0000000000800708 g     O .data	0000000000000002              interfaces__c_E
00000000004e40d0 g     F .text	0000000000000024              __gnat_open_create
00000000004db370 g     F .text	0000000000000022              system__wch_con__is_start_of_encoding
0000000000000000       F *UND*	0000000000000000              getenv@GLIBC_2.2.5
00000000004d3190 g     F .text	0000000000000065              system__os_lib__get_executable_suffix
0000000000515870 g     O .rodata	0000000000000019              ada__exceptions__rmsg_21
000000000043e990 g     F .text	0000000000000004              _ZN3std4path6Prefix3len10os_str_len17ha4d127d3a61233d0E
00000000004c68d8 g     F .text	0000000000000033              ada__exceptions__save_occurrence__2
00000000004d5bb0 g     F .text	0000000000000017              system__os_lib__set_close_on_exec
00000000004deae0 g     F .text	000000000000008e              system__object_reader__xcoff32_ops__name__2Xn
00000000005186c5 g     O .rodata	0000000000000001              system__wch_con__wcem_hex
000000000046cfb0 g     F .text	00000000000001c7              _ZN6memchr6memchr8fallback7memchr317h2d86f5adb6e4ffadE
00000000004d2df0 g     F .text	0000000000000065              system__os_lib__delete_file
0000000000464710 g     F .text	0000000000000149              _ZN62_$LT$object..common..FileFlags$u20$as$u20$core..fmt..Debug$GT$3fmt17h8ac5b49d2cec2466E
0000000000409fc4 g     F .text	000000000000003d              _ada_main
000000000046e780 g     F .text	0000000000000015              _ZN75_$LT$memchr..memmem..prefilter..PrefilterFn$u20$as$u20$core..fmt..Debug$GT$3fmt17h3704b8f74c8c5d01E
00000000004d8c70 g     F .text	0000000000000018              system__secondary_stack__mark_idIP
0000000000441810 g     F .text	00000000000000b7              _ZN3std4path4Path7is_file17h56a249ff135dbb3aE
0000000000494c50 g     F .text	0000000000000012              _ZN87_$LT$libc..unix..linux_like..linux..gnu..align..sem_t$u20$as$u20$core..clone..Clone$GT$5clone17h646815aa005b8fa0E
000000000042b6c0 g     F .text	00000000000000af              _ZN3std3env4_var17h657932b79b13f22bE
00000000004aec60 g     F .text	0000000000000001              _ZN4core3num7nonzero11NonZeroI12813new_unchecked8comptime17h0c6067c9ad5b9de8E
00000000004736f0 g     F .text	000000000000002d              _ZN5gimli9constants6DwEhPe17is_valid_encoding17h0ebbd4ea5172f48cE
00000000004e6ea0 g     F .text	00000000000000aa              ada__characters__handling__to_lower__2
00000000004edac8 g     O .rodata	0000000000000004              system__exceptions_debugS
0000000000443540 g     F .text	0000000000000003              _ZN75_$LT$std..sync..mpmc..zero..ZeroToken$u20$as$u20$core..default..Default$GT$7default17hfd2c02db2c855881E
00000000004d2890 g     F .text	0000000000000245              system__os_lib__argument_string_to_list
00000000004bb3b0 g     F .text	0000000000000019              _ZN60_$LT$core..alloc..AllocError$u20$as$u20$core..fmt..Debug$GT$3fmt17hc5ae1108fcb884c7E
00000000004c6a7a g     F .text	00000000000000c3              ada__exceptions__wide_exception_name__2
0000000000464a90 g     F .text	0000000000000032              _ZN63_$LT$object..endian..Endianness$u20$as$u20$core..fmt..Debug$GT$3fmt17h89dcc22eef764c42E
00000000004326f0 g     F .text	0000000000000023              _ZN3std2io5stdio6stdout17hcc2a603a338b1dfaE
0000000000448d60 g     F .text	0000000000000029              _ZN69_$LT$std..net..parser..AddrParseError$u20$as$u20$core..fmt..Debug$GT$3fmt17h47083fab1404fdf2E
0000000000409b06 g     F .text	00000000000000da              ada_main__Tsec_default_sized_stacksBIP
00000000004dd170 g     F .text	0000000000000087              system__object_reader__elf64_ops__first_symbolXn
000000000044a780 g     F .text	0000000000000004              _ZN108_$LT$std..sys..unix..fd..FileDesc$u20$as$u20$std..sys_common..AsInner$LT$std..os..fd..owned..OwnedFd$GT$$GT$8as_inner17h2c96d4d2f27acaf2E
0000000000462cb0 g     F .text	0000000000000079              _ZN6object4read2pe6export11ExportTable17name_from_pointer17hd4aabc25f0bb3b9cE
00000000004439f0 g     F .text	000000000000007a              _ZN73_$LT$std..sys..unix..time..inner..Instant$u20$as$u20$core..fmt..Debug$GT$3fmt17hc819ef482dc71cfaE
00000000004c4f32 g     F .text	0000000000000051              __gnat_setup_current_excep
00000000004e5630 g     F .text	000000000000003b              __gnat_is_fifo
00000000004bdb60 g     F .text	00000000000003d3              _ZN66_$LT$core..core_arch..simd..u16x16$u20$as$u20$core..fmt..Debug$GT$3fmt17h141c87c7696be6b4E
00000000004d1d20 g     F .text	000000000000001d              system__img_int__impl__image_integer
0000000000471be0 g     F .text	0000000000000043              _ZN59_$LT$memchr..memmem..Finder$u20$as$u20$core..fmt..Debug$GT$3fmt17hc9ff22c33314f8d1E
00000000004eaef0 g     F .text	000000000000000c              .hidden _Unwind_GetRegionStart
00000000004af270 g     F .text	000000000000000e              _ZN4core3num23_$LT$impl$u20$isize$GT$14from_str_radix17h59e716c478edfcc2E
00000000004e8120 g     F .text	0000000000000009              system__bounded_strings__is_full
00000000004618f0 g     F .text	0000000000000068              _ZN66_$LT$object..read..util..DebugByte$u20$as$u20$core..fmt..Debug$GT$3fmt17h625b5add2d1d64f5E
0000000000494660 g     F .text	0000000000000022              _ZN114_$LT$libc..unix..linux_like..linux..gnu..__c_anonymous_ptrace_syscall_info_entry$u20$as$u20$core..clone..Clone$GT$5clone17h48d97c9f90501d0bE
00000000004e7670 g     F .text	000000000000002e              ada__strings__text_buffers__utils__put_character
000000000046d2c0 g     F .text	000000000000015b              _ZN6memchr6memchr8fallback8memrchr217h3724f06ade922b7aE
00000000004e2f50 g     F .text	0000000000000005              system__mmap__is_mmapped
00000000004e7700 g     F .text	0000000000000016              ada__strings__text_buffers__utils__put_utf_8_lines
0000000000000000       F *UND*	0000000000000000              dl_iterate_phdr@GLIBC_2.2.5
00000000004753d0 g     F .text	0000000000000076              _ZN5gimli4read5value9ValueType13from_encoding17h214989ff4f20c779E
0000000000452460 g     F .text	00000000000000de              _ZN3std3sys4unix17thread_local_dtor13register_dtor17hc2927b720db8750fE
00000000004c7e80 g     F .text	000000000000000f              ada__streams__root_stream_typePI
00000000004d5a80 g     F .text	0000000000000126              system__os_lib__rename_file
0000000000430480 g     F .text	000000000000001f              _ZN60_$LT$std..io..error..Error$u20$as$u20$core..error..Error$GT$5cause17hefae410f8c0a1d9dE
00000000004e2f60 g     F .text	000000000000000e              system__mmap__get_page_size
00000000004b16e0 g     F .text	000000000000000b              _ZN50_$LT$i32$u20$as$u20$core..fmt..num..DisplayInt$GT$7to_u12817h0d7e6b78cacf1e10E
00000000004c9050 g     F .text	00000000000000c6              ada__tags__prim_op_kindH
0000000000450450 g     F .text	000000000000001f              _ZN111_$LT$std..sys..unix..process..process_common..CommandArgs$u20$as$u20$core..iter..traits..iterator..Iterator$GT$4next17hf989275b6ef64fbcE
0000000000450210 g     F .text	00000000000001f0              _ZN85_$LT$std..sys..unix..process..process_common..Command$u20$as$u20$core..fmt..Debug$GT$3fmt17h353c8a24b78bc6bbE
00000000004edb98 g     O .rodata	0000000000000004              system__case_utilS
0000000000464af0 g     F .text	0000000000000015              _ZN62_$LT$object..endian..BigEndian$u20$as$u20$core..fmt..Debug$GT$3fmt17hac902e654aa1e647E
00000000004cfd20 g     F .text	0000000000000035              system__file_control_block__afcbIP
00000000004389d0 g     F .text	0000000000000005              _ZN3std3net11socket_addr12SocketAddrV44port17heefb31a9a00d6a72E
00000000004af260 g     F .text	0000000000000005              _ZN4core3num21_$LT$impl$u20$i32$GT$14from_str_radix17h6e0e4816a8ad317aE
0000000000800bae g     O .data	0000000000000002              ada__exceptions__last_chance_handler_E
00000000004d1c10 g     F .text	0000000000000101              system__img_int__impl__set_image_integer
00000000004cd3b0 g     F .text	00000000000000fc              ada__text_io__set_wcem
000000000043b0c0 g     F .text	0000000000000003              _ZN74_$LT$std..fs..Permissions$u20$as$u20$std..os..unix..fs..PermissionsExt$GT$8set_mode17h9d3838b053856bfeE
000000000047f8d0 g     F .text	0000000000000105              _ZN62_$LT$gimli..constants..DwOrd$u20$as$u20$core..fmt..Display$GT$3fmt17hb99a8a548b02454dE
00000000004e28c0 g     F .text	0000000000000020              system__mmap__mapped_region_recordIP
0000000000489da0 g     F .text	000000000000008b              _ZN11miniz_oxide7deflate4core15CompressorOxide20set_format_and_level17h942c117d1161cf86E
0000000000489d10 g     F .text	0000000000000086              _ZN11miniz_oxide7deflate4core15CompressorOxide25set_compression_level_raw17he2c1e7ef0b65ee9aE
000000000049d3d0 g     F .text	000000000000016e              _ZN4core3num7flt2dec17digits_to_dec_str17h030364c8c3e97555E
00000000004384f0 g     F .text	00000000000000c5              _ZN3std3net6parser92_$LT$impl$u20$core..str..traits..FromStr$u20$for$u20$std..net..socket_addr..SocketAddrV4$GT$8from_str17h2a203aa6443c0600E
00000000004c2370 g     F .text	0000000000000231              _ZN65_$LT$core..core_arch..simd..f64x8$u20$as$u20$core..fmt..Debug$GT$3fmt17hefe416006074366dE
00000000004b46b0 g     F .text	0000000000000025              _ZN4core3fmt3num3imp53_$LT$impl$u20$core..fmt..UpperExp$u20$for$u20$i32$GT$3fmt17h29227a4531a62c9eE
0000000000466410 g     F .text	00000000000000d7              _ZN75_$LT$object..macho..ScatteredRelocationInfo$u20$as$u20$core..fmt..Debug$GT$3fmt17h25d14260fcfd51e8E
00000000004dd460 g     F .text	0000000000000001              system__object_reader__elf32_ops__Te_ident_typeBIPXn
0000000000000000       F *UND*	0000000000000000              utime@GLIBC_2.2.5
00000000005182c0 g     O .rodata	0000000000000010              system__put_images__lll_integer_images__baseXn
00000000004e5430 g     F .text	000000000000002b              __gnat_len_env
00000000004e5740 g     F .text	0000000000000007              __gnat_set_exit_status
00000000004ab830 g     F .text	000000000000024a              _ZN4core3num6bignum8Big32x409add_small17hba1c5dc46fbe9a50E
0000000000000000       F *UND*	0000000000000000              pthread_attr_getguardsize@GLIBC_2.2.5
000000000043dac0 g     F .text	0000000000000046              _ZN3std3net3udp9UdpSocket15set_nonblocking17h870a35c33d96a576E
00000000004edadc g     O .rodata	0000000000000004              system__tracebackS
00000000004423e0 g     F .text	0000000000000003              _ZN74_$LT$std..sys..unix..fd..FileDesc$u20$as$u20$std..os..fd..raw..AsRawFd$GT$9as_raw_fd17h5952ad0cd26175bbE
0000000000494c70 g     F .text	000000000000001a              _ZN93_$LT$libc..unix..linux_like..linux..arch..generic..termios2$u20$as$u20$core..clone..Clone$GT$5clone17h68761b0e1877fa15E
000000000042f1d0 g     F .text	0000000000000057              _ZN111_$LT$std..io..buffered..bufwriter..BufWriter$LT$W$GT$..flush_buf..BufGuard$u20$as$u20$core..ops..drop..Drop$GT$4drop17h070e727f67b36e24E
00000000004ac5f0 g     F .text	00000000000000a4              _ZN4core3num6bignum8Big32x4013div_rem_small17hbe52301d0e06037fE
00000000004942b0 g     F .text	0000000000000012              _ZN79_$LT$libc..unix..linux_like..linux..in6_ifreq$u20$as$u20$core..clone..Clone$GT$5clone17h2471f99585b055eeE
00000000004eae00 g     F .text	000000000000003c              .hidden _Unwind_GetGR
000000000042f180 g     F .text	000000000000002c              _ZN3std2io8buffered9bufwriter18BufWriter$LT$W$GT$9flush_buf8BufGuard9remaining17h08723ab6b125f287E
00000000004dc3b0 g     F .text	0000000000000007              system__object_reader__elf_object_filePredicate
00000000004941a0 g     F .text	000000000000001a              _ZN82_$LT$libc..unix..linux_like..linux..arpd_request$u20$as$u20$core..clone..Clone$GT$5clone17h35e8f7d4d470e701E
0000000000464d10 g     F .text	0000000000000029              _ZN77_$LT$object..read..elf..version..VersionIndex$u20$as$u20$core..fmt..Debug$GT$3fmt17h59fe48d07c705b5cE
00000000004c609c g     F .text	000000000000000e              __gnat_rcheck_PE_Explicit_Raise
00000000004de760 g     F .text	0000000000000005              system__object_reader__size__2
000000000051735c g     O .rodata	0000000000000001              interfaces__c__nul
00000000004e3410 g     F .text	0000000000000022              system__exceptions__machine__gnat_gcc_exceptionIP
0000000000449780 g     F .text	0000000000000043              _ZN70_$LT$std..sync..mpmc..context..Context$u20$as$u20$core..fmt..Debug$GT$3fmt17h8a06363f448b28eaE
00000000004d9650 g     F .text	0000000000000021              system__standard_library__adafinal
00000000004db3a0 g     F .text	000000000000004b              system__wch_jis__euc_to_jis
0000000000000000       F *UND*	0000000000000000              free@GLIBC_2.2.5
00000000008005ea g     O .data	0000000000000002              ada__strings__maps_E
0000000000448c10 g     F .text	00000000000000a9              _ZN74_$LT$std..net..ip_addr..Ipv6MulticastScope$u20$as$u20$core..fmt..Debug$GT$3fmt17hd1adbf96845e105cE
00000000004ae640 g     F .text	00000000000000d8              _ZN73_$LT$core..num..flt2dec..decoder..Decoded$u20$as$u20$core..fmt..Debug$GT$3fmt17h5f040e127b72441eE
00000000004cacd0 g     F .text	0000000000000005              ada__text_io__flush
000000000043af50 g     F .text	000000000000004c              _ZN59_$LT$std..net..tcp..TcpStream$u20$as$u20$std..io..Write$GT$5write17h85bc79d7cba3141bE
00000000004e54e0 g     F .text	0000000000000015              put_int
00000000004a94e0 g     F .text	0000000000000007              _ZN4core3str5lossy10Utf8Chunks3new17hf9b3436bb52c1373E
0000000000800a5e g     O .data	0000000000000002              system__val_util_E
00000000004c5ac4 g     F .text	0000000000000015              ada__exceptions__raise_exception
00000000004dd8b0 g     F .text	0000000000000004              system__object_reader__format
0000000000516ac0 g     O .rodata	0000000000000012              ada__tags__prim_op_kindN
0000000000442140 g     F .text	0000000000000022              _ZN3std7process7Command8get_args17h7a7ba8cacb13473aE
00000000004e8180 g     F .text	0000000000000028              system__case_util__to_lower
000000000043b000 g     F .text	000000000000005b              _ZN60_$LT$std..fs..File$u20$as$u20$std..os..unix..fs..FileExt$GT$7read_at17h26bd0c80da3ca3c3E
00000000004b16c0 g     F .text	0000000000000003              _ZN50_$LT$u32$u20$as$u20$core..fmt..num..DisplayInt$GT$6to_u3217h31f2ca9f62c126f2E
00000000004d08f0 g     F .text	0000000000000096              system__file_io__form
00000000004d9310 g     F .text	0000000000000003              system__soft_links__current_master_nt
0000000000443a70 g     F .text	0000000000000007              _ZN3std4time10SystemTime3now17h73c39be31a277b61E
00000000004e34a0 g     F .text	0000000000000709              __gnat_decode
00000000004d1db0 g     F .text	0000000000000041              __gnat_realloc
00000000008047b0 g     O .bss	0000000000000004              __gnat_constant_iofbf
00000000004d9510 g     F .text	0000000000000037              system__soft_links__initialize___elabb
00000000004e5220 g     F .text	0000000000000003              __gnat_get_executable_load_address
0000000000000000       F *UND*	0000000000000000              recv@GLIBC_2.2.5
0000000000498010 g     F .text	000000000000000d              _ZN68_$LT$alloc..string..FromUtf16Error$u20$as$u20$core..error..Error$GT$11description17hc985e34cdc4d01c8E
0000000000438980 g     F .text	0000000000000008              _ZN3std3net11socket_addr10SocketAddr7is_ipv417h97f5b4cf7d2b264cE
0000000000427d30 g     F .text	000000000000009e              _ZN3std6thread12park_timeout17h7255b6bf2209aee2E
00000000004960a0 g     F .text	0000000000000100              _ZN5alloc3ffi5c_str7CString19_from_vec_unchecked17ha855317bebb007baE
00000000004c95e0 g     F .text	0000000000000073              ada__tags__iw_membership__2
000000000042f1c0 g     F .text	000000000000000f              _ZN3std2io8buffered9bufwriter18BufWriter$LT$W$GT$9flush_buf8BufGuard4done17h4320c37c8aa77028E
0000000000449120 g     F .text	0000000000000139              _ZN54_$LT$std..path..Prefix$u20$as$u20$core..fmt..Debug$GT$3fmt17hc581523721819eaeE
00000000004e4f50 g     F .text	000000000000000a              __gnat_locate_regular_file
00000000004cf860 g     F .text	0000000000000015              system__exception_table__register
00000000004adf70 g     F .text	000000000000007e              _ZN74_$LT$core..num..bignum..tests..Big8x3$u20$as$u20$core..cmp..PartialOrd$GT$11partial_cmp17he069836d8ca5635bE
00000000004e5750 g     F .text	0000000000000001              __gnat_finalize
00000000005199c0 g     O .rodata	0000000000000008              system__exceptions__machine__gnat_exception_class
0000000000800bc8 g     O .data	0000000000000002              system__exception_traces_E
00000000004aa370 g     F .text	00000000000000f0              _ZN79_$LT$core..time..Duration$u20$as$u20$core..ops..arith..DivAssign$LT$u32$GT$$GT$10div_assign17h7aaae9bd080b5d0aE
00000000004c9300 g     F .text	0000000000000005              ada__tags__no_dispatch_table_wrapperIP
00000000004b0ef0 g     F .text	0000000000000058              _ZN64_$LT$core..panicking..AssertKind$u20$as$u20$core..fmt..Debug$GT$3fmt17hb299c5e0c8b20253E
00000000004c4214 g     F .text	0000000000000039              .hidden __rust_probestack
0000000000443ee0 g     F .text	000000000000000d              _ZN65_$LT$std..time..SystemTimeError$u20$as$u20$core..error..Error$GT$11description17h466683ae2e6ab2ddE
00000000004c7e70 g     F .text	0000000000000001              ada__streams__root_stream_typeDF
0000000000000000       F *UND*	0000000000000000              utimensat@GLIBC_2.6
00000000004a0360 g     F .text	000000000000016d              _ZN64_$LT$core..char..EscapeDefault$u20$as$u20$core..fmt..Display$GT$3fmt17h8f8511ead9b305c0E
00000000004cd0a0 g     F .text	0000000000000012              ada__text_io__put_line__2
0000000000454310 g     F .text	0000000000000281              _ZN89_$LT$std..sys..unix..process..process_inner..ExitStatus$u20$as$u20$core..fmt..Display$GT$3fmt17h56fc726e9930cbdeE
00000000004edabc g     O .rodata	0000000000000004              system__exceptions__machineB
00000000004a0880 g     F .text	00000000000000b9              _ZN62_$LT$core..char..ToUppercase$u20$as$u20$core..fmt..Display$GT$3fmt17heb7953c0cf876950E
00000000004b2220 g     F .text	0000000000000086              _ZN4core3fmt3num50_$LT$impl$u20$core..fmt..Octal$u20$for$u20$i64$GT$3fmt17h794ed52cae6aca6cE
00000000004e4c50 g     F .text	0000000000000013              __gnat_number_of_cpus
00000000004dd680 g     F .text	00000000000000ee              system__object_reader__decoded_ada_name
00000000008006b0 g     O .data	0000000000000008              ada__text_io__standard_in
000000000043ae50 g     F .text	000000000000004b              _ZN3std3net3udp9UdpSocket17join_multicast_v617h60c86d3084432857E
0000000000493e90 g     F .text	0000000000000012              _ZN86_$LT$libc..unix..linux_like..linux..gnu..nl_mmap_hdr$u20$as$u20$core..clone..Clone$GT$5clone17h39624c35e6fa9bcbE
0000000000483a20 g     F .text	0000000000000b58              _ZN71_$LT$rustc_demangle..legacy..Demangle$u20$as$u20$core..fmt..Display$GT$3fmt17hcba3b9f687c14247E
00000000004c7ec0 g     F .text	000000000000004e              ada__streams__Troot_stream_typeCFD
0000000000493ce0 g     F .text	0000000000000014              _ZN70_$LT$libc..unix..linux_like..utsname$u20$as$u20$core..clone..Clone$GT$5clone17hb0fda1cad1063864E
00000000004939f0 g     F .text	0000000000000003              _ZN74_$LT$libc..unix..linux_like..sched_param$u20$as$u20$core..clone..Clone$GT$5clone17hfb019bb2d7165cacE
0000000000000000       F *UND*	0000000000000000              pthread_create@GLIBC_2.2.5
000000000043bb30 g     F .text	0000000000000009              _ZN3std2os4unix3net9ancillary15SocketAncillary8is_empty17h92f481e845552bc7E
000000000049da10 g     F .text	00000000000000b7              _ZN4core3num3fmt9Formatted5write17h3d0c1000d7d2f61bE
000000000046bb00 g     F .text	00000000000001d5              _ZN73_$LT$object..pe..ImageSeparateDebugHeader$u20$as$u20$core..fmt..Debug$GT$3fmt17h2629644082924df4E
00000000004424b0 g     F .text	0000000000000003              _ZN101_$LT$std..process..ExitStatusError$u20$as$u20$core..convert..Into$LT$std..process..ExitStatus$GT$$GT$4into17h77fc2a4805c89210E
00000000004a5f60 g     F .text	000000000000003b              _ZN4core3fmt9Formatter9debug_map17h0b63e18e6e8270afE
00000000004edb68 g     O .rodata	0000000000000004              ada__io_exceptionsS
00000000004c8030 g     F .text	0000000000000001              ada__strings__maps__character_rangesIP
00000000004e2ee0 g     F .text	0000000000000008              system__mmap__offset__2
00000000004ab6b0 g     F .text	000000000000008a              _ZN4core3num6bignum8Big32x4010bit_length17hde02570d69f31f3eE
00000000004d8570 g     F .text	00000000000000cc              system__put_images__put_image_fat_pointer
0000000000800a2c g     O .data	0000000000000004              system__standard_library__local_partition_id
000000000046b210 g     F .text	00000000000001ce              _ZN69_$LT$object..pe..ImageEnclaveConfig32$u20$as$u20$core..fmt..Debug$GT$3fmt17h60a964936c317c28E
0000000000516f90 g     O .rodata	0000000000000008              ada__text_io__null_str
00000000004a1b10 g     F .text	0000000000000028              _ZN4core3fmt8builders8DebugMap5entry17h32b9a5b51a14d4adE
000000000043e760 g     F .text	0000000000000054              _ZN64_$LT$std..os..fd..owned..OwnedFd$u20$as$u20$core..fmt..Debug$GT$3fmt17h190c3bf2a0a15ffdE
00000000004d62a0 g     F .text	0000000000000027              system__os_lib__wait_process
0000000000477b10 g     F .text	0000000000000029              _ZN60_$LT$gimli..common..Register$u20$as$u20$core..fmt..Debug$GT$3fmt17hf47761fe0f9f2123E
000000000042d420 g     F .text	000000000000006b              _ZN3std2fs4File9try_clone17h44aeb396f0bd2309E
0000000000447720 g     F .text	00000000000000d4              rust_panic
000000000044d2d0 g     F .text	0000000000000049              _ZN3std3sys4unix3net6Socket7new_raw17he8288f283fa529b9E
000000000044c0e0 g     F .text	00000000000000b0              _ZN3std3sys4unix2fs6lchown17ha0bcda62af2e57caE
00000000004c6180 g     F .text	00000000000001e6              __gnat_rcheck_CE_Index_Check_ext
000000000044de10 g     F .text	000000000000018f              _ZN3std3sys4unix6os_str3Buf11into_string17h3e3e00f21f247d3fE
00000000004c60c6 g     F .text	000000000000000e              __gnat_rcheck_PE_Missing_Return
00000000004b3ae0 g     F .text	000000000000013a              _ZN4core3fmt3num3imp52_$LT$impl$u20$core..fmt..Display$u20$for$u20$i16$GT$3fmt17haab1f79e427d3ca5E
000000000043d810 g     F .text	00000000000000a3              _ZN3std3net3tcp9TcpStream17set_write_timeout17h30bd514ce656b825E
00000000004c9130 g     F .text	0000000000000001              ada__tags__select_specific_data_arrayIP
0000000000440a80 g     F .text	0000000000000007              _ZN3std4path4Path11as_u8_slice17h500e5f94198ee050E
00000000004b2350 g     F .text	0000000000000092              _ZN4core3fmt3num55_$LT$impl$u20$core..fmt..UpperHex$u20$for$u20$usize$GT$3fmt17h3ca62322f6da5a75E
00000000004edb94 g     O .rodata	0000000000000004              system__case_utilB
00000000004e4d20 g     F .text	0000000000000005              __gnat_current_process_id
0000000000484580 g     F .text	000000000000003e              _ZN67_$LT$rustc_demangle..v0..Demangle$u20$as$u20$core..fmt..Display$GT$3fmt17h992a984c07b9e260E
00000000004b1740 g     F .text	0000000000000004              _ZN52_$LT$usize$u20$as$u20$core..fmt..num..DisplayInt$GT$6to_u6417h1d9e2e00b5be332fE
000000000043e620 g     F .text	0000000000000003              _ZN113_$LT$std..sys_common..net..TcpStream$u20$as$u20$std..sys_common..FromInner$LT$std..sys..unix..net..Socket$GT$$GT$10from_inner17h792ca4ae4bb58fe4E
00000000004bae20 g     F .text	00000000000000de              _ZN4core7unicode12unicode_data9uppercase6lookup17h32ff8c9dcdbae106E
00000000004dda30 g     F .text	0000000000000003              system__object_reader__num
00000000004edaa0 g     O .rodata	0000000000000004              system__secondary_stackB
0000000000448470 g     F .text	0000000000000043              _ZN61_$LT$std..env..JoinPathsError$u20$as$u20$core..fmt..Debug$GT$3fmt17h1d5479cccd250a84E
00000000004c8040 g     F .text	000000000000006a              ada__strings__maps__Osubtract
00000000004624f0 g     F .text	000000000000001b              _ZN6object4read2pe14data_directory15DataDirectories3get17h36ce5b2c1e08210cE
00000000004b15b0 g     F .text	0000000000000003              _ZN49_$LT$u8$u20$as$u20$core..fmt..num..DisplayInt$GT$4zero17hed155f01d9bdbf14E
00000000004e5060 g     F .text	0000000000000001              __gnat_adjust_os_resource_limits
00000000005182d0 g     O .rodata	0000000000000008              system__put_images__ll_integer_images__baseXn
00000000004e1ae0 g     F .text	00000000000003bb              system__dwarf_lines__enable_cache
00000000004d6a10 g     F .text	0000000000000225              system__put_images__integer_images__put_imageXn
000000000046ce20 g     F .text	000000000000018f              _ZN6memchr6memchr8fallback7memchr217hfe9d92236f9a7b03E
0000000000427de0 g     F .text	0000000000000005              _ZN3std6thread5Inner6parker17h7642313dc55dc2dcE
0000000000000000       F *UND*	0000000000000000              posix_spawn_file_actions_init@GLIBC_2.2.5
0000000000800440 g     O .data	0000000000000028              ada__io_exceptions__name_error
00000000004af3a0 g     F .text	0000000000000013              _ZN4core3num60_$LT$impl$u20$core..str..traits..FromStr$u20$for$u20$i64$GT$8from_str17hdd66b0ad19330350E
00000000004c611a g     F .text	000000000000000e              __gnat_rcheck_PE_Unchecked_Union_Restriction
000000000044ca00 g     F .text	0000000000000020              _ZN86_$LT$$RF$std..net..tcp..TcpStream$u20$as$u20$std..sys..unix..kernel_copy..CopyRead$GT$10properties17h06b1c1cfe4eaed4fE
00000000004d9410 g     F .text	0000000000000016              system__soft_links__get_gnat_exception
0000000000471a70 g     F .text	00000000000000c4              _ZN61_$LT$memchr..memmem..FindIter$u20$as$u20$core..fmt..Debug$GT$3fmt17h96cec44679d18b35E
00000000007f71d8 g     O .data.rel.ro	0000000000000010              _ZN6object3elf14ELF_NOTE_LINUX17h5ba5e33c242f220dE
0000000000429e10 g     F .text	0000000000000311              _ZN68_$LT$std..backtrace..BacktraceSymbol$u20$as$u20$core..fmt..Debug$GT$3fmt17h9147ab6839313c2eE
0000000000000000       F *UND*	0000000000000000              pthread_detach@GLIBC_2.2.5
0000000000000000       F *UND*	0000000000000000              localtime@GLIBC_2.2.5
000000000080078a g     O .data	0000000000000002              system__img_int_E
0000000000515e78 g     O .rodata	0000000000000008              ada__finalization__controlledY
00000000004be1f0 g     F .text	0000000000000703              _ZN65_$LT$core..core_arch..simd..i8x32$u20$as$u20$core..fmt..Debug$GT$3fmt17h50e373ee1299e20eE
000000000046b9e0 g     F .text	0000000000000088              _ZN67_$LT$object..pe..ImageFunctionEntry$u20$as$u20$core..fmt..Debug$GT$3fmt17h8e1884ef18a6c6dcE
0000000000517164 g     O .rodata	0000000000000004              ada__text_io__file_modeN
000000000046be40 g     F .text	0000000000000062              _ZN71_$LT$object..pe..ImageArchitectureEntry$u20$as$u20$core..fmt..Debug$GT$3fmt17h9cdd854dae3f6fd6E
0000000000482320 g     F .text	000000000000011b              _ZN66_$LT$gimli..read..value..ValueType$u20$as$u20$core..fmt..Debug$GT$3fmt17h8c9e7007e2fd697fE
000000000043b120 g     F .text	0000000000000005              _ZN68_$LT$std..fs..Metadata$u20$as$u20$std..os..unix..fs..MetadataExt$GT$5nlink17h9264e5ce658f5a74E
00000000004b7fa0 g     F .text	00000000000000af              _ZN65_$LT$core..hash..sip..SipHasher24$u20$as$u20$core..fmt..Debug$GT$3fmt17h7d3918708523b519E
00000000004caa70 g     F .text	000000000000004e              ada__text_io__Ttext_afcbCFD
00000000004de800 g     F .text	0000000000000024              system__object_reader__to_string_ptr_len
00000000004b8900 g     F .text	00000000000000af              _ZN65_$LT$core..str..iter..EscapeDebug$u20$as$u20$core..fmt..Debug$GT$3fmt17h06860c9688f34337E
0000000000451050 g     F .text	0000000000000003              _ZN64_$LT$std..sys..unix..stdio..Stdout$u20$as$u20$std..io..Write$GT$5flush17hc44b263a2527381fE
00000000004ab470 g     F .text	0000000000000019              _ZN50_$LT$u16$u20$as$u20$core..num..bignum..FullOps$GT$12full_mul_add17haf2510c3435f73e3E
00000000004ba910 g     F .text	0000000000000147              _ZN4core7unicode12unicode_data5cased6lookup17h0c50e236b2ba6185E
00000000004eb080 g     F .text	000000000000039f              .hidden _Unwind_RaiseException
00000000004d9640 g     F .text	0000000000000006              system__standard_library__abort_undefer_direct
00000000005173c8 g     O .rodata	0000000000000008              interfaces__c_streams__null_stream
0000000000000000       F *UND*	0000000000000000              abort@GLIBC_2.2.5
000000000042dde0 g     F .text	0000000000000003              _ZN52_$LT$$RF$std..fs..File$u20$as$u20$std..io..Write$GT$5flush17h82897b63c2632ac5E
00000000004660f0 g     F .text	0000000000000062              _ZN61_$LT$object..macho..FatHeader$u20$as$u20$core..fmt..Debug$GT$3fmt17hba843e5d241e510bE
000000000049db30 g     F .text	0000000000000025              _ZN70_$LT$core..num..error..ParseIntError$u20$as$u20$core..fmt..Display$GT$3fmt17hb2c3fc7af6721e95E
0000000000476760 g     F .text	000000000000009b              _ZN5gimli4read5value5Value3not17h24982bd4c28e3781E
0000000000515580 g     O .rodata	0000000000000004              ada__exceptions__exception_propagation__ua_handler_frameXn
00000000004e8340 g     F .text	000000000000009a              system__case_util__to_mixed__2
00000000004ca380 g     F .text	0000000000000011              ada__text_io__afcb_free__2
000000000043dc00 g     F .text	0000000000000060              _ZN3std3net3tcp9TcpStream10take_error17he8d2216b9dfc90d6E
000000000047fa10 g     F .text	000000000000002e              _ZN5gimli9constants5DwDsc13static_string17hb2d51bf482f0e16bE
0000000000406ff0 g     F .text	000000000000003c              _ZN3std9panicking3try7cleanup17hbc72abcc98b05c9cE
00000000004e5670 g     F .text	000000000000002d              __gnat_getenv
0000000000000000       F *UND*	0000000000000000              __errno_location@GLIBC_2.2.5
000000000043b180 g     F .text	0000000000000005              _ZN68_$LT$std..fs..Metadata$u20$as$u20$std..os..unix..fs..MetadataExt$GT$10atime_nsec17hbaaa7f175efc7656E
00000000004387d0 g     F .text	000000000000000f              _ZN3std3net6parser90_$LT$impl$u20$core..str..traits..FromStr$u20$for$u20$std..net..socket_addr..SocketAddr$GT$8from_str17hdb7404c03e5d3414E
0000000000000000       F *UND*	0000000000000000              fdatasync@GLIBC_2.2.5
0000000000000000       F *UND*	0000000000000000              pthread_getattr_np@GLIBC_2.2.5
00000000004e3060 g     F .text	000000000000003c              system__mmap__os_interface__open_read
00000000004edb78 g     O .rodata	0000000000000004              system__os_libB
00000000004a1cd0 g     F .text	000000000000011b              _ZN4core3fmt8builders8DebugMap5value17he42cc92281162a1fE
00000000004348d0 g     F .text	0000000000000070              _ZN61_$LT$std..io..stdio..StderrLock$u20$as$u20$std..io..Write$GT$18write_all_vectored17h26152b126e2e0460E
0000000000442530 g     F .text	000000000000000d              _ZN3std7process8ExitCode12exit_process17h58ff4b43f23d701cE
00000000004c5f6a g     F .text	0000000000000013              __gnat_rcheck_CE_Index_Check
000000000047eb00 g     F .text	0000000000000027              _ZN5gimli9constants5DwVis13static_string17h56784fbd67a565f7E
000000000043bca0 g     F .text	00000000000000f2              _ZN3std2os4unix3net9ancillary15SocketAncillary9add_creds17hc3dc958b47d661a2E
00000000004db1e0 g     F .text	000000000000003f              system__val_util__scan_underscore
0000000000000000       F *UND*	0000000000000000              unlink@GLIBC_2.2.5
00000000004a67e0 g     F .text	00000000000000d6              _ZN43_$LT$char$u20$as$u20$core..fmt..Display$GT$3fmt17h9ddf0babbf41b733E
00000000004edc44 g     O .rodata	0000000000000004              interfaces__c_streamsB
000000000042c580 g     F .text	00000000000000de              _ZN88_$LT$std..env..Args$u20$as$u20$core..iter..traits..double_ended..DoubleEndedIterator$GT$9next_back17h8c5a6422fba05bd5E
00000000004437a0 g     F .text	0000000000000074              _ZN88_$LT$std..time..Instant$u20$as$u20$core..ops..arith..Add$LT$core..time..Duration$GT$$GT$3add17hae454758e7d50af2E
00000000004d5470 g     F .text	0000000000000005              system__os_lib__open_read__2
00000000004622b0 g     F .text	0000000000000008              _ZN6object4read3elf7version7Version4name17h5569c3147b93ab60E
0000000000494bb0 g     F .text	000000000000003a              _ZN104_$LT$libc..unix..linux_like..linux..gnu..b64..x86_64..not_x32..statvfs$u20$as$u20$core..clone..Clone$GT$5clone17hcde896495d1f41a1E
000000000043dce0 g     F .text	0000000000000182              _ZN3std2os4unix3net6stream10UnixStream28recv_vectored_with_ancillary17h8d777c2386f3df51E
000000000044dda0 g     F .text	0000000000000014              _ZN66_$LT$std..sys..unix..os_str..Buf$u20$as$u20$core..fmt..Display$GT$3fmt17h53c602678101a419E
000000000042da00 g     F .text	0000000000000003              _ZN59_$LT$std..process..ChildStdin$u20$as$u20$std..io..Write$GT$5flush17h07bb7117855ffda5E
0000000000000000       F *UND*	0000000000000000              strncpy@GLIBC_2.2.5
00000000004622d0 g     F .text	0000000000000006              _ZN78_$LT$object..macho..FatArch32$u20$as$u20$object..read..macho..fat..FatArch$GT$10cpusubtype17h92917862d53063c4E
00000000004edbf4 g     O .rodata	0000000000000004              ada__strings__utf_encodingB
000000000043e580 g     F .text	0000000000000090              _ZN3std2os4unix5ucred10impl_linux9peer_cred17h8b2d6a6c11fee96dE
000000000043afa0 g     F .text	0000000000000049              _ZN3std3net3udp9UdpSocket4recv17h4daab5797bce3273E
00000000004992f0 g     F .text	000000000000038e              _ZN4core3num7dec2flt7decimal13parse_decimal17hd948a79300e423ebE
0000000000448cc0 g     F .text	0000000000000094              _ZN63_$LT$std..net..parser..AddrKind$u20$as$u20$core..fmt..Debug$GT$3fmt17h406dfcbd75498a9dE
0000000000493e30 g     F .text	000000000000000a              _ZN81_$LT$libc..unix..linux_like..linux..packet_mreq$u20$as$u20$core..clone..Clone$GT$5clone17h22888fdd567d9abcE
00000000004ab3f0 g     F .text	000000000000001c              _ZN4core9core_arch3x868avx512bw19_mm512_bslli_epi1284mask17h82a8b464551568edE
0000000000495b70 g     F .text	0000000000000003              _ZN110_$LT$alloc..collections..btree..set_val..SetValZST$u20$as$u20$alloc..collections..btree..set_val..IsSetVal$GT$10is_set_val17hcfda8c0d7d2d15e1E
00000000004dd090 g     F .text	000000000000005c              system__object_reader__elf32_ops__read_headerXn
00000000004e4340 g     F .text	0000000000000036              __gnat_is_executable_file
00000000004e6a00 g     F .text	000000000000000f              ada__characters__handling__is_alphanumeric
00000000004b1f50 g     F .text	0000000000000082              _ZN4core3fmt3num51_$LT$impl$u20$core..fmt..Binary$u20$for$u20$i32$GT$3fmt17hfcfa9c5dd2795f29E
0000000000000000       F *UND*	0000000000000000              __res_init@GLIBC_2.2.5
00000000004504b0 g     F .text	0000000000000072              _ZN89_$LT$std..sys..unix..process..process_common..CommandArgs$u20$as$u20$core..fmt..Debug$GT$3fmt17h609cf8eb3d590a79E
00000000004a0600 g     F .text	000000000000004f              _ZN82_$LT$core..char..ToUppercase$u20$as$u20$core..iter..traits..iterator..Iterator$GT$4next17he4f90c206f01549aE
00000000004dd3e0 g     F .text	0000000000000001              system__object_reader__pecoff_ops__section_headerIPXn
0000000000495c20 g     F .text	0000000000000163              _ZN81_$LT$$RF$$u5b$u8$u5d$$u20$as$u20$alloc..ffi..c_str..CString..new..SpecNewImpl$GT$13spec_new_impl17h1ff90b6334fb48f3E
000000000043dac0 g     F .text	0000000000000046              _ZN3std3net3tcp9TcpStream15set_nonblocking17h7eed92474f3eebbaE
000000000043a4f0 g     F .text	000000000000004f              _ZN63_$LT$$RF$std..net..tcp..TcpStream$u20$as$u20$std..io..Write$GT$5write17h3f9f6a8b7764f8eaE
00000000004e5120 g     F .text	0000000000000006              get_gcc_version
00000000004627b0 g     F .text	0000000000000142              _ZN6object4read2pe6export11ExportTable5parse17h4b0342f24b79065eE
0000000000800800 g     O .data	0000000000000008              __gnat_stack_limit
00000000008008a8 g     O .data	0000000000000008              system__soft_links__abort_defer
000000000044a780 g     F .text	0000000000000004              _ZN107_$LT$std..process..ChildStdin$u20$as$u20$std..sys_common..AsInner$LT$std..sys..unix..pipe..AnonPipe$GT$$GT$8as_inner17hed6f979c9ee37f64E
00000000004c8240 g     F .text	0000000000000069              ada__strings__maps__to_domain
000000000047c140 g     F .text	0000000000000836              _ZN5gimli9constants5DwTag13static_string17h2ba43e7ac074aab2E
000000000042b5c0 g     F .text	000000000000002c              _ZN73_$LT$std..env..Vars$u20$as$u20$core..iter..traits..iterator..Iterator$GT$9size_hint17hd0e6cb0e8ae8d848E
0000000000000000       F *UND*	0000000000000000              strncmp@GLIBC_2.2.5
00000000004eaed0 g     F .text	000000000000000c              .hidden _Unwind_SetIP
00000000004438a0 g     F .text	000000000000006e              _ZN88_$LT$std..time..Instant$u20$as$u20$core..ops..arith..Sub$LT$core..time..Duration$GT$$GT$3sub17h153c2b5c17371304E
00000000004b8b10 g     F .text	0000000000000b0c              _ZN67_$LT$core..str..iter..EscapeDebug$u20$as$u20$core..fmt..Display$GT$3fmt17hb5c0e4512a93e787E
00000000004c6fe0 g     F .text	0000000000000058              ada__io_exceptions___elabs
0000000000451530 g     F .text	0000000000000004              _ZN3std3sys4unix6thread6Thread2id17h63c636552fca05efE
0000000000454a60 g     F .text	0000000000000009              _ZN74_$LT$std..sys_common..net..LookupHost$u20$as$u20$core..ops..drop..Drop$GT$4drop17hf7461d504aaf1407E
00000000004cd320 g     F .text	0000000000000012              ada__text_io__set_output
0000000000494230 g     F .text	0000000000000022              _ZN82_$LT$libc..unix..linux_like..linux..seccomp_data$u20$as$u20$core..clone..Clone$GT$5clone17hd0b0292225def9c5E
00000000004277c0 g     F .text	00000000000000b3              _ZN63_$LT$std..thread..scoped..Scope$u20$as$u20$core..fmt..Debug$GT$3fmt17he62999af561a0454E
00000000004e4ca0 g     F .text	000000000000002e              __gnat_portable_wait
00000000004b1700 g     F .text	0000000000000005              _ZN50_$LT$i64$u20$as$u20$core..fmt..num..DisplayInt$GT$7from_u817h4467617a724fd501E
000000000049f9e0 g     F .text	000000000000000d              _ZN62_$LT$core..cell..BorrowError$u20$as$u20$core..error..Error$GT$11description17hd72044e4b43261b1E
00000000004ad6f0 g     F .text	0000000000000416              _ZN4core3num6bignum5tests6Big8x310mul_digits17hd6fadb517bcfdb31E
0000000000471cd0 g     F .text	00000000000000c4              _ZN61_$LT$memchr..memmem..Searcher$u20$as$u20$core..fmt..Debug$GT$3fmt17h428c3986eccfd4ddE
00000000004d06f0 g     F .text	000000000000013a              system__file_io__delete
0000000000800be0 g     O .bss	0000000000000008              stdout@GLIBC_2.2.5
00000000004d0420 g     F .text	0000000000000214              system__file_io__close
00000000004d9210 g     F .text	0000000000000035              system__soft_links__adafinal_nt
0000000000800240  w      .data	0000000000000000              data_start
0000000000464d40 g     F .text	000000000000009e              _ZN72_$LT$object..read..elf..version..Version$u20$as$u20$core..fmt..Debug$GT$3fmt17h414700bcd4737c9dE
0000000000519920 g     O .rodata	000000000000009f              system__exceptions__machine__unwind_reason_codeS
0000000000461ab0 g     F .text	0000000000000009              _ZN6object4read7archive13ArchiveMember10file_range17h5e641edc414d8effE
000000000042e040 g     F .text	0000000000000004              _ZN3std2fs8Metadata11permissions17hd22546cb6c78dbcdE
0000000000000000       F *UND*	0000000000000000              posix_spawnattr_setpgroup@GLIBC_2.2.5
00000000004468b0 g     F .text	0000000000000403              _ZN3std9panicking12default_hook17hc11ca7d10c44c42fE
00000000004895c0 g     F .text	0000000000000032              _ZN67_$LT$rustc_demangle..v0..ParseError$u20$as$u20$core..fmt..Debug$GT$3fmt17h184130b95809f892E
000000000043b9a0 g     F .text	0000000000000004              _ZN3std2os4unix3net9ancillary10SocketCred7set_gid17hd2a41b4404e550a8E
00000000004985d0 g     F .text	0000000000000049              _ZN81_$LT$alloc..ffi..c_str..FromBytesWithNulErrorKind$u20$as$u20$core..fmt..Debug$GT$3fmt17h6acd49a7d6b7b988E
0000000000448ef0 g     F .text	000000000000009e              _ZN83_$LT$std..os..unix..net..ancillary..SocketAncillary$u20$as$u20$core..fmt..Debug$GT$3fmt17he9df06471321edd1E
000000000042f240 g     F .text	0000000000000060              _ZN83_$LT$std..io..buffered..bufwriter..WriterPanicked$u20$as$u20$core..fmt..Display$GT$3fmt17h0d4ce1062e82e936E
0000000000516b94 g     O .rodata	0000000000000004              ada__tags__max_predef_prims
0000000000519868 g     O .rodata	0000000000000008              system__mmap__invalid_mapped_file
00000000004997d0 g     F .text	000000000000000d              _ZN4core3num7dec2flt6lemire5power17hb92114cf19e6234eE
0000000000499720 g     F .text	0000000000000022              _ZN59_$LT$f64$u20$as$u20$core..num..dec2flt..float..RawFloat$GT$8from_u6417h68ca11b18114fe10E
0000000000491d70 g     F .text	000000000000006a              _ZN11miniz_oxide7inflate6stream12InflateState9new_boxed17hfd97f0aaa4adf0b4E
00000000005186c4 g     O .rodata	0000000000000001              system__wch_con__wcem_upper
00000000004ccd10 g     F .text	0000000000000114              ada__text_io__put_encoded
00000000004c67b4 g     F .text	0000000000000044              __gnat_reraise_library_exception_if_any
00000000004a1090 g     F .text	0000000000000005              _ZN4core5panic10panic_info9PanicInfo7message17hcee44c001ae3c471E
0000000000449530 g     F .text	0000000000000029              _ZN64_$LT$std..path..StripPrefixError$u20$as$u20$core..fmt..Debug$GT$3fmt17h3cb867ba0f359161E
00000000004aa180 g     F .text	0000000000000078              _ZN4core4time83_$LT$impl$u20$core..ops..arith..Mul$LT$core..time..Duration$GT$$u20$for$u20$u32$GT$3mul17hbeb97e56d48a91e8E
00000000004b1a20 g     F .text	0000000000000089              _ZN73_$LT$core..fmt..num..UpperHex$u20$as$u20$core..fmt..num..GenericRadix$GT$5digit17hae1635735ee5edbfE
00000000004adb10 g     F .text	00000000000000ad              _ZN4core3num6bignum5tests6Big8x313div_rem_small17h242f80854e195402E
0000000000000000       F *UND*	0000000000000000              localtime_r@GLIBC_2.2.5
00000000004c67f8 g     F .text	0000000000000010              ada__exceptions__reraise_occurrence
000000000044a780 g     F .text	0000000000000004              _ZN3std10sys_common3net11TcpListener6socket17heae0d1b7bdaa49a9E
0000000000473720 g     F .text	000000000000003c              _ZN5gimli4read6abbrev13Abbreviations5empty17h2e89f4e219fdbd27E
0000000000441d50 g     F .text	000000000000002c              _ZN61_$LT$std..process..ChildStdin$u20$as$u20$core..fmt..Debug$GT$3fmt17hf7d80b6ca770ba2fE
00000000004b1340 g     F .text	0000000000000077              _ZN4core3fmt5float50_$LT$impl$u20$core..fmt..Debug$u20$for$u20$f32$GT$3fmt17hfdc4cc3291917b63E
00000000004c4ecc g     F .text	000000000000001e              ada__exceptions__exception_propagation__allocate_occurrenceXn
000000000044a7e0 g     F .text	0000000000000041              _ZN78_$LT$std..os..linux..process..PidFd$u20$as$u20$std..os..fd..raw..FromRawFd$GT$11from_raw_fd17h1ff6950e166c7c82E
000000000049f950 g     F .text	0000000000000002              _ZN66_$LT$core..convert..Infallible$u20$as$u20$core..cmp..PartialEq$GT$2eq17h69a1656f7cea960eE
00000000004e8090 g     F .text	000000000000008b              system__bounded_strings__append_address
0000000000515584 g     O .rodata	0000000000000004              ada__exceptions__exception_propagation__ua_force_unwindXn
00000000004c6f10 g     F .text	000000000000000d              ada__finalization__controlledIP
0000000000000000       F *UND*	0000000000000000              splice@GLIBC_2.5
0000000000800b60 g     O .data	0000000000000004              __gnat_constant_seek_cur
00000000004eaee0 g     F .text	000000000000000c              .hidden _Unwind_GetLanguageSpecificData
0000000000000000       F *UND*	0000000000000000              _exit@GLIBC_2.2.5
00000000008008b4 g     O .data	0000000000000002              system__soft_links__initialize_E
0000000000477dd0 g     F .text	0000000000000015              _ZN53_$LT$gimli..arch..Arm$u20$as$u20$core..fmt..Debug$GT$3fmt17h3a49c332a7fde42bE
000000000043e030 g     F .text	0000000000000014              _ZN76_$LT$std..process..Command$u20$as$u20$std..os..unix..process..CommandExt$GT$3uid17h776f70c0b334fdbeE
00000000004c9320 g     F .text	0000000000000003              ada__tags__object_specific_dataIP
00000000004d2ae0 g     F .text	0000000000000005              system__os_lib__close__2
00000000004708c0 g     F .text	00000000000000a9              _ZN6memchr6memmem8Searcher6as_ref17h4c048e7a7e9faec4E
00000000004dbe50 g     F .text	000000000000006b              system__wch_stw__string_to_wide_wide_string
0000000000803f00 g     O .bss	0000000000000080              ada__text_io__standard_in_afcb
00000000004e5770 g     F .text	0000000000000025              __gnat_runtime_initialize
00000000004e40a0 g     F .text	0000000000000024              __gnat_open_rw
0000000000409fa4 g     F .text	0000000000000020              ada_main___elabb
00000000004de0f0 g     F .text	000000000000002c              system__object_reader__check_read_offset
00000000004ded20 g     F .text	00000000000002aa              system__object_reader__elf64_ops__initializeXn
000000000080074a g     O .data	0000000000000002              system__exception_table_E
00000000004b1780 g     F .text	0000000000000004              _ZN51_$LT$i128$u20$as$u20$core..fmt..num..DisplayInt$GT$5to_u817h00dcdac490709f31E
00000000004653d0 g     F .text	000000000000005c              _ZN81_$LT$object..read..pe..resource..ResourceNameOrId$u20$as$u20$core..fmt..Debug$GT$3fmt17h47420d1eb032c8f8E
00000000004d3620 g     F .text	0000000000000017              system__os_lib__gm_year
00000000004d8890 g     F .text	00000000000000f7              system__put_images__put_image_wide_wide_string
00000000004b9b90 g     F .text	00000000000002e3              _ZN69_$LT$core..str..iter..EscapeUnicode$u20$as$u20$core..fmt..Display$GT$3fmt17hfe832a0065c19dc4E
000000000044c9e0 g     F .text	000000000000001d              _ZN97_$LT$std..os..unix..net..stream..UnixStream$u20$as$u20$std..sys..unix..kernel_copy..CopyWrite$GT$10properties17h9aa287354616d915E
0000000000000000       F *UND*	0000000000000000              strcpy@GLIBC_2.2.5
0000000000000000       F *UND*	0000000000000000              chroot@GLIBC_2.2.5
00000000004a0f10 g     F .text	0000000000000001              _ZN63_$LT$core..ffi..VaListImpl$u20$as$u20$core..ops..drop..Drop$GT$4drop17h9e15f66ee267e0b4E
00000000004939f0 g     F .text	0000000000000003              _ZN89_$LT$libc..unix..linux_like..linux..pthread_mutexattr_t$u20$as$u20$core..clone..Clone$GT$5clone17h3c24e628680a16a7E
00000000004b0f50 g     F .text	0000000000000090              _ZN65_$LT$core..sync..atomic..Ordering$u20$as$u20$core..fmt..Debug$GT$3fmt17hb640d57a34bdf557E
00000000004edc70 g     O .rodata	0000000000000015              __gnat_version
0000000000469b50 g     F .text	00000000000000b7              _ZN77_$LT$object..pe..ImageLoadConfigCodeIntegrity$u20$as$u20$core..fmt..Debug$GT$3fmt17h5a9d4bb47c0b940fE
00000000004b22b0 g     F .text	0000000000000092              _ZN4core3fmt3num53_$LT$impl$u20$core..fmt..LowerHex$u20$for$u20$u64$GT$3fmt17h867a97ec1aaf0e0aE
00000000004bc560 g     F .text	00000000000003d3              _ZN65_$LT$core..core_arch..simd..i8x16$u20$as$u20$core..fmt..Debug$GT$3fmt17he0eed5eefb9dc3c8E
00000000004e47f0 g     F .text	0000000000000023              __gnat_is_directory
00000000004c9200 g     F .text	00000000000000c6              ada__tags__tagged_kindH
000000000047fde0 g     F .text	0000000000000104              _ZN68_$LT$gimli..constants..DwDefaulted$u20$as$u20$core..fmt..Display$GT$3fmt17h54add05d11eed611E
00000000004d9330 g     F .text	0000000000000001              system__soft_links__task_lock_nt
00000000004c6e80 g     F .text	000000000000000f              ada__finalization__controlledSO__2
0000000000800b7b g     O .data	0000000000000001              __gl_wc_encoding
00000000004caad0 g     F .text	0000000000000007              ada__text_io__close
0000000000800768 g     O .data	0000000000000008              system__file_io__temp_files
0000000000471c30 g     F .text	0000000000000043              _ZN62_$LT$memchr..memmem..FinderRev$u20$as$u20$core..fmt..Debug$GT$3fmt17h91b371390ca9f25cE
00000000004dd510 g     F .text	0000000000000032              system__object_reader__create_stream
00000000004981e0 g     F .text	000000000000005b              _ZN57_$LT$alloc..string..Drain$u20$as$u20$core..fmt..Debug$GT$3fmt17hd6fc6308c04ba106E
00000000004949a0 g     F .text	0000000000000014              _ZN94_$LT$libc..unix..linux_like..linux..gnu..b64..x86_64..stat64$u20$as$u20$core..clone..Clone$GT$5clone17h9a55638013c1fe7cE
0000000000434ec0 g     F .text	0000000000000129              _ZN3std2io5stdio7_eprint17hdbc57c894351ce7cE
00000000004db100 g     F .text	0000000000000090              system__val_util__scan_sign
00000000004c7f50 g     F .text	0000000000000017              ada__streams__stream_element_arraySW
00000000004e81b0 g     F .text	000000000000004b              system__case_util__to_lower__2
0000000000443030 g     F .text	0000000000000011              _ZN3std7process4exit17hd82fba011022658aE
0000000000515ac0 g     O .rodata	0000000000000010              ada__exceptions__exception_data__ldad_headerXn
00000000004b26d0 g     F .text	00000000000000f4              _ZN4core3fmt3num54_$LT$impl$u20$core..fmt..UpperHex$u20$for$u20$u128$GT$3fmt17h550155d0e2b38986E
0000000000493f10 g     F .text	0000000000000010              _ZN89_$LT$libc..unix..linux_like..linux..ff_condition_effect$u20$as$u20$core..clone..Clone$GT$5clone17h844afb8a5b168b73E
000000000047fa40 g     F .text	0000000000000105              _ZN62_$LT$gimli..constants..DwDsc$u20$as$u20$core..fmt..Display$GT$3fmt17h43bb842818461eb2E
00000000004b8620 g     F .text	00000000000000bd              _ZN59_$LT$core..str..iter..Lines$u20$as$u20$core..fmt..Debug$GT$3fmt17h14cc3df32673c6c4E
00000000004e4fe0 g     F .text	0000000000000003              __gnat_to_canonical_file_list_init
00000000004e3ed0 g     F .text	0000000000000059              __gnat_get_file_names_case_sensitive
00000000004d3b00 g     F .text	0000000000000013              system__os_lib__is_symbolic_link__2
0000000000494810 g     F .text	0000000000000042              _ZN88_$LT$libc..unix..linux_like..linux..gnu..b64..msqid_ds$u20$as$u20$core..clone..Clone$GT$5clone17hcb0d57dda6396cb1E
00000000004aec50 g     F .text	0000000000000001              _ZN4core3num7nonzero10NonZeroI6413new_unchecked8comptime17h65b2a95508f657f7E
000000000046d9c0 g     F .text	00000000000002a9              _ZN6memchr6memchr3x864sse27memchr317h902d8b1a15fa496cE
00000000005196b0 g     O .rodata	000000000000001f              system__dwarf_lines__dwarf_errorE
0000000000473680 g     F .text	0000000000000035              _ZN5gimli6common9SectionId8dwo_name17hbc3952e076f48030E
0000000000493950 g     F .text	0000000000000004              _ZN81_$LT$libc..unix..linux_like..linux..sock_filter$u20$as$u20$core..clone..Clone$GT$5clone17h445af465cf7a2d36E
0000000000494780 g     F .text	0000000000000022              _ZN113_$LT$libc..unix..linux_like..linux..gnu..__c_anonymous_ptrace_syscall_info_data$u20$as$u20$core..clone..Clone$GT$5clone17h889ecb518d681227E
00000000004a5300 g     F .text	000000000000000a              _ZN4core3fmt9Formatter15debug_lower_hex17hacc814ad62bccd75E
0000000000495af0 g     F .text	0000000000000004              _ZN93_$LT$alloc..collections..btree..mem..replace..PanicGuard$u20$as$u20$core..ops..drop..Drop$GT$4drop17h90831cd0b0981fe4E
0000000000493ff0 g     F .text	0000000000000020              _ZN80_$LT$libc..unix..linux_like..linux..Elf32_Ehdr$u20$as$u20$core..clone..Clone$GT$5clone17h2c8b362d7c2dea8cE
0000000000803aa0 g     O .bss	0000000000000020              ada__strings__maps__constants__lower_set
000000000047cab0 g     F .text	0000000000001230              _ZN5gimli9constants4DwAt13static_string17h2c220d52aeb63d1eE
000000000049fe50 g     F .text	000000000000004c              _ZN63_$LT$core..ascii..EscapeDefault$u20$as$u20$core..fmt..Debug$GT$3fmt17hdbf1250e9f234aaeE
00000000004cc160 g     F .text	0000000000000111              ada__text_io__look_ahead
00000000004c1ef0 g     F .text	0000000000000231              _ZN65_$LT$core..core_arch..simd..i64x8$u20$as$u20$core..fmt..Debug$GT$3fmt17h7aa3b2d1fa83e4a9E
00000000004d35f0 g     F .text	000000000000002d              system__os_lib__gm_time_of
000000000044c190 g     F .text	00000000000000a7              _ZN3std3sys4unix2fs6chroot17heeb97f96906291f5E
00000000004e0610 g     F .text	0000000000000005              system__dwarf_lines__set_load_address
0000000000000000       F *UND*	0000000000000000              mkdir@GLIBC_2.2.5
000000000047e510 g     F .text	0000000000000104              _ZN62_$LT$gimli..constants..DwLle$u20$as$u20$core..fmt..Display$GT$3fmt17heba2d86e1936eb53E
00000000004af240 g     F .text	0000000000000005              _ZN4core3num20_$LT$impl$u20$i8$GT$14from_str_radix17h1466b013fc659997E
000000000044b0f0 g     F .text	00000000000000a7              _ZN3std3sys4unix2fs5rmdir17he104aa4e36f1692fE
00000000004cd340 g     F .text	000000000000002d              ada__text_io__set_page_length
0000000000427980 g     F .text	00000000000000fa              _ZN3std6thread8sleep_ms17h2e08828dfd26b496E
0000000000000000       F *UND*	0000000000000000              sendmsg@GLIBC_2.2.5
0000000000440b20 g     F .text	000000000000006e              _ZN3std4path4Path6parent17h228d85d7aad70a5aE
00000000004e1ab0 g     F .text	000000000000002a              system__dwarf_lines__read_aranges_entry
0000000000493a30 g     F .text	000000000000000a              _ZN74_$LT$libc..unix..linux_like..sockaddr_in$u20$as$u20$core..clone..Clone$GT$5clone17h73bd44eabb6d782cE
00000000004c9e60 g     F .text	000000000000002b              ada__tags__parent_tag
0000000000493c50 g     F .text	000000000000003a              _ZN74_$LT$libc..unix..linux_like..sockaddr_un$u20$as$u20$core..clone..Clone$GT$5clone17hb7a9d2fde2df0c76E
00000000004794d0 g     F .text	00000000000006d7              _ZN5gimli4arch7AArch6416name_to_register17h5f818eece9500a9fE
000000000044a780 g     F .text	0000000000000004              _ZN108_$LT$std..net..udp..UdpSocket$u20$as$u20$std..sys_common..AsInner$LT$std..sys_common..net..UdpSocket$GT$$GT$8as_inner17haef103d7893e2d31E
0000000000441a50 g     F .text	000000000000000f              _ZN3std4path4Path13into_path_buf17hb505735cd2a4c131E
000000000047f730 g     F .text	0000000000000024              _ZN5gimli9constants5DwInl13static_string17h9b8318648a8dc92bE
0000000000462320 g     F .text	0000000000000006              _ZN78_$LT$object..macho..FatArch64$u20$as$u20$object..read..macho..fat..FatArch$GT$10cpusubtype17h3cffad3ab1082df5E
00000000004aefa0 g     F .text	000000000000011b              _ZN78_$LT$core..num..nonzero..NonZeroU128$u20$as$u20$core..str..traits..FromStr$GT$8from_str17h1dc850824d39e0c5E
00000000004caf30 g     F .text	0000000000000244              ada__text_io__get_line
00000000004e4070 g     F .text	0000000000000005              __gnat_freopen
000000000049db10 g     F .text	000000000000001a              _ZN4core3num5error13ParseIntError13__description17hb6358bbcc0bf6b4cE
0000000000000000       F *UND*	0000000000000000              writev@GLIBC_2.2.5
0000000000427b50 g     F .text	000000000000009b              _ZN65_$LT$std..thread..PanicGuard$u20$as$u20$core..ops..drop..Drop$GT$4drop17hd4f251cff3f24075E
00000000004944d0 g     F .text	0000000000000022              _ZN81_$LT$libc..unix..linux_like..linux..gnu..msghdr$u20$as$u20$core..clone..Clone$GT$5clone17he1cea6911e946d25E
00000000004e8960 g     F .text	000000000000015b              .hidden __divti3
00000000004edbd8 g     O .rodata	0000000000000004              system__wch_cnvS
0000000000516850 g     O .rodata	0000000000000008              ada__strings__text_buffers__root_buffer_typeP
00000000004cca60 g     F .text	000000000000000e              ada__text_io__page
000000000047f2e0 g     F .text	00000000000000fa              _ZN63_$LT$gimli..constants..DwAddr$u20$as$u20$core..fmt..Display$GT$3fmt17hf162878190823e3aE
00000000004752a0 g     F .text	0000000000000041              _ZN75_$LT$gimli..read..abbrev..Attributes$u20$as$u20$core..ops..deref..Deref$GT$5deref17h53c075715b099fc8E
000000000043c320 g     F .text	000000000000002a              _ZN3std2os4unix3net8datagram12UnixDatagram12connect_addr17ha54ee64e385725a1E
00000000004d30b0 g     F .text	0000000000000005              system__os_lib__file_time_stamp__3
00000000004d5400 g     F .text	000000000000006e              system__os_lib__open_append
0000000000517330 g     O .rodata	000000000000001e              interfaces__c__terminator_errorE
00000000004da750 g     F .text	0000000000000017              system__traceback__symbolic__symbolic_traceback__4
00000000004a4160 g     F .text	000000000000000b              _ZN4core3fmt10ArgumentV110from_usize17h1e5ac08688ac1e4eE
0000000000446020 g     F .text	0000000000000018              _ZN3std5alloc21take_alloc_error_hook17hac20d6f10a3c05e7E
0000000000438a90 g     F .text	0000000000000016              _ZN125_$LT$std..net..socket_addr..SocketAddrV4$u20$as$u20$std..sys_common..FromInner$LT$libc..unix..linux_like..sockaddr_in$GT$$GT$10from_inner17hde009ed24deea769E
0000000000494090 g     F .text	0000000000000022              _ZN80_$LT$libc..unix..linux_like..linux..Elf64_Phdr$u20$as$u20$core..clone..Clone$GT$5clone17h9efb83fb32883aacE
00000000004bb5f0 g     F .text	0000000000000231              _ZN64_$LT$core..core_arch..simd..u8x8$u20$as$u20$core..fmt..Debug$GT$3fmt17h968fc6d438458348E
0000000000000000       F *UND*	0000000000000000              unlinkat@GLIBC_2.4
0000000000462460 g     F .text	000000000000000f              _ZN6object4read2pe7section48_$LT$impl$u20$object..pe..ImageSectionHeader$GT$12contains_rva17h904747a989998baeE
0000000000441d40 g     F .text	0000000000000003              _ZN77_$LT$$RF$std..os..unix..net..stream..UnixStream$u20$as$u20$std..io..Write$GT$5flush17h689708bd690aa85dE
00000000004a0750 g     F .text	0000000000000029              _ZN86_$LT$core..char..CaseMappingIter$u20$as$u20$core..iter..traits..iterator..Iterator$GT$9size_hint17hf19a2ed9bb00c9cbE
00000000004bcb80 g     F .text	000000000000006a              _ZN65_$LT$core..core_arch..simd..i32x4$u20$as$u20$core..fmt..Debug$GT$3fmt17h843fbde74a586a6cE
00000000004a0940 g     F .text	0000000000000015              _ZN67_$LT$core..char..TryFromCharError$u20$as$u20$core..fmt..Display$GT$3fmt17h7697a6471fcd12ccE
00000000004d48c0 g     F .text	000000000000075c              system__os_lib__normalize_pathname
0000000000430980 g     F .text	00000000000000ca              _ZN58_$LT$std..io..stdio..StdinRaw$u20$as$u20$std..io..Read$GT$11read_to_end17he18cb78cf3be7103E
000000000049dad0 g     F .text	000000000000000d              _ZN4core3num5error15TryFromIntError13__description17h40b556b4773b4108E
00000000004bd390 g     F .text	000000000000006a              _ZN65_$LT$core..core_arch..simd..m32x4$u20$as$u20$core..fmt..Debug$GT$3fmt17hcb93055cb9157f62E
000000000047ae60 g     F .text	0000000000000024              _ZN5gimli4arch6X86_6413register_name17hd78b7b33c558769bE
00000000004e6a70 g     F .text	0000000000000012              ada__characters__handling__is_hexadecimal_digit
00000000008004e8 g     O .data	0000000000000002              ada__io_exceptions_E
000000000044e040 g     F .text	0000000000000077              _ZN3std3sys4unix6os_str5Slice8to_owned17h3f7c22a20ced38b9E
000000000047e620 g     F .text	0000000000000029              _ZN60_$LT$gimli..constants..DwLle$u20$as$u20$core..fmt..Debug$GT$3fmt17h0728f5ea0071d5dcE
00000000004e5be0 g     F .text	0000000000000063              __gnat_has_cap_sys_nice
0000000000800b88 g     O .data	0000000000000008              __gnat_invalid_tzoff
000000000051a280 g     O .rodata	0000000000000004              system__io__file_typeN
00000000005164a0 g     O .rodata	0000000000000004              ada__strings__truncationN
000000000042c570 g     F .text	000000000000000c              _ZN84_$LT$std..env..Args$u20$as$u20$core..iter..traits..exact_size..ExactSizeIterator$GT$8is_empty17hd32365da57166631E
0000000000000000       F *UND*	0000000000000000              ferror@GLIBC_2.2.5
00000000005184e0 g     O .rodata	0000000000000010              system__standard_library__tasking_error_name
00000000004484c0 g     F .text	0000000000000015              _ZN66_$LT$std..error..private..Internal$u20$as$u20$core..fmt..Debug$GT$3fmt17hdf838c82ca77e8e9E
00000000004ace80 g     F .text	00000000000000aa              _ZN4core3num6bignum5tests6Big8x310bit_length17h9dd6ee959211f186E
00000000004b2350 g     F .text	0000000000000092              _ZN4core3fmt3num53_$LT$impl$u20$core..fmt..UpperHex$u20$for$u20$u64$GT$3fmt17h59adc931d09f97c9E
000000000043bb50 g     F .text	000000000000003a              _ZN3std2os4unix3net9ancillary15SocketAncillary8messages17h432b759641089466E
00000000004e5040 g     F .text	0000000000000004              __gnat_to_host_dir_spec
00000000004d93f0 g     F .text	0000000000000013              system__soft_links__destroy_tsd
00000000004c82b0 g     F .text	00000000000000fc              ada__strings__maps__to_mapping
00000000004da770 g     F .text	000000000000001a              system__traceback__symbolic__symbolic_traceback__2
0000000000803a40 g     O .bss	0000000000000020              ada__strings__maps__constants__A99s
000000000043e070 g     F .text	00000000000000c8              _ZN76_$LT$std..process..Command$u20$as$u20$std..os..unix..process..CommandExt$GT$6groups17h9797ae58d09bea5cE
00000000004368d0 g     F .text	00000000000001dd              _ZN66_$LT$std..net..ip_addr..Ipv4Addr$u20$as$u20$core..fmt..Display$GT$3fmt17ha59554a2d2fd8667E
0000000000494500 g     F .text	000000000000000a              _ZN82_$LT$libc..unix..linux_like..linux..gnu..cmsghdr$u20$as$u20$core..clone..Clone$GT$5clone17hb6384b1d0a292844E
0000000000439370 g     F .text	000000000000003f              _ZN96_$LT$$LP$std..net..ip_addr..IpAddr$C$u16$RP$$u20$as$u20$std..net..socket_addr..ToSocketAddrs$GT$15to_socket_addrs17h730c9b2db83e25ecE
0000000000495530 g     F .text	000000000000006f              _ZN120_$LT$alloc..boxed..Box$LT$dyn$u20$core..error..Error$GT$$u20$as$u20$core..convert..From$LT$alloc..string..String$GT$$GT$4from17h56737ff89649a6c0E
000000000043e620 g     F .text	0000000000000003              _ZN3std3net3tcp11TcpListener13into_incoming17h6b34109163229276E
00000000004bf1d0 g     F .text	00000000000009a1              _ZN65_$LT$core..core_arch..simd..i8x64$u20$as$u20$core..fmt..Debug$GT$3fmt17hf22ddd4bc179634bE
000000000045c220 g     F .text	0000000000000008              _ZN91_$LT$std..panicking..rust_panic_without_hook..RewrapBox$u20$as$u20$core..panic..BoxMeUp$GT$3get17h17a96ae9fb1b6cdeE
00000000004cdbf0 g     F .text	0000000000000058              ada__text_io__reset__2
00000000004e4690 g     F .text	0000000000000016              __gnat_get_libraries_from_registry
000000000042dec0 g     F .text	0000000000000008              _ZN3std2fs11OpenOptions10create_new17hba50fb2514ea38a6E
00000000004e2f00 g     F .text	0000000000000007              system__mmap__last__2
00000000004708b0 g     F .text	0000000000000009              _ZN6memchr6memmem8Searcher6needle17h87ba76afda006b9cE
0000000000516fc0 g     O .rodata	0000000000000014              ada__text_io__type_setS
00000000004d51d0 g     F .text	000000000000021e              system__os_lib__locate_regular_file
000000000044c840 g     F .text	0000000000000036              _ZN3std3sys4unix11kernel_copy6FdMeta10maybe_fifo17hb3d22d609269a5eeE
00000000004de290 g     F .text	000000000000002a              system__object_reader__read__9
00000000004383d0 g     F .text	0000000000000077              _ZN3std3net6parser84_$LT$impl$u20$core..str..traits..FromStr$u20$for$u20$std..net..ip_addr..Ipv4Addr$GT$8from_str17h38746a1bb90262d0E
00000000004d1ae0 g     F .text	0000000000000006              system__finalization_root___size
00000000004a5fd0 g     F .text	0000000000000002              _ZN42_$LT$$u21$$u20$as$u20$core..fmt..Debug$GT$3fmt17h025ff574c51e5bf3E
00000000004d9200 g     F .text	0000000000000001              system__soft_links__abort_defer_nt
00000000004d9cf0 g     F .text	00000000000000d1              system__traceback__symbolic__init_module
00000000005166e0 g     O .rodata	0000000000000068              ada__strings__text_buffers__root_buffer_typeT
0000000000478340 g     F .text	0000000000001131              _ZN5gimli4arch3Arm16name_to_register17hf22c670e22c6f902E
00000000004939d0 g     F .text	0000000000000012              _ZN59_$LT$libc..unix..protoent$u20$as$u20$core..clone..Clone$GT$5clone17heb34a84614d13f58E
00000000004a1aa0 g     F .text	000000000000000e              _ZN4core3fmt8builders9DebugList5entry17h7ea62470ddf6a5fbE
00000000004c3480 g     F .text	00000000000003d3              _ZN67_$LT$core..core_arch..x86..__m256bh$u20$as$u20$core..fmt..Debug$GT$3fmt17h79fe2524c287db77E
000000000043e620 g     F .text	0000000000000003              _ZN110_$LT$std..process..ChildStdout$u20$as$u20$std..sys_common..IntoInner$LT$std..sys..unix..pipe..AnonPipe$GT$$GT$10into_inner17h09547fef0b67e58bE
00000000004bbcb0 g     F .text	00000000000000bd              _ZN65_$LT$core..core_arch..simd..i64x1$u20$as$u20$core..fmt..Debug$GT$3fmt17h1645fe03900a8b38E
00000000004e4510 g     F .text	000000000000002a              __gnat_file_time_name_attr
0000000000000000       F *UND*	0000000000000000              isatty@GLIBC_2.2.5
0000000000497330 g     F .text	00000000000003a8              _ZN5alloc3str21_$LT$impl$u20$str$GT$12to_uppercase17h07fbab05a1682d80E
00000000004e0f80 g     F .text	00000000000001ad              system__dwarf_lines__to_file_name
0000000000463550 g     F .text	0000000000000004              _ZN6object4read3elf7version7Version4hash17hd2913e34ed94c1beE
0000000000496760 g     F .text	00000000000000ef              _ZN5alloc3ffi5c_str75_$LT$impl$u20$alloc..borrow..ToOwned$u20$for$u20$core..ffi..c_str..CStr$GT$10clone_into17h18381545ae876f14E
0000000000454ba0 g     F .text	000000000000009c              _ZN104_$LT$std..sys_common..net..LookupHost$u20$as$u20$core..convert..TryFrom$LT$$LP$$RF$str$C$u16$RP$$GT$$GT$8try_from17h89876aeae7705faaE
00000000004d3ac0 g     F .text	0000000000000032              system__os_lib__create_temp_file__2
00000000004421d0 g     F .text	0000000000000004              _ZN122_$LT$std..process..Command$u20$as$u20$std..sys_common..AsInner$LT$std..sys..unix..process..process_common..Command$GT$$GT$8as_inner17h548fe341ddcaeeb2E
00000000004ed520 g     F .text	0000000000000025              .hidden __deregister_frame
0000000000481b90 g     F .text	0000000000000029              _ZN72_$LT$gimli..read..reader..ReaderOffsetId$u20$as$u20$core..fmt..Debug$GT$3fmt17h72fbb29b2bf534f0E
000000000049fba0 g     F .text	000000000000004c              _ZN105_$LT$dyn$u20$core..any..Any$u2b$core..marker..Send$u2b$core..marker..Sync$u20$as$u20$core..fmt..Debug$GT$3fmt17hcbc4cec3ba3f3565E
000000000042e0d0 g     F .text	000000000000005f              _ZN3std2fs8Metadata7created17h5f65e34271171c71E
000000000043e700 g     F .text	0000000000000054              _ZN67_$LT$std..os..fd..owned..BorrowedFd$u20$as$u20$core..fmt..Debug$GT$3fmt17h7b1093e876f4e4c8E
0000000000000000       F *UND*	0000000000000000              sigaction@GLIBC_2.2.5
000000000042a760 g     F .text	0000000000000453              _ZN64_$LT$std..backtrace..Backtrace$u20$as$u20$core..fmt..Display$GT$3fmt17hd26c99c012578374E
00000000004d6290 g     F .text	0000000000000004              system__os_lib__to_c
00000000004af2c0 g     F .text	000000000000000e              _ZN4core3num23_$LT$impl$u20$usize$GT$14from_str_radix17hb6742aa0efe507f0E
0000000000494640 g     F .text	0000000000000012              _ZN85_$LT$libc..unix..linux_like..linux..gnu..Elf64_Chdr$u20$as$u20$core..clone..Clone$GT$5clone17hf5befd7795d85125E
000000000043e4d0 g     F .text	000000000000002d              _ZN87_$LT$std..process..ExitStatusError$u20$as$u20$std..os..unix..process..ExitStatusExt$GT$8from_raw17ha64e8edd7511340bE
0000000000471e10 g     F .text	0000000000000043              _ZN67_$LT$memchr..memmem..SearcherConfig$u20$as$u20$core..fmt..Debug$GT$3fmt17h6f2c2349514db4c7E
00000000004654f0 g     F .text	0000000000000062              _ZN76_$LT$object..read..pe..rich..RichHeaderEntry$u20$as$u20$core..fmt..Debug$GT$3fmt17h3e0a43f01b114ee9E
000000000042d510 g     F .text	0000000000000073              _ZN3std2fs4File9set_times17hd84997c6b02d62fdE
00000000004de170 g     F .text	000000000000002b              system__object_reader__read__3
00000000004ca6f0 g     F .text	0000000000000165              ada__text_io__write__2
00000000004425a0 g     F .text	0000000000000004              _ZN3std7process5Child2id17h9e4311dd0190441bE
00000000004a5fd0 g     F .text	0000000000000002              _ZN62_$LT$core..convert..Infallible$u20$as$u20$core..fmt..Debug$GT$3fmt17ha54c49af1347ec36E
00000000004b2220 g     F .text	0000000000000086              _ZN4core3fmt3num50_$LT$impl$u20$core..fmt..Octal$u20$for$u20$u64$GT$3fmt17h46b59379b01f59daE
00000000005159a0 g     O .rodata	0000000000000033              ada__exceptions__rmsg_31
0000000000409100 g     F .text	0000000000000008              _ZN4core5slice5index24slice_end_index_len_fail17hc0053e01967f5557E
00000000004e0690 g     F .text	0000000000000011              system__dwarf_lines__read_entry_format_array
0000000000800670 g     O .data	0000000000000010              ada__text_io__out_name___UNC
0000000000803df0 g     O .bss	0000000000000008              ada__text_io__current_in
00000000004b0790 g     F .text	00000000000000e7              _ZN80_$LT$core..ffi..c_str..FromBytesWithNulErrorKind$u20$as$u20$core..fmt..Debug$GT$3fmt17h35fa446851f532abE
00000000004c4a6a g     F .text	00000000000000e0              ada__exceptions__exception_data__exception_informationXn
00000000004de1d0 g     F .text	000000000000002a              system__object_reader__read__5
00000000004c4758 g     F .text	0000000000000082              ada__exceptions__exception_data__append_info_exception_nameXn
00000000004d62d0 g     F .text	0000000000000011              system__os_lib__write
00000000004dad40 g     F .text	00000000000000ed              system__val_util__bad_value
00000000004aec40 g     F .text	0000000000000001              _ZN4core3num7nonzero10NonZeroI3213new_unchecked8comptime17h9d75b634abf98b63E
00000000004d0cc0 g     F .text	000000000000001f              system__file_io__mode
0000000000000000       F *UND*	0000000000000000              fread@GLIBC_2.2.5
00000000004d6110 g     F .text	00000000000000ea              system__os_lib__spawn__3
0000000000463190 g     F .text	0000000000000046              _ZN6object4read2pe6import11ImportTable11descriptors17h3dd92845abaf1adbE
0000000000446320 g     F .text	0000000000000112              __rust_drop_panic
000000000044c810 g     F .text	0000000000000023              _ZN3std3sys4unix5futex10futex_wake17h819db41ae4a754beE
000000000042e130 g     F .text	00000000000003cf              _ZN54_$LT$std..fs..Metadata$u20$as$u20$core..fmt..Debug$GT$3fmt17h59d85722fab588a1E
0000000000464b10 g     F .text	0000000000000094              _ZN71_$LT$object..read..archive..ArchiveKind$u20$as$u20$core..fmt..Debug$GT$3fmt17h40464a84afc8a313E
0000000000494280 g     F .text	0000000000000008              _ZN86_$LT$libc..unix..linux_like..linux..ff_rumble_effect$u20$as$u20$core..clone..Clone$GT$5clone17h3c1e02c96a0e7ac8E
00000000004af380 g     F .text	000000000000000a              _ZN4core3num60_$LT$impl$u20$core..str..traits..FromStr$u20$for$u20$i16$GT$8from_str17hf29d1f2bca28c778E
00000000004eda78 g     O .rodata	0000000000000004              system__standard_libraryS
0000000000465d50 g     F .text	00000000000000b8              _ZN70_$LT$object..read..CompressedFileRange$u20$as$u20$core..fmt..Debug$GT$3fmt17he7029a582ae75c26E
00000000004edb28 g     O .rodata	0000000000000004              ada__characters__handlingB
0000000000515a90 g     O .rodata	0000000000000004              ada__exceptions__exception_data__bei_msg_headerXn
0000000000494010 g     F .text	0000000000000022              _ZN80_$LT$libc..unix..linux_like..linux..Elf64_Ehdr$u20$as$u20$core..clone..Clone$GT$5clone17hcd43d73ce42d3a49E
000000000047ead0 g     F .text	0000000000000029              _ZN63_$LT$gimli..constants..DwAccess$u20$as$u20$core..fmt..Debug$GT$3fmt17h356306e082c49addE
0000000000464460 g     F .text	0000000000000073              _ZN64_$LT$object..common..SymbolScope$u20$as$u20$core..fmt..Debug$GT$3fmt17h699486a0385852fbE
0000000000468fc0 g     F .text	0000000000000062              _ZN68_$LT$object..pe..ImageBaseRelocation$u20$as$u20$core..fmt..Debug$GT$3fmt17hf1f04bbc49d8653eE
000000000044a780 g     F .text	0000000000000004              _ZN111_$LT$std..sys_common..net..TcpStream$u20$as$u20$std..sys_common..AsInner$LT$std..sys..unix..net..Socket$GT$$GT$8as_inner17h3bee171258fb6e80E
00000000004ba370 g     F .text	0000000000000126              _ZN71_$LT$core..str..pattern..TwoWaySearcher$u20$as$u20$core..fmt..Debug$GT$3fmt17hf9901cf979917cc3E
00000000004de230 g     F .text	000000000000002b              system__object_reader__read__7
0000000000439140 g     F .text	00000000000001a9              _ZN70_$LT$std..net..socket_addr..SocketAddrV6$u20$as$u20$core..cmp..Ord$GT$3cmp17hc0baae702b4c5384E
0000000000494610 g     F .text	0000000000000022              _ZN82_$LT$libc..unix..linux_like..linux..gnu..regex_t$u20$as$u20$core..clone..Clone$GT$5clone17h7d0e62296b0360a9E
00000000004d19f0 g     F .text	0000000000000057              system__file_io__write_buf
00000000004c697e g     F .text	000000000000000e              __gnat_transfer_occurrence
00000000004bc260 g     F .text	0000000000000231              _ZN65_$LT$core..core_arch..simd..u16x8$u20$as$u20$core..fmt..Debug$GT$3fmt17h2cb7e1ce8124c37aE
00000000004431b0 g     F .text	0000000000000298              _ZN3std4sync7barrier7Barrier4wait17h5c79e575b4678c95E
0000000000499d80 g     F .text	0000000000000003              _ZN4core3num7dec2flt9pfe_empty17he35ed3a40e2319f4E
00000000004ddfb0 g     F .text	0000000000000108              system__object_reader__xcoff32_ops__nameXn
00000000004c4e92 g     F .text	000000000000002b              ada__exceptions__exception_data__tailored_exception_tracebackXn
000000000046b5c0 g     F .text	000000000000010f              _ZN67_$LT$object..pe..ImageEnclaveImport$u20$as$u20$core..fmt..Debug$GT$3fmt17h283ea7d0d1a4810dE
00000000005164e0 g     O .rodata	000000000000001e              ada__strings__translation_errorE
0000000000465940 g     F .text	00000000000000be              _ZN65_$LT$object..read..ObjectMapEntry$u20$as$u20$core..fmt..Debug$GT$3fmt17h3f551c0dedcff7f4E
0000000000800bf0 g     O .bss	0000000000000008              stdin@GLIBC_2.2.5
0000000000492710 g     F .text	0000000000000318              _ZN11miniz_oxide7inflate23decompress_to_vec_inner17h6595a06e6a1dab73E
00000000004c5a48 g     F .text	000000000000001e              __gnat_raise_constraint_error
00000000004409c0 g     F .text	000000000000006c              _ZN3std4path117_$LT$impl$u20$core..convert..From$LT$$RF$std..path..Path$GT$$u20$for$u20$alloc..boxed..Box$LT$std..path..Path$GT$$GT$4from17h5da1547a1232dfbaE
0000000000000000       F *UND*	0000000000000000              setsockopt@GLIBC_2.2.5
000000000043db50 g     F .text	0000000000000067              _ZN3std2os4unix3net8datagram12UnixDatagram8passcred17h93c98c46d2b8f446E
00000000004d19c0 g     F .text	0000000000000023              system__file_io__reset__2
000000000042a3c0 g     F .text	0000000000000015              _ZN3std9backtrace9Backtrace13force_capture17h34ce3db2445421ebE
000000000042cbd0 g     F .text	00000000000001c0              _ZN3std2fs4read5inner17h3c3625d523302fd8E
000000000043b150 g     F .text	0000000000000005              _ZN69_$LT$std..fs..Metadata$u20$as$u20$std..os..linux..fs..MetadataExt$GT$7st_rdev17hf31645d96869c87aE
00000000004cda30 g     F .text	000000000000000c              ada__text_io__skip_page__2
00000000004e7810 g     F .text	0000000000000203              ada__strings__utf_encoding__wide_wide_strings__decode__2
0000000000454770 g     F .text	0000000000000043              _ZN74_$LT$std..sys_common..process..CommandEnvs$u20$as$u20$core..fmt..Debug$GT$3fmt17h2a3f17b21fa04cacE
0000000000800b2c g     O .data	0000000000000002              system__mmap__os_interface_E
00000000004776c0 g     F .text	0000000000000135              _ZN5gimli4read5value5Value2lt17h0a98f4acff3cac08E
00000000004bc4a0 g     F .text	000000000000006a              _ZN65_$LT$core..core_arch..simd..u32x4$u20$as$u20$core..fmt..Debug$GT$3fmt17h14aa3fa5e8a7e7f0E
000000000043c770 g     F .text	0000000000000100              _ZN3std2os4unix3net8datagram12UnixDatagram28recv_vectored_with_ancillary17hd9084838ee617602E
00000000004424a0 g     F .text	0000000000000003              _ZN3std7process15ExitStatusError11into_status17h6369187b0f635d9aE
0000000000405700 g     F .text	0000000000000009              _ZN3std7process5abort17h2ffc9a5bd5f6be77E
00000000004942f0 g     F .text	0000000000000010              _ZN81_$LT$libc..unix..linux_like..linux..sockaddr_nl$u20$as$u20$core..clone..Clone$GT$5clone17h76245fbb16d58100E
000000000042f9e0 g     F .text	0000000000000025              _ZN64_$LT$std..io..error..ErrorKind$u20$as$u20$core..fmt..Display$GT$3fmt17h7680f250c9d6d174E
0000000000465380 g     F .text	0000000000000043              _ZN77_$LT$object..read..pe..resource..ResourceName$u20$as$u20$core..fmt..Debug$GT$3fmt17h380147a7bd0b74b6E
000000000051655c g     O .rodata	0000000000000004              ada__strings__wide_wide_space
000000000047e230 g     F .text	0000000000000029              _ZN61_$LT$gimli..constants..DwForm$u20$as$u20$core..fmt..Debug$GT$3fmt17hababe905a1ef5a08E
000000000047e260 g     F .text	000000000000014d              _ZN5gimli9constants5DwAte13static_string17h64aac32cc4105188E
00000000004b17b0 g     F .text	0000000000000004              _ZN51_$LT$u128$u20$as$u20$core..fmt..num..DisplayInt$GT$6to_u6417hc9435b21c8fbe935E
00000000004e69f0 g     F .text	0000000000000005              __gnat_Unwind_ForcedUnwind
00000000004d35d0 g     F .text	0000000000000018              system__os_lib__gm_second
00000000004c8750 g     F .text	0000000000000054              ada__strings__maps___elabs
00000000004c9e40 g     F .text	0000000000000020              ada__tags__parent_size
00000000004b22b0 g     F .text	0000000000000092              _ZN4core3fmt3num53_$LT$impl$u20$core..fmt..LowerHex$u20$for$u20$i64$GT$3fmt17hec42cb137b2b86f2E
0000000000477080 g     F .text	0000000000000175              _ZN5gimli4read5value5Value4shra17hd13f121ea798790cE
0000000000465c00 g     F .text	0000000000000100              _ZN61_$LT$object..read..Relocation$u20$as$u20$core..fmt..Debug$GT$3fmt17h8ccc9a4f8463ec74E
00000000004cd650 g     F .text	0000000000000181              ada__text_io__skip_line
00000000004b1610 g     F .text	000000000000000c              _ZN49_$LT$i8$u20$as$u20$core..fmt..num..DisplayInt$GT$7to_u12817h134fa1947c5a8e43E
000000000049d7f0 g     F .text	0000000000000190              _ZN4core3num3fmt4Part5write17hc23b7e54b9fca94cE
00000000004a96d0 g     F .text	00000000000000b5              _ZN65_$LT$core..str..lossy..Utf8Chunks$u20$as$u20$core..fmt..Debug$GT$3fmt17h9c12f895c8438538E
000000000043d810 g     F .text	00000000000000a3              _ZN3std2os4unix3net6stream10UnixStream17set_write_timeout17hb7e5795a1c6bc741E
00000000004c5f56 g     F .text	0000000000000013              __gnat_rcheck_CE_Explicit_Raise
00000000004c9d90 g     F .text	0000000000000040              ada__tags__is_descendant_at_same_level
00000000004496e0 g     F .text	0000000000000029              _ZN74_$LT$std..sync..condvar..WaitTimeoutResult$u20$as$u20$core..fmt..Debug$GT$3fmt17hac1258b2f2fc5952E
00000000004d8ca0 g     F .text	0000000000000001              system__secondary_stack__stack_infoIP
00000000004a52d0 g     F .text	0000000000000009              _ZN4core3fmt9Formatter10sign_minus17h720214ea39d0892dE
00000000004e7530 g     F .text	00000000000000f5              ada__strings__text_buffers__utils__utf_8Predicate
000000000044e0c0 g     F .text	000000000000008b              _ZN3std3sys4unix6os_str5Slice10clone_into17hc8755491fbf658a1E
0000000000444be0 g     F .text	0000000000000641              _ZN3std10sys_common7process10CommandEnv6remove17h03108593c2fbe537E
00000000004311c0 g     F .text	000000000000013a              _ZN60_$LT$std..io..stdio..StderrRaw$u20$as$u20$std..io..Write$GT$14write_vectored17he5b9a2116e2b1d4dE
00000000004e4ac0 g     F .text	000000000000004b              __gnat_set_non_readable
00000000004c97b0 g     F .text	0000000000000010              ada__tags__get_entry_index
00000000004e6ae0 g     F .text	000000000000000f              ada__characters__handling__is_letter
00000000004b1730 g     F .text	0000000000000003              _ZN50_$LT$i64$u20$as$u20$core..fmt..num..DisplayInt$GT$6to_u3217h0947694088579695E
000000000047f440 g     F .text	0000000000000104              _ZN61_$LT$gimli..constants..DwId$u20$as$u20$core..fmt..Display$GT$3fmt17hf819cdad1555d8e8E
00000000004845c0 g     F .text	0000000000000536              _ZN64_$LT$rustc_demangle..v0..Ident$u20$as$u20$core..fmt..Display$GT$3fmt17h196de7544bdf7fc2E
00000000004d77e0 g     F .text	0000000000000225              system__put_images__put_image_integer
00000000004e3fd0 g     F .text	000000000000000e              __gnat_get_debuggable_suffix_ptr
00000000004aeec0 g     F .text	00000000000000d7              _ZN77_$LT$core..num..nonzero..NonZeroU64$u20$as$u20$core..str..traits..FromStr$GT$8from_str17h397ee7652738341eE
0000000000471460 g     F .text	0000000000000076              _ZN6memchr6memmem11SearcherRev6as_ref17h0acf2623f3fc67ebE
0000000000497b20 g     F .text	000000000000015b              _ZN5alloc6string6String10from_utf1617h9625d19a249b1379E
00000000004687d0 g     F .text	00000000000000f2              _ZN60_$LT$object..pe..ImageSymbol$u20$as$u20$core..fmt..Debug$GT$3fmt17h7e339be7330fbc50E
00000000004edb6c g     O .rodata	0000000000000004              system__mmap__os_interfaceB
00000000004e0ed0 g     F .text	00000000000000b0              system__dwarf_lines__for_each_row
00000000004e4200 g     F .text	000000000000010f              __gnat_stat_to_attr
00000000004e8560 g     F .text	0000000000000009              system__exception_traces__trace_off
0000000000499eb0 g     F .text	000000000000006f              _ZN4core3num9diy_float2Fp12normalize_to17h827e516060e55291E
00000000004d9a90 g     F .text	000000000000000c              system__traceback__symbolic__module_name__is_shared_libXnn
00000000004652b0 g     F .text	000000000000006e              _ZN87_$LT$object..read..pe..resource..ResourceDirectoryTable$u20$as$u20$core..fmt..Debug$GT$3fmt17h913264dc2c63401bE
0000000000800668 g     O .data	0000000000000002              ada__tags_E
0000000000000000  w    F *UND*	0000000000000000              __cxa_thread_atexit_impl@GLIBC_2.18
00000000004e5880 g     F .text	000000000000013b              __gnat_install_handler
0000000000000000       F *UND*	0000000000000000              __xpg_strerror_r@GLIBC_2.3.4
0000000000438990 g     F .text	0000000000000008              _ZN3std3net11socket_addr10SocketAddr7is_ipv617hbfa335bcbcfbca5fE
0000000000493410 g     F .text	0000000000000410              _ZN5adler7Adler3211write_slice17h21e805a8cb12bd23E
000000000044c8b0 g     F .text	000000000000003b              _ZN3std3sys4unix11kernel_copy6FdMeta25copy_file_range_candidate17h76f8f396f930704eE
00000000004edab0 g     O .rodata	0000000000000004              ada__exceptions__last_chance_handlerB
0000000000466bf0 g     F .text	0000000000000764              _ZN63_$LT$object..pe..ImageVxdHeader$u20$as$u20$core..fmt..Debug$GT$3fmt17h201bd0e56801eef7E
00000000004edc20 g     O .rodata	0000000000000004              system__string_hashS
0000000000518188 g     O .rodata	0000000000000004              system__os_lib__standout
0000000000450490 g     F .text	000000000000000c              _ZN122_$LT$std..sys..unix..process..process_common..CommandArgs$u20$as$u20$core..iter..traits..exact_size..ExactSizeIterator$GT$3len17h8eb2e6c574afcd2cE
000000000044e160 g     F .text	00000000000003ab              _ZN3std3sys4unix4path8absolute17hd26c4d6280886884E
00000000004938d0 g     F .text	0000000000000012              _ZN56_$LT$libc..unix..group$u20$as$u20$core..clone..Clone$GT$5clone17h2fc2a2de797e3563E
00000000004a6d10 g     F .text	0000000000000016              _ZN4core5slice5ascii30_$LT$impl$u20$$u5b$u8$u5d$$GT$12escape_ascii17h273d7f9dac54bcd7E
0000000000518480 g     O .rodata	000000000000003e              system__standard_library__exception_trace_kindS
00000000004d91e0 g     F .text	0000000000000011              system__secondary_stack__used_memory_size
000000000044dfa0 g     F .text	000000000000005d              _ZN3std3sys4unix6os_str3Buf10push_slice17h73fadf076e80f606E
00000000004625d0 g     F .text	00000000000000a0              _ZN69_$LT$object..read..pe..export..Export$u20$as$u20$core..fmt..Debug$GT$3fmt17hc53a39b8034a0fdaE
0000000000431c40 g     F .text	0000000000000008              _ZN3std2io5stdio9StdinLock10as_mut_buf17hfecb0c7dbe2de051E
00000000004c693a g     F .text	0000000000000044              __gnat_to_stderr
000000000043ab60 g     F .text	0000000000000067              _ZN3std3net3udp9UdpSocket9broadcast17h51337ba53dc3762fE
000000000042c520 g     F .text	000000000000002c              _ZN73_$LT$std..env..Args$u20$as$u20$core..iter..traits..iterator..Iterator$GT$9size_hint17h9c4d2ce3ce738bddE
00000000004cac20 g     F .text	0000000000000096              ada__text_io__end_of_line__2
000000000048fb10 g     F .text	00000000000020bc              _ZN11miniz_oxide7inflate4core10decompress17hc0002433a349a59bE
00000000004da7b0 g     F .text	00000000000000be              system__traceback__symbolic___elabb
00000000004a7590 g     F .text	000000000000003a              _ZN4core5slice5index20into_range_unchecked17h4636c834d7e96eddE
00000000004e4500 g     F .text	0000000000000003              __gnat_readdir_is_thread_safe
00000000004edafc g     O .rodata	0000000000000004              interfacesS
00000000004af140 g     F .text	0000000000000045              _ZN77_$LT$core..num..nonzero..NonZeroI32$u20$as$u20$core..str..traits..FromStr$GT$8from_str17h4c0dfb6179b19171E
0000000000474ec0 g     F .text	0000000000000084              _ZN5gimli4read6abbrev12Abbreviation3new17h90147bc71e3e68bcE
0000000000450200 g     F .text	0000000000000008              _ZN124_$LT$std..sys..unix..process..process_common..Stdio$u20$as$u20$core..convert..From$LT$std..sys..unix..pipe..AnonPipe$GT$$GT$4from17h06da4b496dbce78aE
0000000000465070 g     F .text	0000000000000084              _ZN69_$LT$object..read..pe..import..Import$u20$as$u20$core..fmt..Debug$GT$3fmt17h3fdc929c38f74179E
00000000004caae0 g     F .text	000000000000000e              ada__text_io__col
00000000004a5fd0 g     F .text	0000000000000002              _ZN64_$LT$core..convert..Infallible$u20$as$u20$core..fmt..Display$GT$3fmt17he0006f114a822b6cE
00000000004769e0 g     F .text	00000000000001d3              _ZN5gimli4read5value5Value2or17h5b1e1b880398513fE
00000000004c6378 g     F .text	00000000000001d9              __gnat_rcheck_CE_Invalid_Data_ext
00000000004c80b0 g     F .text	0000000000000012              ada__strings__maps__Oeq
0000000000000000       F *UND*	0000000000000000              readlink@GLIBC_2.2.5
00000000004b2100 g     F .text	000000000000008f              _ZN4core3fmt3num53_$LT$impl$u20$core..fmt..UpperHex$u20$for$u20$u32$GT$3fmt17ha36c787dee1539e8E
00000000004cf920 g     F .text	00000000000001d9              system__exception_table__internal_exception
0000000000517040 g     O .rodata	0000000000000058              ada__text_io__text_afcbR135s___UNC
00000000004dc830 g     F .text	000000000000009e              system__object_reader__pecoff_ops__read_headerXn
0000000000000000       F *UND*	0000000000000000              fcntl@GLIBC_2.2.5
00000000004aa050 g     F .text	00000000000000ad              _ZN68_$LT$core..time..Duration$u20$as$u20$core..ops..arith..SubAssign$GT$10sub_assign17h01298c073b188917E
00000000004dc100 g     F .text	00000000000000be              system__object_reader__object_archH
0000000000000000       F *UND*	0000000000000000              clock_gettime@GLIBC_2.17
0000000000000000       F *UND*	0000000000000000              setenv@GLIBC_2.2.5
00000000004aec20 g     F .text	0000000000000001              _ZN4core3num7nonzero9NonZeroU813new_unchecked8comptime17he5ed79794c94164bE
000000000042a700 g     F .text	0000000000000052              _ZN3std9backtrace9Backtrace6frames17h12ba077c061e3de6E
00000000004e5020 g     F .text	0000000000000004              __gnat_to_canonical_file_spec
0000000000452760 g     F .text	0000000000000085              _ZN3std3sys4unix17decode_error_kind17h4d3cc2a346821f63E
0000000000000000       F *UND*	0000000000000000              posix_spawnattr_destroy@GLIBC_2.2.5
00000000004702d0 g     F .text	0000000000000003              _ZN6memchr6memmem13FinderBuilder3new17hb84301a61d3d5bdaE
00000000004ca2f0 g     F .text	000000000000000f              ada__text_io__text_afcbPI__2
0000000000462450 g     F .text	0000000000000007              _ZN6object4read2pe7section48_$LT$impl$u20$object..pe..ImageSectionHeader$GT$16pe_address_range17hf5c9195bd3da11b9E
000000000044a1e0 g     F .text	0000000000000034              _ZN3std3sys4unix2fd8FileDesc15set_nonblocking17h89e451fc9f255e00E
00000000004aca30 g     F .text	0000000000000013              _ZN68_$LT$core..num..bignum..Big32x40$u20$as$u20$core..cmp..PartialEq$GT$2eq17hf2451ff5ae302f9bE
00000000004e3d80 g     F .text	000000000000004d              __gnat_to_os_time
0000000000000000       F *UND*	0000000000000000              write@GLIBC_2.2.5
000000000044b920 g     F .text	000000000000013b              _ZN3std3sys4unix2fs12canonicalize17h6bfc51bd4666cf0bE
0000000000489960 g     F .text	000000000000002a              _ZN11miniz_oxide7deflate4core10TDEFLFlush3new17h68b65b7aff32bd36E
00000000004968f0 g     F .text	000000000000000d              _ZN66_$LT$alloc..ffi..c_str..NulError$u20$as$u20$core..error..Error$GT$11description17h33c1a0d858a109f1E
00000000004a0ef0 g     F .text	0000000000000019              _ZN54_$LT$core..ffi..c_void$u20$as$u20$core..fmt..Debug$GT$3fmt17h4b43302ae9a4ed5cE
00000000004b1030 g     F .text	0000000000000013              _ZN66_$LT$core..sync..atomic..AtomicU32$u20$as$u20$core..fmt..Debug$GT$3fmt17h9882c354cf41333aE
00000000004983e0 g     F .text	0000000000000074              _ZN80_$LT$alloc..vec..Vec$LT$u8$GT$$u20$as$u20$core..convert..From$LT$$RF$str$GT$$GT$4from17hb2dbf62d155b6294E
0000000000441200 g     F .text	00000000000000f4              _ZN3std4path4Path9file_stem17h36ce820aa56f2385E
000000000046e7b0 g     F .text	0000000000000196              _ZN6memchr6memmem9rabinkarp4find17h0ee5aab03c414021E
00000000004b1790 g     F .text	0000000000000004              _ZN51_$LT$i128$u20$as$u20$core..fmt..num..DisplayInt$GT$6to_u1617h3279f0a7afb40676E
0000000000493960 g     F .text	0000000000000004              _ZN58_$LT$libc..unix..winsize$u20$as$u20$core..clone..Clone$GT$5clone17h988055b4b22350daE
000000000044a7a0 g     F .text	0000000000000025              _ZN72_$LT$std..sys..unix..net..Socket$u20$as$u20$std..os..fd..owned..AsFd$GT$5as_fd17h1465eac08a766adfE
00000000008040a8 g     O .bss	0000000000000008              system__file_io__file_io_clean_up_object
0000000000476490 g     F .text	00000000000002cb              _ZN5gimli4read5value5Value3rem17hbe0344c1990cf3bfE
00000000004b1760 g     F .text	0000000000000005              _ZN51_$LT$i128$u20$as$u20$core..fmt..num..DisplayInt$GT$4zero17h73c3b19cdbf3e1dcE
00000000008002a0 g     O .data	0000000000000028              ada__containers__capacity_error
000000000080c7c4 g     O .bss	0000000000000004              __gl_zero_cost_exceptions
000000000043d5d0 g     F .text	00000000000000f3              _ZN3std2os4unix3net6stream10UnixStream9peer_addr17hd709842ce25849e3E
00000000004cc5f0 g     F .text	000000000000000c              ada__text_io__end_of_file__2
0000000000494110 g     F .text	0000000000000010              _ZN85_$LT$libc..unix..linux_like..linux..gnu..Elf32_Chdr$u20$as$u20$core..clone..Clone$GT$5clone17h65a9c8d53b414348E
00000000004943f0 g     F .text	0000000000000012              _ZN92_$LT$libc..unix..linux_like..linux..__c_anonymous_ifr_ifru$u20$as$u20$core..clone..Clone$GT$5clone17h91fd2193ceb1797cE
000000000043b0d0 g     F .text	0000000000000007              _ZN74_$LT$std..fs..OpenOptions$u20$as$u20$std..os..unix..fs..OpenOptionsExt$GT$4mode17h84e7e4b5603ed663E
00000000004e2e80 g     F .text	000000000000001b              system__mmap__read__3
00000000004c6928 g     F .text	0000000000000012              __gnat_to_stderr_char
000000000047e820 g     F .text	0000000000000140              _ZN62_$LT$gimli..constants..DwEnd$u20$as$u20$core..fmt..Display$GT$3fmt17h76bd6272c63c1439E
000000000042e5c0 g     F .text	0000000000000018              _ZN3std2fs11Permissions12set_readonly17h11f794a804e36065E
0000000000498690 g     F .text	000000000000006e              _ZN71_$LT$alloc..ffi..c_str..IntoStringError$u20$as$u20$core..fmt..Debug$GT$3fmt17h2fc2a9a7172a9cc0E
00000000004edb50 g     O .rodata	0000000000000004              system__address_imageS
000000000043d4d0 g     F .text	00000000000000f3              _ZN3std2os4unix3net6stream10UnixStream10local_addr17h936dfa859560d56cE
00000000004423f0 g     F .text	0000000000000007              _ZN3std7process10ExitStatus7success17h71c6ee3bc8826b8aE
00000000004ae560 g     F .text	00000000000000dc              _ZN61_$LT$core..num..diy_float..Fp$u20$as$u20$core..fmt..Debug$GT$3fmt17h6494c4456a2760f8E
00000000004e6c30 g     F .text	000000000000000e              ada__characters__handling__to_basic
00000000004350e0 g     F .text	000000000000002c              _ZN56_$LT$std..io..util..Sink$u20$as$u20$core..fmt..Debug$GT$3fmt17h02ea51832a3b1a10E
0000000000463b90 g     F .text	0000000000000070              _ZN6object4read2pe4rich6memmem17hb582419f0694c459E
000000000043b170 g     F .text	0000000000000005              _ZN69_$LT$std..fs..Metadata$u20$as$u20$std..os..linux..fs..MetadataExt$GT$8st_atime17h7feac0609bbd5350E
0000000000000000       F *UND*	0000000000000000              getpid@GLIBC_2.2.5
00000000004cfb90 g     F .text	00000000000000f8              system__exception_table___elabb
00000000008006a8 g     O .data	0000000000000008              ada__text_io__standard_out
0000000000494540 g     F .text	000000000000002a              _ZN84_$LT$libc..unix..linux_like..linux..gnu..mallinfo2$u20$as$u20$core..clone..Clone$GT$5clone17hdab176899cf115a6E
00000000004c5a7e g     F .text	0000000000000033              ada__exceptions__complete_occurrence
00000000004d9350 g     F .text	0000000000000001              system__soft_links__abort_handler_nt
00000000004e55a0 g     F .text	000000000000006d              __gnat_full_name
00000000004cf6d0 g     F .text	0000000000000058              system__exception_table__has_name
00000000004c8fe0 g     F .text	000000000000003d              ada__tags__interfaces_arrayIP
0000000000464ad0 g     F .text	0000000000000015              _ZN65_$LT$object..endian..LittleEndian$u20$as$u20$core..fmt..Debug$GT$3fmt17h5ba909716f1139f1E
0000000000493910 g     F .text	0000000000000010              _ZN81_$LT$libc..unix..linux_like..linux..in6_pktinfo$u20$as$u20$core..clone..Clone$GT$5clone17hfde3f42430612891E
0000000000450200 g     F .text	0000000000000008              _ZN92_$LT$std..process..Stdio$u20$as$u20$core..convert..From$LT$std..process..ChildStderr$GT$$GT$4from17hb738b27f03e5fa8dE
000000000043b6b0 g     F .text	000000000000028d              _ZN3std2os4unix3net9ancillary31send_vectored_with_ancillary_to17h5c742c7749582161E
00000000004dd3f0 g     F .text	0000000000000001              system__object_reader__pecoff_ops__symtab_entryIPXn
00000000004384a0 g     F .text	000000000000004e              _ZN3std3net6parser84_$LT$impl$u20$core..str..traits..FromStr$u20$for$u20$std..net..ip_addr..Ipv6Addr$GT$8from_str17h264e7f5379a21421E
0000000000427cf0 g     F .text	000000000000003c              _ZN3std6thread15park_timeout_ms17hb1095c5299edec63E
0000000000516470 g     O .rodata	0000000000000010              ada__strings__directionS
00000000004c8150 g     F .text	0000000000000038              ada__strings__maps__Oor
00000000004d3200 g     F .text	0000000000000065              system__os_lib__get_object_suffix
0000000000475460 g     F .text	000000000000008a              _ZN5gimli4read5value5Value6to_u6417hfd9381500bda18f2E
00000000004e2ed0 g     F .text	0000000000000005              system__mmap__offset
000000000043b140 g     F .text	0000000000000004              _ZN68_$LT$std..fs..Metadata$u20$as$u20$std..os..unix..fs..MetadataExt$GT$3gid17he49d9027152d2138E
0000000000480110 g     F .text	0000000000000158              _ZN62_$LT$gimli..constants..DwLne$u20$as$u20$core..fmt..Display$GT$3fmt17h922cb9c451725a41E
00000000004c2970 g     F .text	000000000000006a              _ZN66_$LT$core..core_arch..x86..__m256d$u20$as$u20$core..fmt..Debug$GT$3fmt17h47a72d12dcab3e83E
000000000042e040 g     F .text	0000000000000004              _ZN3std2fs8Metadata9file_type17heaee786a05f14580E
0000000000449cc0 g     F .text	0000000000000251              _ZN3std3sys4unix2fd8FileDesc11read_to_end17h7d6cb59e65ab62d4E
000000000044eca0 g     F .text	0000000000000033              _ZN3std3sys4unix7process14process_common7Command5stdin17h4e79bba2d48c2e42E
0000000000493970 g     F .text	0000000000000006              _ZN80_$LT$libc..unix..linux_like..linux..regmatch_t$u20$as$u20$core..clone..Clone$GT$5clone17hd9f91bb7b15ede08E
000000000042ba70 g     F .text	00000000000001dc              _ZN3std3env8_set_var17hdc37497d9ca62264E
00000000004ddd60 g     F .text	0000000000000089              system__object_reader__elf32_ops__nameXn
000000000042be20 g     F .text	000000000000002e              _ZN79_$LT$std..env..SplitPaths$u20$as$u20$core..iter..traits..iterator..Iterator$GT$9size_hint17hd2fd55a887815aafE
00000000004c4d48 g     F .text	00000000000000d6              ada__exceptions__exception_data__set_exception_c_msgXn
0000000000471860 g     F .text	000000000000008d              _ZN66_$LT$memchr..memmem..twoway..Shift$u20$as$u20$core..fmt..Debug$GT$3fmt17hceef71ddc0cb003dE
00000000004504a0 g     F .text	000000000000000b              _ZN122_$LT$std..sys..unix..process..process_common..CommandArgs$u20$as$u20$core..iter..traits..exact_size..ExactSizeIterator$GT$8is_empty17h37f8edec053264b2E
00000000004a52f0 g     F .text	000000000000000a              _ZN4core3fmt9Formatter19sign_aware_zero_pad17h001455b45788e21bE
0000000000494b40 g     F .text	000000000000000e              _ZN76_$LT$libc..unix..linux_like..linux..sembuf$u20$as$u20$core..clone..Clone$GT$5clone17h456875fece71c33cE
00000000004655b0 g     F .text	000000000000011b              _ZN59_$LT$object..read..FileKind$u20$as$u20$core..fmt..Debug$GT$3fmt17hd3cbbc62ef41258dE
000000000048d280 g     F .text	00000000000016da              _ZN11miniz_oxide7deflate4core14compress_inner17heb6dc7f41a75fd85E
000000000043ac90 g     F .text	000000000000004c              _ZN3std3net3udp9UdpSocket20set_multicast_ttl_v417h0df48f120cd40112E
00000000004bef20 g     F .text	000000000000006a              _ZN65_$LT$core..core_arch..simd..i64x4$u20$as$u20$core..fmt..Debug$GT$3fmt17h5730f17d341168a0E
0000000000495460 g     F .text	0000000000000008              _ZN71_$LT$alloc..boxed..Box$LT$str$GT$$u20$as$u20$core..default..Default$GT$7default17h816519a236163b5cE
00000000004d2450 g     F .text	0000000000000009              system__os_lib__os_exit_default
00000000004963c0 g     F .text	0000000000000021              _ZN5alloc3ffi5c_str7CString27from_vec_with_nul_unchecked17hb3d1c050d384e593E
0000000000519030 g     O .rodata	0000000000000010              system__object_reader__object_archN
000000000042dc10 g     F .text	0000000000000103              _ZN51_$LT$$RF$std..fs..File$u20$as$u20$std..io..Read$GT$14read_to_string17h99c817c8f41cd336E
00000000004435b0 g     F .text	0000000000000015              _ZN129_$LT$$LT$std..sync..mutex..Mutex$LT$T$GT$$u20$as$u20$core..fmt..Debug$GT$..fmt..LockedPlaceholder$u20$as$u20$core..fmt..Debug$GT$3fmt17h75fd43f5bf947ee5E
00000000004702e0 g     F .text	0000000000000007              _ZN6memchr6memmem13FinderBuilder9prefilter17h8844828d50dd2527E
00000000004e6b90 g     F .text	000000000000000b              ada__characters__handling__is_space
00000000005168ba g     O .rodata	0000000000000002              ada__strings__utf_encoding__bom_16be
0000000000431f70 g     F .text	00000000000000c2              _ZN59_$LT$std..io..stdio..StdinLock$u20$as$u20$std..io..Read$GT$11read_to_end17h10e07b416cdf99c7E
0000000000440510 g     F .text	00000000000000ba              _ZN3std4path7PathBuf5_push17h1e499a7685027216E
00000000004e6f50 g     F .text	00000000000000a2              ada__characters__handling__to_string
00000000004625b0 g     F .text	0000000000000007              _ZN6object4read2pe6export12ExportTarget10is_address17h73461abb7199ec90E
000000000042d420 g     F .text	000000000000006b              _ZN3std3net3tcp11TcpListener9try_clone17h3f206a6fbd692aeeE
0000000000455b20 g     F .text	000000000000005f              _ZN3std10sys_common3net153_$LT$impl$u20$std..sys_common..IntoInner$LT$$LP$std..sys_common..net..SocketAddrCRepr$C$u32$RP$$GT$$u20$for$u20$$RF$std..net..socket_addr..SocketAddr$GT$10into_inner17hb2ae067fb645c718E
00000000004c81d0 g     F .text	0000000000000019              ada__strings__maps__is_in
000000000047e7c0 g     F .text	000000000000005c              _ZN5gimli9constants5DwEnd13static_string17h612bab0669313246E
0000000000439f80 g     F .text	0000000000000010              _ZN3std3net3tcp9TcpStream9peer_addr17h4d5c3f8ef98431ddE
00000000004c8820 g     F .text	0000000000000001              ada__strings__text_buffers__root_buffer_typePartial_DIC
0000000000498460 g     F .text	0000000000000015              _ZN57_$LT$alloc..alloc..Global$u20$as$u20$core..fmt..Debug$GT$3fmt17h727531b88d605e40E
0000000000515f50 g     O .rodata	000000000000001d              ada__io_exceptions__name_errorE
000000000043a8a0 g     F .text	0000000000000067              _ZN3std3net3tcp11TcpListener7only_v617h293c7dc19e18da96E
000000000042dea0 g     F .text	0000000000000008              _ZN3std2fs11OpenOptions8truncate17h82b705251aff84acE
00000000004d96d0 g     F .text	000000000000001a              system__traceback__call_chain
000000000042d890 g     F .text	0000000000000102              _ZN47_$LT$std..fs..File$u20$as$u20$std..io..Read$GT$14read_to_string17h28e8b6b44423575aE
00000000004a68c0 g     F .text	00000000000000d3              _ZN4core3fmt17pointer_fmt_inner17h09c0d89d8f067e59E
0000000000463cb0 g     F .text	0000000000000033              _ZN6object4read14CompressedData10decompress17h1dcf6ee8109002fbE
000000000047e990 g     F .text	0000000000000027              _ZN5gimli9constants8DwAccess13static_string17hb2a686be501e9fe9E
0000000000800be0 g       .data	0000000000000000              _edata
00000000004dd590 g     F .text	0000000000000005              system__object_reader__tell
0000000000803ba0 g     O .bss	0000000000000020              ada__strings__maps__null_set
000000000043bdb0 g     F .text	0000000000000432              _ZN79_$LT$std..os..unix..net..datagram..UnixDatagram$u20$as$u20$core..fmt..Debug$GT$3fmt17hdc1643a92fb56396E
00000000004b1cf0 g     F .text	0000000000000086              _ZN4core3fmt3num51_$LT$impl$u20$core..fmt..Binary$u20$for$u20$u16$GT$3fmt17h2994d3a298be103aE
000000000044aee0 g     F .text	0000000000000115              _ZN3std3sys4unix2fs6rename17he9e926324deb75f6E
0000000000800500 g     O .data	0000000000000028              ada__strings__translation_error
00000000004edc14 g     O .rodata	0000000000000004              system__htableB
00000000004e3c30 g     F .text	0000000000000029              __gnat_reset_attributes
00000000004edc88 g     O .rodata	0000000000000008              __gnat_version_address
00000000004de2c0 g     F .text	000000000000002b              system__object_reader__read__10
00000000004e5550 g     F .text	0000000000000005              __gnat_ferror
00000000004c9f20 g     F .text	000000000000003c              ada__tags__register_tag
0000000000800a00 g     O .data	0000000000000028              constraint_error
00000000004cab60 g     F .text	000000000000000c              ada__text_io__current_output__2
00000000004bbbf0 g     F .text	000000000000006a              _ZN65_$LT$core..core_arch..simd..i16x4$u20$as$u20$core..fmt..Debug$GT$3fmt17h4b0eefe95865b0e9E
00000000004d6f30 g     F .text	0000000000000174              system__put_images__ll_integer_images__put_image__2Xn
000000000044a780 g     F .text	0000000000000004              _ZN108_$LT$std..sys..unix..net..Socket$u20$as$u20$std..sys_common..AsInner$LT$std..sys..unix..fd..FileDesc$GT$$GT$8as_inner17h2ca7828f301c3c3eE
000000000042e680 g     F .text	0000000000000029              _ZN3std2fs8DirEntry4path17h80f8e079ff5c5942E
00000000004edc2c g     O .rodata	0000000000000004              ada__streamsB
0000000000800b7c g     O .data	0000000000000004              __gl_time_slice_val
000000000043b100 g     F .text	0000000000000005              _ZN68_$LT$std..fs..Metadata$u20$as$u20$std..os..unix..fs..MetadataExt$GT$3ino17h049df3541b126277E
0000000000443d60 g     F .text	000000000000006e              _ZN91_$LT$std..time..SystemTime$u20$as$u20$core..ops..arith..Sub$LT$core..time..Duration$GT$$GT$3sub17h502f8a16ad0fe631E
00000000004940e0 g     F .text	0000000000000022              _ZN80_$LT$libc..unix..linux_like..linux..Elf64_Shdr$u20$as$u20$core..clone..Clone$GT$5clone17h99450604501995c1E
00000000004b15c0 g     F .text	0000000000000003              _ZN49_$LT$i8$u20$as$u20$core..fmt..num..DisplayInt$GT$7from_u817h08d85112c1da7014E
0000000000445230 g     F .text	0000000000000031              _ZN96_$LT$std..sys_common..process..CommandEnvs$u20$as$u20$core..iter..traits..iterator..Iterator$GT$4next17h906fb67bdf44f867E
00000000004633f0 g     F .text	0000000000000004              _ZN89_$LT$object..pe..ImageThunkData64$u20$as$u20$object..read..pe..import..ImageThunkData$GT$3raw17hcacc806010d711f6E
0000000000498480 g     F .text	0000000000000015              _ZN82_$LT$alloc..collections..btree..set_val..SetValZST$u20$as$u20$core..fmt..Debug$GT$3fmt17hdce778ff6e79b45dE
00000000004546d0 g     F .text	0000000000000091              _ZN73_$LT$std..sys_common..process..CommandEnv$u20$as$u20$core..fmt..Debug$GT$3fmt17h864c708994e59136E
00000000004318b0 g     F .text	00000000000001ac              _ZN55_$LT$std..io..stdio..Stdin$u20$as$u20$std..io..Read$GT$11read_to_end17h94349818979ea98cE
000000000043a5b0 g     F .text	0000000000000010              _ZN3std3net3tcp11TcpListener10local_addr17ha9b7c5c9f71002a5E
00000000004d4730 g     F .text	000000000000006f              system__os_lib__non_blocking_spawn__3
00000000004a0a00 g     F .text	000000000000007d              _ZN59_$LT$core..ffi..c_str..CStr$u20$as$u20$core..fmt..Debug$GT$3fmt17h7f9ac2e6d0b9416fE
00000000004d0830 g     F .text	000000000000006d              system__file_io__end_of_file
0000000000408c20 g     F .text	0000000000000035              _ZN4core9panicking9panic_fmt17hfd9e949092070b66E
0000000000450200 g     F .text	0000000000000008              _ZN91_$LT$std..process..Stdio$u20$as$u20$core..convert..From$LT$std..process..ChildStdin$GT$$GT$4from17h37f7528442ebd4aeE
0000000000433ad0 g     F .text	0000000000000021              _ZN57_$LT$std..io..stdio..Stderr$u20$as$u20$std..io..Write$GT$5write17ha4d93a34510082eaE
00000000004c7f70 g     F .text	000000000000002a              ada__streams__read_sea
0000000000449640 g     F .text	0000000000000015              _ZN63_$LT$std..sync..mpsc..RecvError$u20$as$u20$core..fmt..Debug$GT$3fmt17h6446e8f6b092ed49E
00000000008047a8 g     O .bss	0000000000000004              gnat_argc
0000000000518180 g     O .rodata	0000000000000004              system__os_lib__invalid_fd
00000000004e3ec0 g     F .text	0000000000000006              __gnat_get_maximum_file_name_length
0000000000800888 g     O .data	0000000000000008              system__soft_links__lock_task
0000000000481820 g     F .text	0000000000000029              _ZN61_$LT$gimli..constants..DwEhPe$u20$as$u20$core..fmt..Debug$GT$3fmt17h778d375bbfcc9721E
00000000004ab490 g     F .text	0000000000000031              _ZN50_$LT$u16$u20$as$u20$core..num..bignum..FullOps$GT$12full_div_rem17h0a4bcba6c47f07e3E
00000000008008a0 g     O .data	0000000000000008              system__soft_links__abort_undefer
0000000000516540 g     O .rodata	0000000000000019              ada__strings__length_errorE
000000000044a780 g     F .text	0000000000000004              _ZN90_$LT$std..fs..File$u20$as$u20$std..sys_common..AsInner$LT$std..sys..unix..fs..File$GT$$GT$8as_inner17hb94931417c8fff12E
0000000000493950 g     F .text	0000000000000004              _ZN70_$LT$libc..unix..linux_like..ip_mreq$u20$as$u20$core..clone..Clone$GT$5clone17hb3c5c8f0a883fc8cE
00000000004c5e62 g     F .text	0000000000000044              ada__exceptions__raise_with_location_and_msg
00000000004818b0 g     F .text	0000000000000015              _ZN64_$LT$gimli..endianity..BigEndian$u20$as$u20$core..fmt..Debug$GT$3fmt17h58c1fc3bfbc64e35E
00000000004d3d90 g     F .text	000000000000007a              system__os_lib__copy_time_stamps__2
00000000004c1b10 g     F .text	00000000000003d3              _ZN66_$LT$core..core_arch..simd..f32x16$u20$as$u20$core..fmt..Debug$GT$3fmt17hd2f50f083b705fc8E
0000000000462a00 g     F .text	0000000000000035              _ZN6object4read2pe6export11ExportTable18address_by_ordinal17h71e22c880471da41E
00000000004e76a0 g     F .text	000000000000002f              ada__strings__text_buffers__utils__put_wide_character
0000000000494760 g     F .text	0000000000000005              _ZN4libc4unix10linux_like5linux3gnu76_$LT$impl$u20$libc..unix..linux_like..linux..gnu..b64..x86_64..siginfo_t$GT$8si_utime17hc4e1b1990a19eabeE
0000000000000000       F *UND*	0000000000000000              getpeername@GLIBC_2.2.5
00000000004bafb0 g     F .text	00000000000000af              _ZN4core7unicode12unicode_data11conversions8to_upper17h5920888de06f6de7E
00000000004d3820 g     F .text	0000000000000065              system__os_lib__is_executable_file
00000000004e3c80 g     F .text	0000000000000048              __gnat_current_time_string
0000000000803a60 g     O .bss	0000000000000020              ada__strings__maps__constants__upper_set
0000000000800680 g     O .data	0000000000000010              ada__text_io__in_name___UNC
0000000000427ee0 g     F .text	0000000000000008              _ZN3std6thread6Thread2id17ha170ffd9561644faE
0000000000482200 g     F .text	0000000000000032              _ZN76_$LT$gimli..read..rnglists..RangeListsFormat$u20$as$u20$core..fmt..Debug$GT$3fmt17h4b397f29cfd840caE
00000000004b1000 g     F .text	0000000000000008              _ZN66_$LT$core..sync..atomic..AtomicI16$u20$as$u20$core..fmt..Debug$GT$3fmt17h7be49b00b1310dadE
0000000000800840 g     O .data	0000000000000008              system__soft_links__get_current_excep
0000000000800288  w    O .data	0000000000000008              .hidden DW.ref.rust_eh_personality
00000000004794a0 g     F .text	0000000000000024              _ZN5gimli4arch7AArch6413register_name17h707cb2733841dcf3E
00000000004e4d30 g     F .text	0000000000000209              __gnat_locate_file_with_predicate
0000000000518144 g     O .rodata	0000000000000004              system__os_lib__copy_modeN
0000000000430e30 g     F .text	0000000000000201              _ZN60_$LT$std..io..stdio..StdoutRaw$u20$as$u20$std..io..Write$GT$18write_all_vectored17h9f5b03ab54e0d9bfE
0000000000494b00 g     F .text	000000000000003a              _ZN96_$LT$libc..unix..linux_like..linux..gnu..b64..x86_64..shmid_ds$u20$as$u20$core..clone..Clone$GT$5clone17hac012998d5c0b365E
00000000004edbf0 g     O .rodata	0000000000000004              system__stack_checkingS
00000000004edb60 g     O .rodata	0000000000000004              system__mmapB
000000000043b1d0 g     F .text	0000000000000005              _ZN69_$LT$std..fs..Metadata$u20$as$u20$std..os..linux..fs..MetadataExt$GT$10st_blksize17hbbf7d03b61ec5009E
00000000004649b0 g     F .text	00000000000000dd              _ZN65_$LT$object..common..SectionFlags$u20$as$u20$core..fmt..Debug$GT$3fmt17he938a36356d2a4f3E
000000000042ca10 g     F .text	00000000000001bd              _ZN3std3ffi6os_str5OsStr18to_ascii_uppercase17hecca386326865ff9E
00000000004af370 g     F .text	000000000000000a              _ZN4core3num59_$LT$impl$u20$core..str..traits..FromStr$u20$for$u20$i8$GT$8from_str17h72d65d0ab2b9f8b2E
00000000004e1730 g     F .text	00000000000001fb              system__dwarf_lines__debug_info_lookup
0000000000469160 g     F .text	000000000000018c              _ZN69_$LT$object..pe..ImageExportDirectory$u20$as$u20$core..fmt..Debug$GT$3fmt17h58f85d1aec1ec8bbE
00000000004e5050 g     F .text	0000000000000004              __gnat_to_host_file_spec
0000000000000000  w    F *UND*	0000000000000000              pthread_once@GLIBC_2.2.5
00000000004b2220 g     F .text	0000000000000086              _ZN4core3fmt3num52_$LT$impl$u20$core..fmt..Octal$u20$for$u20$usize$GT$3fmt17h61b872a5ee3342cbE
00000000004d9b50 g     F .text	00000000000000a9              system__traceback__symbolic__value
000000000044a780 g     F .text	0000000000000004              _ZN108_$LT$std..process..ChildStdout$u20$as$u20$std..sys_common..AsInner$LT$std..sys..unix..pipe..AnonPipe$GT$$GT$8as_inner17hf034d826b338bc8eE
0000000000479c00 g     F .text	0000000000000bc5              _ZN5gimli4arch5RiscV16name_to_register17h14276013bee32f2eE
00000000004e7f50 g     F .text	000000000000003f              ada__strings__utf_encoding__wide_wide_strings__encode
000000000042a3e0 g     F .text	000000000000000b              _ZN3std9backtrace9Backtrace8disabled17h49492cbe791f3e27E
00000000004d9430 g     F .text	0000000000000006              system__soft_links__get_jmpbuf_address_soft
0000000000800838 g     O .data	0000000000000008              system__soft_links__get_stack_info
00000000004a1ae0 g     F .text	0000000000000025              _ZN4core3fmt8builders9DebugList6finish17h8e38e8e76e08abfdE
0000000000494a80 g     F .text	0000000000000014              _ZN104_$LT$libc..unix..linux_like..linux..gnu..b64..x86_64..user_regs_struct$u20$as$u20$core..clone..Clone$GT$5clone17h806198f5bd5ad13dE
00000000004af5f0 g     F .text	00000000000000c6              _ZN4core3num62_$LT$impl$u20$core..str..traits..FromStr$u20$for$u20$usize$GT$8from_str17h5abe940cf172cf82E
00000000004b1c60 g     F .text	000000000000008d              _ZN4core3fmt3num52_$LT$impl$u20$core..fmt..UpperHex$u20$for$u20$i8$GT$3fmt17h4420f1cfd147e6ffE
0000000000000000       F *UND*	0000000000000000              fclose@GLIBC_2.2.5
0000000000441c60 g     F .text	0000000000000058              _ZN59_$LT$std..process..ChildStdin$u20$as$u20$std..io..Write$GT$5write17h69d4ace7efe65fdeE
0000000000000000       F *UND*	0000000000000000              posix_spawn_file_actions_destroy@GLIBC_2.2.5
00000000004a5310 g     F .text	000000000000000a              _ZN4core3fmt9Formatter15debug_upper_hex17h1de7f6350f80b832E
0000000000433b50 g     F .text	0000000000000010              _ZN57_$LT$std..io..stdio..Stderr$u20$as$u20$std..io..Write$GT$18write_all_vectored17h45ad788953bf1205E
00000000004643a0 g     F .text	00000000000000be              _ZN63_$LT$object..common..SymbolKind$u20$as$u20$core..fmt..Debug$GT$3fmt17h848b16b23f534fb9E
00000000004b22b0 g     F .text	0000000000000092              _ZN4core3fmt3num55_$LT$impl$u20$core..fmt..LowerHex$u20$for$u20$usize$GT$3fmt17h5077162b77654e99E
00000000008005f0 g     O .data	0000000000000008              ada__strings__text_buffers__root_buffer_typeH15s
00000000004c6784 g     F .text	000000000000002f              __gnat_reraise
0000000000803660 g     O .bss	0000000000000278              ada__exceptions__null_occurrence
00000000004a5ae0 g     F .text	00000000000000e2              _ZN4core3fmt9Formatter25debug_tuple_field3_finish17h9f54ee95fb43774eE
00000000004dc3a0 g     F .text	0000000000000005              system__object_reader__string_ptr_lenIP
00000000004d06e0 g     F .text	0000000000000005              system__file_io__file_io_clean_up_typeDF__2
00000000004d17d0 g     F .text	000000000000004c              system__file_io__read_buf__2
00000000004c4b4a g     F .text	0000000000000004              __gnat_exception_msg_len
0000000000000000       F *UND*	0000000000000000              __xstat64@GLIBC_2.2.5
00000000004c6f30 g     F .text	0000000000000020              ada__finalization__TcontrolledCFD
0000000000498c00 g     F .text	00000000000000af              _ZN4core3f6421_$LT$impl$u20$f64$GT$7to_bits13ct_f64_to_u6417h1b087a375094d7f5E
000000000043b1c0 g     F .text	0000000000000008              _ZN68_$LT$std..fs..Metadata$u20$as$u20$std..os..unix..fs..MetadataExt$GT$10ctime_nsec17h07bc033f770528b3E
00000000005184c0 g     O .rodata	0000000000000010              system__standard_library__numeric_error_name
000000000049f8c0 g     F .text	0000000000000088              _ZN68_$LT$core..ptr..alignment..Alignment$u20$as$u20$core..fmt..Debug$GT$3fmt17hc0c98b8928ce6502E
0000000000462c30 g     F .text	0000000000000077              _ZN6object4read2pe6export11ExportTable14forward_string17hb23848de600da90eE
0000000000800c00 g     O .bss	0000000000000028              _r_debug@GLIBC_2.2.5
0000000000493a10 g     F .text	0000000000000010              _ZN77_$LT$libc..unix..linux_like..ip_mreq_source$u20$as$u20$core..clone..Clone$GT$5clone17hb036909a037d3602E
0000000000495bf0 g     F .text	0000000000000009              _ZN5alloc6string13FromUtf8Error8as_bytes17hf70b70e1d6b5e813E
000000000047f410 g     F .text	0000000000000024              _ZN5gimli9constants4DwId13static_string17hfd3aea9efb7b56c3E
0000000000000000       F *UND*	0000000000000000              opendir@GLIBC_2.2.5
0000000000434340 g     F .text	00000000000001d7              _ZN61_$LT$$RF$std..io..stdio..Stderr$u20$as$u20$std..io..Write$GT$9write_fmt17ha9ed40679967adf1E
0000000000452540 g     F .text	000000000000002b              _ZN100_$LT$std..sys..unix..time..SystemTime$u20$as$u20$core..convert..From$LT$libc..unix..timespec$GT$$GT$4from17h85ba469d7b549109E
0000000000431640 g     F .text	000000000000004e              _ZN3std2io5stdio5Stdin5lines17hd9cb10c32b27392fE
00000000004e6a60 g     F .text	000000000000000f              ada__characters__handling__is_graphic
00000000004a0fe0 g     F .text	0000000000000012              _ZN4core5panic8location8Location20internal_constructor17h6d3e5558690928c1E
00000000004b2350 g     F .text	0000000000000092              _ZN4core3fmt3num53_$LT$impl$u20$core..fmt..UpperHex$u20$for$u20$i64$GT$3fmt17h1cb468f56124ad83E
00000000004987d0 g     F .text	0000000000000045              _ZN59_$LT$f32$u20$as$u20$core..num..dec2flt..float..RawFloat$GT$8classify17h457db33958c24392E
00000000004a84f0 g     F .text	00000000000001b5              _ZN59_$LT$core..str..iter..Chars$u20$as$u20$core..fmt..Debug$GT$3fmt17h31818f40a160e1c2E
00000000004edc3c g     O .rodata	0000000000000004              ada__strings__text_buffers__utilsB
0000000000516748 g     O .rodata	0000000000000008              ada__strings__text_buffers__root_buffer_typeR16s
00000000004edb8c g     O .rodata	0000000000000004              system__atomic_primitivesB
0000000000477d90 g     F .text	0000000000000032              _ZN65_$LT$gimli..common..DwarfFileType$u20$as$u20$core..fmt..Debug$GT$3fmt17h291c61d6f9adb000E
00000000004d3800 g     F .text	0000000000000013              system__os_lib__is_executable_file__2
0000000000000000  w    F *UND*	0000000000000000              __pthread_key_create@GLIBC_2.2.5
00000000005190f0 g     O .rodata	000000000000001e              system__object_reader__io_errorE
0000000000494440 g     F .text	0000000000000012              _ZN82_$LT$libc..unix..linux_like..linux..sockaddr_can$u20$as$u20$core..clone..Clone$GT$5clone17h6b7293a6346136b2E
000000000080c7f8 g     O .bss	0000000000000008              __gl_interrupt_states
0000000000461770 g     F .text	0000000000000179              _ZN62_$LT$object..read..util..Bytes$u20$as$u20$core..fmt..Debug$GT$3fmt17h9f1989f93c69047fE
000000000042b620 g     F .text	0000000000000035              _ZN75_$LT$std..env..VarsOs$u20$as$u20$core..iter..traits..iterator..Iterator$GT$4next17h96b44922440ab285E
000000000043dc00 g     F .text	0000000000000060              _ZN3std3net3udp9UdpSocket10take_error17h159dcd4e89820728E
0000000000461d40 g     F .text	0000000000000044              _ZN6object4read4coff7section48_$LT$impl$u20$object..pe..ImageSectionHeader$GT$4kind17hbce43900c4077f0bE
00000000004430f0 g     F .text	0000000000000003              _ZN3std3sys4unix5stdio12panic_output17h7f1d6359b236572fE
00000000004a6fa0 g     F .text	0000000000000416              _ZN70_$LT$core..slice..ascii..EscapeAscii$u20$as$u20$core..fmt..Display$GT$3fmt17hb234adc8ae2ce962E
00000000004dc1f0 g     F .text	0000000000000008              system__object_reader__mapped_streamIP
000000000043e620 g     F .text	0000000000000003              _ZN110_$LT$std..sys..unix..fd..FileDesc$u20$as$u20$std..sys_common..IntoInner$LT$std..os..fd..owned..OwnedFd$GT$$GT$10into_inner17h405b039ba77cfc35E
000000000044ddc0 g     F .text	0000000000000012              _ZN107_$LT$std..sys..unix..os_str..Buf$u20$as$u20$std..sys_common..IntoInner$LT$alloc..vec..Vec$LT$u8$GT$$GT$$GT$10into_inner17h8e57fd6bb225e8c2E
0000000000518510 g     O .rodata	0000000000000011              system__standard_library__constraint_error_name
00000000004d3120 g     F .text	0000000000000065              system__os_lib__get_debuggable_suffix
0000000000000000       F *UND*	0000000000000000              clearenv@GLIBC_2.2.5
0000000000000000       F *UND*	0000000000000000              shutdown@GLIBC_2.2.5
00000000004edc50 g     O .rodata	0000000000000004              system__file_ioS
000000000047ae90 g     F .text	00000000000008b4              _ZN5gimli4arch6X86_6416name_to_register17h222a8bf7e0fda944E
0000000000516a30 g     O .rodata	0000000000000008              ada__tags__tagged_kindN
0000000000443530 g     F .text	0000000000000003              _ZN70_$LT$std..sync..condvar..Condvar$u20$as$u20$core..default..Default$GT$7default17h058050bec6299e0eE
00000000008038e0 g     O .bss	0000000000000020              ada__strings__maps__constants__iso_646_set
00000000004d2e60 g     F .text	000000000000023a              system__os_lib__errno_message
0000000000000000       F *UND*	0000000000000000              stpcpy@GLIBC_2.2.5
000000000049f870 g     F .text	0000000000000041              _ZN4core3mem15transmutability6Assume7but_not17h78253d1d857fb163E
00000000005198d0 g     O .rodata	0000000000000010              system__mmap__os_interface__invalid_system_file
0000000000800880 g     O .data	0000000000000008              system__soft_links__unlock_task
0000000000430890 g     F .text	0000000000000003              _ZN67_$LT$std..io..readbuf..BorrowedCursor$u20$as$u20$std..io..Write$GT$5flush17ha466468e7cf6abafE
000000000047ba40 g     F .text	0000000000000084              _ZN5gimli9constants4DwUt13static_string17h1bd63b3c0f489b07E
0000000000449c60 g     F .text	0000000000000056              _ZN3std3sys4unix2fd8FileDesc13read_vectored17he07db076cda5c747E
000000000043e620 g     F .text	0000000000000003              _ZN114_$LT$std..net..tcp..TcpListener$u20$as$u20$std..sys_common..IntoInner$LT$std..sys_common..net..TcpListener$GT$$GT$10into_inner17hda0976277403209bE
00000000008006b8 g     O .data	0000000000000008              ada__text_io__text_afcbH134s
000000000044a220 g     F .text	000000000000005b              _ZN66_$LT$$RF$std..sys..unix..fd..FileDesc$u20$as$u20$std..io..Read$GT$4read17h786770257cc54b93E
000000000043b270 g     F .text	000000000000012c              _ZN3std2os4unix3net4addr11sockaddr_un17h2e6d56e5d78d1c29E
0000000000441b50 g     F .text	0000000000000018              _ZN183_$LT$std..process..Child$u20$as$u20$std..sys_common..FromInner$LT$$LP$std..sys..unix..process..process_inner..Process$C$std..sys..unix..process..process_common..StdioPipes$RP$$GT$$GT$10from_inner17hd19724283cb1a44bE
0000000000462d30 g     F .text	0000000000000434              _ZN6object4read2pe6export11ExportTable7exports17h08ccebe405359fb4E
0000000000463790 g     F .text	000000000000000e              _ZN6object4read2pe8resource26ResourceDirectoryEntryData4data17hbe4a2f53a349355bE
00000000005184d0 g     O .rodata	0000000000000010              system__standard_library__abort_signal_name
0000000000440b90 g     F .text	0000000000000067              _ZN3std4path4Path9file_name17h4bbd6508601fa680E
00000000004333a0 g     F .text	0000000000000068              _ZN61_$LT$std..io..stdio..StdoutLock$u20$as$u20$std..io..Write$GT$5flush17hfcb46c9a80e12281E
00000000005197c8 g     O .rodata	0000000000000001              system__mmap__empty_string
000000000044c9a0 g     F .text	000000000000001d              _ZN72_$LT$std..fs..File$u20$as$u20$std..sys..unix..kernel_copy..CopyWrite$GT$10properties17h4b449e3e540de3c3E
0000000000517120 g     O .rodata	0000000000000008              ada__text_io__layout_error
00000000004bc940 g     F .text	0000000000000231              _ZN65_$LT$core..core_arch..simd..i16x8$u20$as$u20$core..fmt..Debug$GT$3fmt17h289835a5746e52a3E
000000000047eb30 g     F .text	0000000000000107              _ZN62_$LT$gimli..constants..DwVis$u20$as$u20$core..fmt..Display$GT$3fmt17h9fb0f0a6e1b74fa4E
00000000004b1010 g     F .text	0000000000000008              _ZN66_$LT$core..sync..atomic..AtomicU16$u20$as$u20$core..fmt..Debug$GT$3fmt17hf26cb4b7a0ec86adE
0000000000515570 g     O .rodata	0000000000000008              ada__exceptions__null_loc
0000000000438b40 g     F .text	0000000000000014              _ZN116_$LT$std..net..socket_addr..SocketAddr$u20$as$u20$core..convert..From$LT$std..net..socket_addr..SocketAddrV4$GT$$GT$4from17hdd3116d3d4c4e354E
00000000008008c0 g     O .data	0000000000000028              _abort_signal
00000000004afa20 g     F .text	00000000000000d3              _ZN71_$LT$core..ops..index_range..IndexRange$u20$as$u20$core..fmt..Debug$GT$3fmt17h051cb6516a3cb4b3E
0000000000443500 g     F .text	000000000000002c              _ZN64_$LT$std..sync..condvar..Condvar$u20$as$u20$core..fmt..Debug$GT$3fmt17h1be52ca8a7158bd2E
000000000042c550 g     F .text	000000000000001d              _ZN86_$LT$std..env..ArgsOs$u20$as$u20$core..iter..traits..exact_size..ExactSizeIterator$GT$3len17h1e7e6b4950b00a89E
00000000004461a0 g     F .text	0000000000000048              .hidden __rdl_alloc
00000000004cfcc0 g     F .text	000000000000005f              system__file_control_block__file_modeH
00000000004cc8e0 g     F .text	00000000000000bd              ada__text_io__end_of_page
0000000000450530 g     F .text	000000000000038a              _ZN3std3sys4unix4rand19hashmap_random_keys17h55720438564e68fdE
0000000000462410 g     F .text	000000000000000f              _ZN6object4read2pe7section48_$LT$impl$u20$object..pe..ImageSectionHeader$GT$13pe_file_range17hbdb4dd85abfa85a2E
00000000004dfe70 g     F .text	0000000000000042              system__dwarf_lines__initialize_state_machine
000000000042d9a0 g     F .text	0000000000000056              _ZN48_$LT$std..fs..File$u20$as$u20$std..io..Write$GT$14write_vectored17h143811be1692ca97E
00000000004c4140 g     F .text	0000000000000007              _ZN4core9core_simd5masks72_$LT$impl$u20$core..core_simd..masks..sealed..Sealed$u20$for$u20$i64$GT$2eq17hcc875523fbe17732E
0000000000000000       F *UND*	0000000000000000              rmdir@GLIBC_2.2.5
0000000000800b64 g     O .data	0000000000000004              __gnat_constant_l_tmpnam
000000000044ca40 g     F .text	00000000000001b7              _ZN83_$LT$std..io..stdio..StdinLock$u20$as$u20$std..sys..unix..kernel_copy..CopyRead$GT$10properties17hb75b9dd7c582aa60E
00000000004d8c10 g     F .text	0000000000000005              system__secondary_stack__chunk_infoIP
000000000043adf0 g     F .text	0000000000000058              _ZN3std3net3udp9UdpSocket17join_multicast_v417hf7cff64643961f16E
00000000004e6d60 g     F .text	000000000000000b              ada__characters__handling__to_character
0000000000455ef0 g     F .text	0000000000000076              _ZN85_$LT$std..backtrace_rs..backtrace..libunwind..Frame$u20$as$u20$core..clone..Clone$GT$5clone17hb7f8f6daf2cb1e03E
00000000004df950 g     F .text	0000000000000003              system__dwarf_lines__entry_format_pairIP
0000000000448b80 g     F .text	0000000000000084              _ZN54_$LT$std..io..SeekFrom$u20$as$u20$core..fmt..Debug$GT$3fmt17h32246c6037f0feccE
00000000004a04d0 g     F .text	00000000000000ae              _ZN84_$LT$core..char..EscapeDefault$u20$as$u20$core..iter..traits..iterator..Iterator$GT$4next17hdbc8d7914744437cE
0000000000463cf0 g     F .text	00000000000000b1              _ZN6object3elf4hash17h2054a92d3516f678E
0000000000446f10 g     F .text	0000000000000051              _ZN3std9panicking11panic_count8increase17hde4d0c00f6ce717aE
00000000004b17c0 g     F .text	0000000000000008              _ZN51_$LT$u128$u20$as$u20$core..fmt..num..DisplayInt$GT$7to_u12817hdc099c7de15b16eeE
000000000080c808 g     O .bss	0000000000000008              __gl_priority_specific_dispatching
00000000004941e0 g     F .text	000000000000000a              _ZN87_$LT$libc..unix..linux_like..linux..sock_extended_err$u20$as$u20$core..clone..Clone$GT$5clone17haf8bfc625578006eE
000000000044eab0 g     F .text	00000000000000fd              _ZN3std3sys4unix7process14process_common7Command3arg17h4c667bed4f6eda7dE
0000000000465860 g     F .text	000000000000006e              _ZN64_$LT$object..read..SymbolMapName$u20$as$u20$core..fmt..Debug$GT$3fmt17heede2fa5a1ab09a5E
00000000008007f0 g     O .data	0000000000000002              system__os_lib_E
00000000004bb4e0 g     F .text	0000000000000044              _ZN65_$LT$core..core_arch..simd..u16x2$u20$as$u20$core..fmt..Debug$GT$3fmt17h8aaddf6565655106E
00000000004e4380 g     F .text	000000000000001f              __gnat_file_length_attr
0000000000442390 g     F .text	0000000000000007              _ZN3std7process5Stdio10makes_pipe17h04c86c736c70351dE
00000000008007f8 g     O .data	0000000000000002              system__secondary_stack_E
00000000004eda2c g     F .fini	0000000000000000              .hidden _fini
00000000004a0680 g     F .text	000000000000003c              _ZN97_$LT$core..char..ToLowercase$u20$as$u20$core..iter..traits..double_ended..DoubleEndedIterator$GT$9next_back17h66d4583d21c51ef3E
00000000004a0320 g     F .text	000000000000003a              _ZN95_$LT$core..char..EscapeDefault$u20$as$u20$core..iter..traits..exact_size..ExactSizeIterator$GT$3len17h25c7b0f8aaee83f0E
00000000004e7730 g     F .text	0000000000000076              ada__strings__text_buffers__utils__tab_to_column
00000000004dc390 g     F .text	0000000000000001              system__object_reader__TbufferBIP
00000000004cf554 g     F .text	000000000000004f              __gnat_debug_raise_exception
00000000004c4f02 g     F .text	0000000000000030              ada__exceptions__exception_propagation__set_foreign_occurrenceXn
0000000000000000       F *UND*	0000000000000000              strlen@GLIBC_2.2.5
0000000000430760 g     F .text	000000000000009d              _ZN66_$LT$std..io..readbuf..BorrowedBuf$u20$as$u20$core..fmt..Debug$GT$3fmt17hdcf82931c78a5ae6E
00000000004a4130 g     F .text	000000000000002d              _ZN4core3fmt9Formatter3new17h3e4bb50e16f39cbaE
000000000049fea0 g     F .text	0000000000000019              _ZN60_$LT$core..cell..BorrowError$u20$as$u20$core..fmt..Debug$GT$3fmt17h0fb3f424f5037452E
0000000000493970 g     F .text	0000000000000006              _ZN87_$LT$libc..unix..linux_like..linux..fanotify_response$u20$as$u20$core..clone..Clone$GT$5clone17h10745350a2f13b72E
0000000000471c80 g     F .text	0000000000000043              _ZN66_$LT$memchr..memmem..FinderBuilder$u20$as$u20$core..fmt..Debug$GT$3fmt17hae553613c415e559E
000000000042da10 g     F .text	0000000000000055              _ZN47_$LT$std..fs..File$u20$as$u20$std..io..Seek$GT$4seek17he804b69b4ccab227E
00000000004cd910 g     F .text	000000000000000e              ada__text_io__set_line__2
0000000000515a88 g     O .rodata	0000000000000008              ada__exceptions__exception_data__bei_name_headerXn
00000000004752f0 g     F .text	000000000000001a              _ZN145_$LT$gimli..read..abbrev..Attributes$u20$as$u20$core..convert..From$LT$alloc..vec..Vec$LT$gimli..read..abbrev..AttributeSpecification$GT$$GT$$GT$4from17h07e1188aee3c7b71E
00000000004e6c10 g     F .text	0000000000000012              ada__characters__handling__is_upper
0000000000800a50 g     O .data	0000000000000008              system__traceback__symbolic__cache_chain
000000000044a780 g     F .text	0000000000000004              _ZN112_$LT$std..net..tcp..TcpListener$u20$as$u20$std..sys_common..AsInner$LT$std..sys_common..net..TcpListener$GT$$GT$8as_inner17h67bb37a3724af7a3E
000000000049fee0 g     F .text	0000000000000019              _ZN63_$LT$core..cell..BorrowMutError$u20$as$u20$core..fmt..Debug$GT$3fmt17h61900321435a456bE
00000000004d3700 g     F .text	0000000000000065              system__os_lib__is_read_accessible_file
00000000004eaf40 g     F .text	000000000000000c              .hidden _Unwind_GetTextRelBase
00000000004b1b40 g     F .text	0000000000000082              _ZN4core3fmt3num49_$LT$impl$u20$core..fmt..Octal$u20$for$u20$u8$GT$3fmt17h4cae60434ee47938E
000000000043db10 g     F .text	000000000000003d              _ZN3std2os4unix3net6stream10UnixStream12set_passcred17h25181e08c73141cdE
00000000004c6eb0 g     F .text	0000000000000001              ada__finalization__finalize__2
000000000043dac0 g     F .text	0000000000000046              _ZN3std2os4unix3net6stream10UnixStream15set_nonblocking17h8d9e12ef61a8bcf3E
00000000004cf370 g     F .text	0000000000000001              interfaces__c_streams__Tbyte_bufferBIP
0000000000469370 g     F .text	0000000000000029              _ZN65_$LT$object..pe..ImageThunkData32$u20$as$u20$core..fmt..Debug$GT$3fmt17hff84eb03b170dd17E
000000000042ded0 g     F .text	00000000000000d1              _ZN3std2fs11OpenOptions5_open17h603d62478db00d74E
00000000004e6cb0 g     F .text	00000000000000aa              ada__characters__handling__to_basic__2
000000000044dc90 g     F .text	000000000000010f              _ZN68_$LT$std..sys..unix..os_str..Slice$u20$as$u20$core..fmt..Display$GT$3fmt17hbd8a8881ed58b8d2E
00000000004edc68 g     O .rodata	0000000000000004              system__memoryS
0000000000515f10 g     O .rodata	000000000000001f              ada__io_exceptions__device_errorE
00000000004bfb80 g     F .text	00000000000009a1              _ZN65_$LT$core..core_arch..simd..u8x64$u20$as$u20$core..fmt..Debug$GT$3fmt17h28eecd30d70b1ae5E
00000000004350d0 g     F .text	0000000000000001              _ZN3std2io4util4sink17hc5b5bc775324a475E
00000000004954e0 g     F .text	0000000000000009              _ZN223_$LT$$LT$alloc..boxed..Box$LT$dyn$u20$core..error..Error$u2b$core..marker..Send$u2b$core..marker..Sync$GT$$u20$as$u20$core..convert..From$LT$alloc..string..String$GT$$GT$..from..StringError$u20$as$u20$core..error..Error$GT$11description17h883c935d7621103eE
00000000004b24e0 g     F .text	00000000000000f0              _ZN4core3fmt3num51_$LT$impl$u20$core..fmt..Octal$u20$for$u20$i128$GT$3fmt17h098027fbd71a1774E
000000000047e4e0 g     F .text	0000000000000024              _ZN5gimli9constants5DwLle13static_string17h0cd707604af32351E
00000000008040e0 g     O .bss	00000000000002a0              system__soft_links__nt_tsd
0000000000455b80 g     F .text	0000000000000015              _ZN55_$LT$std..alloc..System$u20$as$u20$core..fmt..Debug$GT$3fmt17hfbc469d5e50cc116E
0000000000498100 g     F .text	0000000000000020              _ZN73_$LT$$RF$alloc..string..String$u20$as$u20$core..str..pattern..Pattern$GT$13into_searcher17hf92867e1bb79ca00E
00000000004cfdb0 g     F .text	000000000000000a              system__file_control_block___elabs
0000000000000000       F *UND*	0000000000000000              getpwuid_r@GLIBC_2.2.5
000000000049db00 g     F .text	0000000000000004              _ZN4core3num5error13ParseIntError4kind17h6aa76ca46785c593E
00000000004c4e1e g     F .text	0000000000000073              ada__exceptions__exception_data__set_exception_msgXn
00000000004ae070 g     F .text	0000000000000019              _ZN71_$LT$core..num..bignum..tests..Big8x3$u20$as$u20$core..clone..Clone$GT$5clone17h11c14bcef004eb67E
000000000043e620 g     F .text	0000000000000003              _ZN113_$LT$std..os..linux..process..PidFd$u20$as$u20$std..sys_common..FromInner$LT$std..sys..unix..fd..FileDesc$GT$$GT$10from_inner17hcd29ebaa091883efE
0000000000000000       F *UND*	0000000000000000              openat@GLIBC_2.4
00000000004c9f60 g     F .text	0000000000000075              ada__tags__secondary_tag
00000000004dd8c0 g     F .text	0000000000000031              system__object_reader__get_load_address
00000000004d9c80 g     F .text	000000000000002b              system__traceback__symbolic__lt
0000000000442540 g     F .text	0000000000000004              _ZN124_$LT$std..process..ExitCode$u20$as$u20$std..sys_common..AsInner$LT$std..sys..unix..process..process_common..ExitCode$GT$$GT$8as_inner17h3ff0a84b89ae7895E
00000000004cdc50 g     F .text	0000000000000022              ada__text_io__ungetc
0000000000515588 g     O .rodata	0000000000000004              ada__exceptions__exception_propagation__ua_end_of_stackXn
0000000000499d20 g     F .text	0000000000000024              _ZN4core3num7dec2flt15ParseFloatError13__description17hbf13707deffe8497E
0000000000000000       F *UND*	0000000000000000              chdir@GLIBC_2.2.5
0000000000455170 g     F .text	00000000000001df              _ZN68_$LT$std..sys_common..net..TcpStream$u20$as$u20$core..fmt..Debug$GT$3fmt17hd4a87713835284daE
00000000004434b0 g     F .text	0000000000000004              _ZN3std4sync7condvar17WaitTimeoutResult9timed_out17h9f5d47751d7c4422E
00000000004a8f90 g     F .text	0000000000000546              _ZN60_$LT$core..str..lossy..Debug$u20$as$u20$core..fmt..Debug$GT$3fmt17h30a36171d9ce386cE
00000000004cf3e0 g     F .text	0000000000000033              system__bit_ops__bit_and
00000000004c9350 g     F .text	0000000000000041              ada__tags__external_tag_htable__TtableBIPXn
00000000004dd490 g     F .text	0000000000000005              system__object_reader__elf32_ops__symtab_entry32IPXn
000000000043c2d0 g     F .text	0000000000000048              _ZN3std2os4unix3net8datagram12UnixDatagram4pair17h65bd31f7dff6cdc8E
0000000000496c70 g     F .text	00000000000006bb              _ZN5alloc3str21_$LT$impl$u20$str$GT$12to_lowercase17hddf62068fcd2c33eE
00000000004430f0 g     F .text	0000000000000003              _ZN103_$LT$std..sync..mpsc..TryRecvError$u20$as$u20$core..convert..From$LT$std..sync..mpsc..RecvError$GT$$GT$4from17h36173489d9d5d315E
000000000042dde0 g     F .text	0000000000000003              _ZN63_$LT$$RF$std..net..tcp..TcpStream$u20$as$u20$std..io..Write$GT$5flush17h68751d98ccfa6660E
000000000043e480 g     F .text	0000000000000016              _ZN82_$LT$std..process..ExitStatus$u20$as$u20$std..os..unix..process..ExitStatusExt$GT$11core_dumped17hf74e9f6176612d59E
00000000004b86e0 g     F .text	00000000000000bd              _ZN62_$LT$core..str..iter..LinesAny$u20$as$u20$core..fmt..Debug$GT$3fmt17had04e669451fcd3dE
000000000043bb20 g     F .text	0000000000000005              _ZN3std2os4unix3net9ancillary15SocketAncillary8capacity17hde7cb6a9ecd61fb6E
00000000005180f0 g     O .rodata	0000000000000014              system__os_lib__first_temp_file_name
000000000043a1e0 g     F .text	0000000000000061              _ZN3std3net3tcp9TcpStream10set_linger17h6bd29571ebd4d894E
00000000004622a0 g     F .text	0000000000000007              _ZN6object4read3elf7version12VersionIndex9is_hidden17hc861cf8078e9827bE
00000000004624c0 g     F .text	000000000000000c              _ZN6object4read2pe14data_directory15DataDirectories4iter17hc13fe6a881400532E
00000000004d1b20 g     F .text	0000000000000001              system__finalization_root__root_controlledDA
0000000000469c80 g     F .text	0000000000000062              _ZN73_$LT$object..pe..ImageDynamicRelocation32$u20$as$u20$core..fmt..Debug$GT$3fmt17h8cdf4756a3f7f844E
00000000004389c0 g     F .text	0000000000000003              _ZN3std3net11socket_addr12SocketAddrV46set_ip17hab7378eccd7f6ed3E
0000000000438320 g     F .text	00000000000000aa              _ZN3std3net6parser82_$LT$impl$u20$core..str..traits..FromStr$u20$for$u20$std..net..ip_addr..IpAddr$GT$8from_str17h43699ae95678445cE
00000000004071a0 g     F .text	0000000000000171              _ZN3std3sys4unix5locks12futex_rwlock6RwLock14read_contended17h89d036ae87e53c3cE
00000000004e4b80 g     F .text	000000000000003b              __gnat_is_symbolic_link
00000000004622e0 g     F .text	0000000000000006              _ZN78_$LT$object..macho..FatArch32$u20$as$u20$object..read..macho..fat..FatArch$GT$6offset17h4c90a9ecb1e976b7E
0000000000515690 g     O .rodata	000000000000001c              ada__exceptions__rmsg_09
000000000049ffa0 g     F .text	0000000000000004              _ZN50_$LT$i16$u20$as$u20$core..fmt..num..DisplayInt$GT$6to_u1617h0cf9ec9ffbfc02dfE
00000000004e28f0 g     F .text	000000000000005c              system__mmap__open_read_no_exception
00000000004c8ba0 g     F .text	00000000000000ad              ada__strings__utf_encoding__raise_encoding_error
00000000004d8790 g     F .text	00000000000000f7              system__put_images__put_image_wide_string
0000000000432850 g     F .text	0000000000000010              _ZN57_$LT$std..io..stdio..Stdout$u20$as$u20$std..io..Write$GT$9write_all17hb9f6c3954f508481E
00000000004cbd00 g     F .text	0000000000000049              ada__text_io__getc
00000000004aa200 g     F .text	0000000000000077              _ZN79_$LT$core..time..Duration$u20$as$u20$core..ops..arith..MulAssign$LT$u32$GT$$GT$10mul_assign17h96c1dbf3748cf03dE
0000000000449c00 g     F .text	0000000000000058              _ZN3std3sys4unix2fd8FileDesc4read17h124d8e45fcb2877cE
00000000004b4660 g     F .text	0000000000000027              _ZN4core3fmt3num3imp53_$LT$impl$u20$core..fmt..UpperExp$u20$for$u20$i16$GT$3fmt17hd38644ad89619204E
000000000043b200 g     F .text	0000000000000010              _ZN68_$LT$std..fs..FileType$u20$as$u20$std..os..unix..fs..FileTypeExt$GT$14is_char_device17h664a6ef7151adb8cE
00000000004b15e0 g     F .text	0000000000000004              _ZN49_$LT$i8$u20$as$u20$core..fmt..num..DisplayInt$GT$6to_u1617h6e09cacd98945852E
000000000049db90 g     F .text	0000000000000024              _ZN4core3num84_$LT$impl$u20$core..error..Error$u20$for$u20$core..num..dec2flt..ParseFloatError$GT$11description17h071be1d03e69f647E
0000000000800a5a g     O .data	0000000000000002              system__traceback__symbolic_E
0000000000000000       F *UND*	0000000000000000              getuid@GLIBC_2.2.5
00000000004de120 g     F .text	000000000000004b              system__object_reader__read_raw
00000000004d9490 g     F .text	0000000000000006              system__soft_links__set_sec_stack_soft
00000000004aa100 g     F .text	0000000000000074              _ZN73_$LT$core..time..Duration$u20$as$u20$core..ops..arith..Mul$LT$u32$GT$$GT$3mul17h1d8d869f62921b11E
00000000004edae4 g     O .rodata	0000000000000004              system__traceback_entriesS
00000000004452b0 g     F .text	000000000000015f              _ZN3std10sys_common6thread9min_stack17hf4308f77b14e80c5E
0000000000000000       F *UND*	0000000000000000              mmap@GLIBC_2.2.5
000000000047ae40 g     F .text	0000000000000015              _ZN56_$LT$gimli..arch..X86_64$u20$as$u20$core..fmt..Debug$GT$3fmt17hf65b8125340025daE
0000000000493de0 g     F .text	0000000000000042              _ZN86_$LT$libc..unix..linux_like..linux..signalfd_siginfo$u20$as$u20$core..clone..Clone$GT$5clone17hba69321e299b4c47E
00000000004edab8 g     O .rodata	0000000000000004              system__exceptionsS
0000000000441510 g     F .text	0000000000000161              _ZN3std4path4Path5_join17had22e6c61baf766dE
00000000004558f0 g     F .text	00000000000000e3              _ZN3std10sys_common3net9UdpSocket7connect17h4eb2b1995e5d6fdfE
0000000000499750 g     F .text	0000000000000006              _ZN59_$LT$f64$u20$as$u20$core..num..dec2flt..float..RawFloat$GT$13from_u64_bits17h9220a72c574e8f4eE
0000000000431690 g     F .text	000000000000002c              _ZN58_$LT$std..io..stdio..Stdin$u20$as$u20$core..fmt..Debug$GT$3fmt17hd35cb98601936a1eE
00000000004dd400 g     F .text	0000000000000001              system__object_reader__pecoff_ops__auxent_sectionIPXn
0000000000469030 g     F .text	0000000000000124              _ZN73_$LT$object..pe..ImageArchiveMemberHeader$u20$as$u20$core..fmt..Debug$GT$3fmt17hf836414de6d01b00E
00000000004825b0 g     F .text	00000000000005bd              _ZN55_$LT$gimli..read..Error$u20$as$u20$core..fmt..Debug$GT$3fmt17h10af4b4836529bb9E
000000000046f5b0 g     F .text	0000000000000801              _ZN86_$LT$memchr..memmem..FindRevIter$u20$as$u20$core..iter..traits..iterator..Iterator$GT$4next17hd41e8c71b078f2a8E
00000000004edaa8 g     O .rodata	0000000000000004              ada__exceptionsB
0000000000515650 g     O .rodata	0000000000000014              ada__exceptions__rmsg_07
000000000048efe0 g     F .text	000000000000004b              _ZN11miniz_oxide7inflate4core12HuffmanTable3new17h1a242e1209ed11d7E
0000000000454300 g     F .text	0000000000000003              _ZN82_$LT$std..process..ExitStatus$u20$as$u20$std..os..unix..process..ExitStatusExt$GT$8from_raw17h2833b1e550fba4a6E
00000000004a17b0 g     F .text	000000000000014b              _ZN4core3fmt8builders10DebugTuple5field17h15c936e7a108e468E
00000000004de830 g     F .text	000000000000010f              system__object_reader__trim_trailing_nuls
00000000004714e0 g     F .text	0000000000000029              _ZN58_$LT$memchr..cow..CowBytes$u20$as$u20$core..fmt..Debug$GT$3fmt17h0605e8aad2731df7E
00000000004d9f30 g     F .text	0000000000000140              system__traceback__symbolic__init_exec_module
00000000004940c0 g     F .text	000000000000001a              _ZN80_$LT$libc..unix..linux_like..linux..Elf32_Shdr$u20$as$u20$core..clone..Clone$GT$5clone17h720a9793d7a78fd2E
00000000004640d0 g     F .text	000000000000007f              _ZN65_$LT$object..common..BinaryFormat$u20$as$u20$core..fmt..Debug$GT$3fmt17h00d3c181eb8da708E
00000000004a7980 g     F .text	0000000000000216              _ZN4core3str8converts13from_utf8_mut17haf22ce4548d4a271E
0000000000000000       F *UND*	0000000000000000              accept4@GLIBC_2.10
00000000004ab740 g     F .text	00000000000000f0              _ZN4core3num6bignum8Big32x403add17h485250cdbd8c83faE
000000000043b980 g     F .text	0000000000000004              _ZN3std2os4unix3net9ancillary10SocketCred7set_uid17h69f096b34b4be247E
0000000000493960 g     F .text	0000000000000004              _ZN78_$LT$libc..unix..linux_like..linux..input_id$u20$as$u20$core..clone..Clone$GT$5clone17hafd649040af522b8E
00000000004c5e28 g     F .text	000000000000001e              __gnat_raise_storage_error
0000000000515620 g     O .rodata	0000000000000013              ada__exceptions__rmsg_05
00000000004b16b0 g     F .text	0000000000000004              _ZN50_$LT$u32$u20$as$u20$core..fmt..num..DisplayInt$GT$6to_u1617h7ca1bc26b43b418eE
0000000000516450 g     O .rodata	0000000000000010              ada__strings__trim_endS
00000000008040b8 g     O .bss	0000000000000008              __gnat_default_ss_pool
0000000000465430 g     F .text	00000000000000be              _ZN75_$LT$object..read..pe..rich..RichHeaderInfo$u20$as$u20$core..fmt..Debug$GT$3fmt17h849129392e94705eE
0000000000465fe0 g     F .text	000000000000010f              _ZN55_$LT$object..elf..Ident$u20$as$u20$core..fmt..Debug$GT$3fmt17h61a84ce7d26550f6E
0000000000477940 g     F .text	000000000000001c              _ZN5gimli4read41_$LT$impl$u20$gimli..common..Register$GT$8from_u6417h41010834c97b1b86E
00000000004af280 g     F .text	000000000000000e              _ZN4core3num22_$LT$impl$u20$i128$GT$14from_str_radix17h1cb006d490319d20E
000000000051558e g     O .rodata	0000000000000001              __gnat_unhandled_others_value
00000000004ccaa0 g     F .text	0000000000000015              ada__text_io__page_length__2
00000000004ed3f0 g     F .text	000000000000011a              .hidden __deregister_frame_info_bases
00000000004edbbc g     O .rodata	0000000000000004              system__exception_tracesB
0000000000515600 g     O .rodata	0000000000000010              ada__exceptions__rmsg_03
0000000000516b98 g     O .rodata	0000000000000008              ada__tags__dt_predef_prims_offset
0000000000000000       F *UND*	0000000000000000              dup2@GLIBC_2.2.5
0000000000438d60 g     F .text	0000000000000006              _ZN72_$LT$std..net..socket_addr..SocketAddrV4$u20$as$u20$core..fmt..Debug$GT$3fmt17he1cc3a6771aeaedcE
00000000004edba4 g     O .rodata	0000000000000004              system__object_readerB
00000000004a1df0 g     F .text	000000000000007e              _ZN4core3fmt8builders8DebugMap6finish17hfb84a5667c46ab73E
0000000000452d80 g     F .text	00000000000000c5              _ZN3std3sys4unix5locks13futex_condvar7Condvar4wait17h2e671c119372ad1bE
0000000000463470 g     F .text	0000000000000007              _ZN6object4read2pe10relocation23RelocationBlockIterator3new17haab457784f28d4a2E
0000000000462300 g     F .text	0000000000000006              _ZN78_$LT$object..macho..FatArch32$u20$as$u20$object..read..macho..fat..FatArch$GT$5align17h25b19243dd6f7fb9E
00000000004c94f0 g     F .text	00000000000000dc              ada__tags__displace
00000000004eb7d0 g     F .text	000000000000011a              .hidden _Unwind_Resume_or_Rethrow
0000000000000000       F *UND*	0000000000000000              send@GLIBC_2.2.5
00000000004434e0 g     F .text	000000000000001d              _ZN3std4sync7condvar7Condvar10notify_all17hdc13cccf52484e7eE
00000000004c57a6 g     F .text	000000000000000e              ada__exceptions__eo_to_string
0000000000443ae0 g     F .text	000000000000007e              _ZN3std4time10SystemTime7elapsed17h85e75242e4473e02E
00000000004434b0 g     F .text	0000000000000004              _ZN3std4sync7barrier17BarrierWaitResult9is_leader17h3e239b6756acb2caE
000000000044e740 g     F .text	000000000000028d              _ZN3std3sys4unix7process14process_common7Command3new17h76313db6ad4e36e4E
0000000000477580 g     F .text	0000000000000135              _ZN5gimli4read5value5Value2le17h1d65c6cba0b6e250E
00000000004e5610 g     F .text	0000000000000005              __gnat_ftell64
000000000042cd90 g     F .text	000000000000019c              _ZN3std2fs14read_to_string5inner17h8dcbff209574818aE
0000000000488750 g     F .text	0000000000000c20              _ZN14rustc_demangle8demangle17h3349c02bd3342de5E
00000000004ed9d0 g     F .text	0000000000000013              .hidden fstat64
0000000000517600 g     O .rodata	0000000000000008              system__file_control_block__file_modeN
00000000004db3f0 g     F .text	000000000000006b              system__wch_jis__jis_to_euc
00000000004e5030 g     F .text	0000000000000004              __gnat_to_canonical_path_spec
0000000000517100 g     O .rodata	0000000000000016              ada__text_io__text_afcbE133s
0000000000454300 g     F .text	0000000000000003              _ZN101_$LT$std..sys..unix..process..process_inner..ExitStatus$u20$as$u20$core..convert..From$LT$i32$GT$$GT$4from17h8a7b10e227f369eeE
00000000004edad4 g     O .rodata	0000000000000004              system__storage_elementsS
0000000000437080 g     F .text	0000000000000006              _ZN64_$LT$std..net..ip_addr..Ipv6Addr$u20$as$u20$core..fmt..Debug$GT$3fmt17hc4d6d3458964f4acE
0000000000496b10 g     F .text	000000000000006f              _ZN5alloc2rc29rcbox_layout_for_value_layout17h0f199ebf27c8bbeaE
00000000004c4450 g     F .text	0000000000000005              __rust_alloc
000000000047e9c0 g     F .text	0000000000000107              _ZN65_$LT$gimli..constants..DwAccess$u20$as$u20$core..fmt..Display$GT$3fmt17h2b9b1f7ce4b769d3E
00000000004c4130 g     F .text	0000000000000006              _ZN4core9core_simd5masks72_$LT$impl$u20$core..core_simd..masks..sealed..Sealed$u20$for$u20$i32$GT$2eq17h6e381ea1ee33b031E
0000000000477df0 g     F .text	000000000000054a              _ZN5gimli4arch3Arm13register_name17h00f883f99975554aE
00000000005155c0 g     O .rodata	0000000000000019              ada__exceptions__rmsg_01
00000000004afa00 g     F .text	0000000000000019              _ZN64_$LT$core..marker..PhantomPinned$u20$as$u20$core..fmt..Debug$GT$3fmt17hd6dea84d79d19409E
00000000005170a0 g     O .rodata	0000000000000060              ada__text_io__text_afcbB137s
0000000000494860 g     F .text	000000000000003a              _ZN88_$LT$libc..unix..linux_like..linux..gnu..b64..semid_ds$u20$as$u20$core..clone..Clone$GT$5clone17hb433e1c521239ad4E
00000000004b81e0 g     F .text	0000000000000019              _ZN65_$LT$core..hash..sip..Sip24Rounds$u20$as$u20$core..fmt..Debug$GT$3fmt17h9653b2bb76527529E
00000000004984f0 g     F .text	000000000000008d              _ZN76_$LT$alloc..collections..TryReserveErrorKind$u20$as$u20$core..fmt..Debug$GT$3fmt17h22486fa95244abf0E
00000000004da790 g     F .text	000000000000001d              system__traceback__symbolic__symbolic_traceback_no_hex__2
00000000004c9ff0 g     F .text	0000000000000029              ada__tags__set_dynamic_offset_to_top
000000000044a780 g     F .text	0000000000000004              _ZN3std10sys_common3net9TcpStream6socket17h942033d01d34c042E
00000000004e3dd0 g     F .text	000000000000000e              __gnat_readlink
00000000004499e0 g     F .text	000000000000007b              _ZN70_$LT$std..sync..mpmc..select..Selected$u20$as$u20$core..fmt..Debug$GT$3fmt17h575dfb039f7b7105E
0000000000426d10 g     F .text	0000000000000720              _ZN3std2rt19lang_start_internal17h79190e3a877a769dE
00000000004ce4c0 g     F .text	00000000000000c7              interfaces__c__to_ada__9
00000000004383d0 g     F .text	0000000000000077              _ZN3std3net6parser45_$LT$impl$u20$std..net..ip_addr..Ipv4Addr$GT$11parse_ascii17hd017c78f67cc00d0E
00000000004b0480 g     F .text	0000000000000195              _ZN64_$LT$core..char..CaseMappingIter$u20$as$u20$core..fmt..Debug$GT$3fmt17h3358f983f18972d1E
0000000000462340 g     F .text	0000000000000008              _ZN78_$LT$object..macho..FatArch64$u20$as$u20$object..read..macho..fat..FatArch$GT$4size17h1cb8857ab02f6d78E
00000000004d8c50 g     F .text	0000000000000020              system__secondary_stack__ss_stackIP
0000000000000000       F *UND*	0000000000000000              rewind@GLIBC_2.2.5
000000000044c9e0 g     F .text	000000000000001d              _ZN83_$LT$std..net..tcp..TcpStream$u20$as$u20$std..sys..unix..kernel_copy..CopyWrite$GT$10properties17h154341fa0f69518eE
0000000000445270 g     F .text	0000000000000017              _ZN96_$LT$std..sys_common..process..CommandEnvs$u20$as$u20$core..iter..traits..iterator..Iterator$GT$9size_hint17h379df520204afa8dE
000000000043b4e0 g     F .text	0000000000000067              _ZN101_$LT$std..os..unix..net..addr..SocketAddr$u20$as$u20$std..os..net..linux_ext..addr..SocketAddrExt$GT$16as_abstract_name17h77035793d85589dcE
00000000004d3f00 g     F .text	000000000000005c              system__os_lib__locate_regular_file__2
00000000004a9fa0 g     F .text	00000000000000a6              _ZN62_$LT$core..time..Duration$u20$as$u20$core..ops..arith..Sub$GT$3sub17h395ce2263d5d3749E
0000000000000000       F *UND*	0000000000000000              _IO_putc@GLIBC_2.2.5
000000000044e000 g     F .text	0000000000000030              _ZN3std3sys4unix6os_str5Slice6to_str17ha7f864b79a2e419aE
0000000000442550 g     F .text	0000000000000003              _ZN3std2io4util6repeat17hfc1552429940e8e7E
0000000000499f20 g     F .text	0000000000000009              _ZN67_$LT$f32$u20$as$u20$core..num..flt2dec..decoder..DecodableFloat$GT$18min_pos_norm_value17h30a411d8e15f590aE
00000000004edb5c g     O .rodata	0000000000000004              system__ioS
00000000004bb8f0 g     F .text	00000000000000bd              _ZN65_$LT$core..core_arch..simd..u64x1$u20$as$u20$core..fmt..Debug$GT$3fmt17hfb752480e6676fe0E
0000000000494910 g     F .text	0000000000000012              _ZN93_$LT$libc..unix..linux_like..linux..gnu..b64..x86_64..flock$u20$as$u20$core..clone..Clone$GT$5clone17hc8423368a16e434fE
00000000004ab5f0 g     F .text	000000000000002d              _ZN4core3num6bignum8Big32x406digits17h628e38c6d8a177a9E
0000000000443a80 g     F .text	000000000000005d              _ZN3std4time10SystemTime14duration_since17he75b373e9ed14425E
00000000004b87a0 g     F .text	00000000000000af              _ZN69_$LT$core..str..iter..SplitWhitespace$u20$as$u20$core..fmt..Debug$GT$3fmt17h8fa01d11538a7bafE
0000000000455730 g     F .text	0000000000000100              _ZN3std10sys_common3net9UdpSocket4bind17hf6dbdee53cf7b1b7E
00000000004e2f20 g     F .text	0000000000000005              system__mmap__data
000000000043f3f0 g     F .text	00000000000003f5              _ZN80_$LT$std..path..Components$u20$as$u20$core..iter..traits..iterator..Iterator$GT$4next17h07a7aeb014eeb67fE
00000000004cf3b0 g     F .text	0000000000000005              interfaces__c_streams__setvbuf
00000000004ce3b0 g     F .text	0000000000000003              interfaces__c__to_ada__7
0000000000475450 g     F .text	0000000000000004              _ZN5gimli4read5value5Value10value_type17hef8e9ccbbabc8600E
00000000004cc130 g     F .text	000000000000000e              ada__text_io__line_length
00000000004e4710 g     F .text	0000000000000023              __gnat_file_exists
00000000004cf5a4 g     F .text	000000000000000c              __gnat_unhandled_exception
000000000043de70 g     F .text	00000000000000bd              _ZN3std2os4unix3net8datagram12UnixDatagram28send_vectored_with_ancillary17h80dda986c644efc1E
000000000044b1a0 g     F .text	000000000000008b              _ZN3std3sys4unix2fs8readlink17h835cd1871c8b927fE
00000000004af3c0 g     F .text	0000000000000013              _ZN4core3num61_$LT$impl$u20$core..str..traits..FromStr$u20$for$u20$i128$GT$8from_str17hf9f3f02e8ac55150E
00000000004edb08 g     O .rodata	0000000000000004              system__parametersB
00000000004ce1f0 g     F .text	00000000000000f8              interfaces__c__to_ada__5
000000000044b640 g     F .text	0000000000000166              _ZN3std3sys4unix2fs4stat17h985d2c8b5ec735ddE
0000000000000000       F *UND*	0000000000000000              pthread_setspecific@GLIBC_2.2.5
00000000004cd370 g     F .text	0000000000000034              ada__text_io__set_page_length__2
000000000043b160 g     F .text	0000000000000005              _ZN68_$LT$std..fs..Metadata$u20$as$u20$std..os..unix..fs..MetadataExt$GT$4size17h83d1833f356c0a3eE
00000000004e3fc0 g     F .text	000000000000000e              __gnat_get_executable_suffix_ptr
0000000000475310 g     F .text	000000000000002a              _ZN5gimli4read4line7LineRow18apply_line_advance17h04f4b1f408f80981E
00000000004b24e0 g     F .text	00000000000000f0              _ZN4core3fmt3num51_$LT$impl$u20$core..fmt..Octal$u20$for$u20$u128$GT$3fmt17h80e0030683a4cbb6E
00000000004e30a0 g     F .text	000000000000003c              system__mmap__os_interface__open_write
00000000004cdaa0 g     F .text	000000000000005a              ada__text_io__terminate_line
000000000043b060 g     F .text	000000000000005b              _ZN60_$LT$std..fs..File$u20$as$u20$std..os..unix..fs..FileExt$GT$8write_at17h44521c077bb848dfE
00000000004ce120 g     F .text	00000000000000bf              interfaces__c__to_ada__3
00000000004c4b56 g     F .text	0000000000000009              ada__exceptions__exception_data__exception_name_length__2Xn
00000000004edba0 g     O .rodata	0000000000000004              system__stringsS
000000000051a0a2 g     O .rodata	0000000000000001              ada__characters__handling__letter
0000000000515d80 g     O .rodata	0000000000000058              ada__finalization__controlledR38s___UNC
000000000042e600 g     F .text	0000000000000010              _ZN3std2fs8FileType10is_symlink17hece442aa4442fa14E
0000000000481660 g     F .text	00000000000001b1              _ZN63_$LT$gimli..constants..DwEhPe$u20$as$u20$core..fmt..Display$GT$3fmt17h16e35920d37c4091E
00000000004af2c0 g     F .text	000000000000000e              _ZN4core3num21_$LT$impl$u20$u64$GT$14from_str_radix17h9edc1a273c5a9277E
00000000004313e0 g     F .text	0000000000000031              _ZN60_$LT$std..io..stdio..StderrRaw$u20$as$u20$std..io..Write$GT$9write_fmt17h462789ca2cfd25c2E
0000000000000000       F *UND*	0000000000000000              symlink@GLIBC_2.2.5
0000000000496730 g     F .text	0000000000000005              _ZN5alloc3ffi5c_str15IntoStringError8__source17h1dddec301775414aE
0000000000442420 g     F .text	000000000000003e              _ZN3std7process15ExitStatusError4code17h7dacfab35af0b2f8E
0000000000516fb0 g     O .rodata	0000000000000008              ada__text_io__err_name
00000000004edc24 g     O .rodata	0000000000000004              ada__text_ioB
00000000004631e0 g     F .text	0000000000000079              _ZN6object4read2pe6import11ImportTable4name17h9315f44351ea6fc0E
00000000004c8190 g     F .text	0000000000000038              ada__strings__maps__Oxor
00000000004945c0 g     F .text	0000000000000014              _ZN80_$LT$libc..unix..linux_like..linux..gnu..timex$u20$as$u20$core..clone..Clone$GT$5clone17he75b0ef708500324E
00000000004e0620 g     F .text	0000000000000046              system__dwarf_lines__read_initial_length
00000000004dd4c0 g     F .text	0000000000000001              system__object_reader__elf64_ops__headerIPXn
0000000000432320 g     F .text	0000000000000197              _ZN59_$LT$std..io..stdio..StdinLock$u20$as$u20$std..io..Read$GT$10read_exact17hb0423255deab4d71E
000000000043a5a0 g     F .text	0000000000000006              _ZN61_$LT$std..net..tcp..TcpStream$u20$as$u20$core..fmt..Debug$GT$3fmt17h04876fe1a6383238E
00000000004edbc0 g     O .rodata	0000000000000004              system__exception_tracesS
000000000043b0e0 g     F .text	0000000000000006              _ZN74_$LT$std..fs..OpenOptions$u20$as$u20$std..os..unix..fs..OpenOptionsExt$GT$12custom_flags17hd8094cf781225325E
0000000000461960 g     F .text	000000000000005c              _ZN65_$LT$object..read..util..DebugLen$u20$as$u20$core..fmt..Debug$GT$3fmt17h5ef462e5b99af657E
000000000043cfa0 g     F .text	000000000000000e              _ZN97_$LT$std..os..unix..net..listener..Incoming$u20$as$u20$core..iter..traits..iterator..Iterator$GT$9size_hint17h90201e8f555e113bE
000000000043aea0 g     F .text	0000000000000058              _ZN3std3net3udp9UdpSocket18leave_multicast_v417hee22d335a11d2d7dE
0000000000515c40 g     O .rodata	0000000000000058              ada__finalization__limited_controlledR72s___UNC
00000000004df730 g     F .text	000000000000001c              system__object_reader___elabs
00000000004a0700 g     F .text	000000000000004f              _ZN86_$LT$core..char..CaseMappingIter$u20$as$u20$core..iter..traits..iterator..Iterator$GT$4next17h2aba4006ecc7531dE
00000000004c88a0 g     F .text	000000000000004e              ada__strings__text_buffers__Troot_buffer_typeCFD
0000000000800b59 g     O .data	0000000000000001              __gnat_dir_separator
00000000004988c0 g     F .text	000000000000002d              _ZN4core3f3221_$LT$impl$u20$f32$GT$9next_down17h0bc7c2fda2243e84E
00000000004eda74 g     O .rodata	0000000000000004              system__standard_libraryB
000000000049d2d0 g     F .text	0000000000000066              _ZN4core3num7flt2dec8strategy5grisu12format_exact17h7e3bb4e9382ebcbcE
00000000004b1fe0 g     F .text	0000000000000083              _ZN4core3fmt3num50_$LT$impl$u20$core..fmt..Octal$u20$for$u20$i32$GT$3fmt17h0acfbbe2b959c568E
0000000000427880 g     F .text	0000000000000013              _ZN3std6thread7Builder3new17hde965ecb494600e5E
00000000004e4160 g     F .text	0000000000000024              __gnat_open_append
00000000004e32f0 g     F .text	0000000000000010              system__mmap__os_interface__get_page_size
000000000049fc00 g     F .text	000000000000004c              _ZN54_$LT$core..any..Demand$u20$as$u20$core..fmt..Debug$GT$3fmt17h948a5d6741d61f85E
0000000000800a30 g     O .data	0000000000000002              system__standard_library_E
0000000000436ac0 g     F .text	000000000000048e              _ZN66_$LT$std..net..ip_addr..Ipv6Addr$u20$as$u20$core..fmt..Display$GT$3fmt17haf5fe5ca14d8b01dE
00000000004d35b0 g     F .text	0000000000000018              system__os_lib__gm_month
00000000004a00a0 g     F .text	0000000000000012              _ZN84_$LT$core..char..EscapeUnicode$u20$as$u20$core..iter..traits..iterator..Iterator$GT$4last17ha21f3d62926ae196E
00000000004ab080 g     F .text	000000000000010f              _ZN4core7unicode9printable12is_printable17h67f2d302c132587bE
000000000043a090 g     F .text	00000000000000f7              _ZN3std3net3udp9UdpSocket13write_timeout17he415529dc948f0c3E
00000000004aca50 g     F .text	000000000000006d              _ZN69_$LT$core..num..bignum..Big32x40$u20$as$u20$core..cmp..PartialOrd$GT$11partial_cmp17h7e097d7c98f79a3eE
00000000004485d0 g     F .text	000000000000006e              _ZN56_$LT$std..fs..DirBuilder$u20$as$u20$core..fmt..Debug$GT$3fmt17h1b1a4f9630b66da6E
000000000043ea00 g     F .text	000000000000005a              _ZN58_$LT$std..path..Components$u20$as$u20$core..fmt..Debug$GT$3fmt17h7e7d3674b24df50bE
00000000004cf3a0 g     F .text	0000000000000005              interfaces__c_streams__fwrite
0000000000000000       F *UND*	0000000000000000              nanosleep@GLIBC_2.2.5
0000000000446fc0 g     F .text	0000000000000074              rust_begin_unwind
0000000000438830 g     F .text	0000000000000034              _ZN3std3net11socket_addr10SocketAddr3new17h395382a4f26a687fE
0000000000000000       F *UND*	0000000000000000              gai_strerror@GLIBC_2.2.5
00000000004b1710 g     F .text	0000000000000004              _ZN50_$LT$u64$u20$as$u20$core..fmt..num..DisplayInt$GT$5to_u817h5d1f5c196c3162e4E
0000000000462a80 g     F .text	0000000000000044              _ZN6object4read2pe6export11ExportTable17target_by_ordinal17h25febd2839050e0cE
0000000000492a80 g     F .text	0000000000000007              _ZN11miniz_oxide159_$LT$impl$u20$core..convert..From$LT$$RF$miniz_oxide..StreamResult$GT$$u20$for$u20$core..result..Result$LT$miniz_oxide..MZStatus$C$miniz_oxide..MZError$GT$$GT$4from17h909f69e216f92dbbE
000000000042aff0 g     F .text	000000000000002a              _ZN3std3env4vars17ha6992c69ccaef890E
00000000008039e0 g     O .bss	0000000000000020              ada__strings__maps__constants__decimal_digit_set
00000000004e2f70 g     F .text	00000000000000cc              system__mmap__read_whole_file
00000000004e4ff0 g     F .text	0000000000000006              __gnat_to_canonical_file_list_next
000000000046d420 g     F .text	00000000000001c4              _ZN6memchr6memchr8fallback8memrchr317h7007d735d9e12862E
000000000043dc00 g     F .text	0000000000000060              _ZN3std3net3tcp11TcpListener10take_error17h76f9268682ad0213E
00000000004cc870 g     F .text	0000000000000029              ada__text_io__get_line__3
00000000004c5996 g     F .text	00000000000000b1              ada__exceptions__image
0000000000449610 g     F .text	0000000000000029              _ZN59_$LT$std..process..ExitCode$u20$as$u20$core..fmt..Debug$GT$3fmt17h4aa0e1a08b283532E
00000000004c5ada g     F .text	0000000000000034              __gnat_raise_exception
00000000004a5900 g     F .text	000000000000003c              _ZN4core3fmt9Formatter11debug_tuple17h939a637045979701E
0000000000466230 g     F .text	00000000000000e4              _ZN61_$LT$object..macho..FatArch64$u20$as$u20$core..fmt..Debug$GT$3fmt17h595bed65c1565acfE
000000000049fa00 g     F .text	000000000000000d              _ZN76_$LT$core..char..convert..CharTryFromError$u20$as$u20$core..error..Error$GT$11description17h015e80b5436a1172E
00000000004a1aa0 g     F .text	000000000000000e              _ZN4core3fmt8builders8DebugSet5entry17h474ea4930434f5c3E
000000000049fc70 g     F .text	0000000000000095              _ZN4core5ascii14escape_default17h373333231e7c6366E
00000000004e4060 g     F .text	0000000000000005              __gnat_fopen
0000000000438b60 g     F .text	0000000000000018              _ZN116_$LT$std..net..socket_addr..SocketAddr$u20$as$u20$core..convert..From$LT$std..net..socket_addr..SocketAddrV6$GT$$GT$4from17h7f01462ad58f9171E
0000000000496590 g     F .text	0000000000000032              _ZN5alloc3ffi5c_str100_$LT$impl$u20$core..default..Default$u20$for$u20$alloc..boxed..Box$LT$core..ffi..c_str..CStr$GT$$GT$7default17h89818a287c8ef19aE
000000000043dc90 g     F .text	000000000000004c              _ZN3std2os4unix3net6stream10UnixStream4peek17hc952aa762ce4b872E
0000000000494040 g     F .text	000000000000000a              _ZN79_$LT$libc..unix..linux_like..linux..Elf32_Sym$u20$as$u20$core..clone..Clone$GT$5clone17h067e447a567e7a06E
0000000000492fa0 g     F .text	00000000000000d0              _ZN70_$LT$miniz_oxide..inflate..TINFLStatus$u20$as$u20$core..fmt..Debug$GT$3fmt17h02339f5c4c7d2c0bE
000000000044a310 g     F .text	0000000000000111              _ZN86_$LT$std..sys..unix..fs..ReadDir$u20$as$u20$core..iter..traits..iterator..Iterator$GT$4next17h56cf710645d2c8eeE
00000000004cda80 g     F .text	0000000000000008              ada__text_io__standard_output
000000000044a780 g     F .text	0000000000000004              _ZN105_$LT$std..sys..unix..fs..File$u20$as$u20$std..sys_common..AsInner$LT$std..sys..unix..fd..FileDesc$GT$$GT$8as_inner17hbb5c78cb218b7439E
000000000043efa0 g     F .text	0000000000000011              _ZN3std4path10Components8has_root17h8ed0e7dbe7126f7cE
00000000004ed9b0 g     F .text	0000000000000014              .hidden stat64
00000000004a41f0 g     F .text	000000000000020b              _ZN4core3fmt5write17hc553f17407eb0b48E
0000000000494a60 g     F .text	0000000000000014              _ZN101_$LT$libc..unix..linux_like..linux..gnu..b64..x86_64.._libc_fpstate$u20$as$u20$core..clone..Clone$GT$5clone17hef132b4979196bb9E
000000000051a0a3 g     O .rodata	0000000000000001              ada__characters__handling__line_term
00000000004389a0 g     F .text	000000000000000a              _ZN3std3net11socket_addr12SocketAddrV43new17h5665de2e61a3afd7E
000000000043a9a0 g     F .text	0000000000000016              _ZN3std3net3udp9UdpSocket9peek_from17h6319ce11b1174ac6E
00000000004e5010 g     F .text	0000000000000004              __gnat_to_canonical_dir_spec
000000000047b8d0 g     F .text	0000000000000025              _ZN5gimli9constants8DwSectV213static_string17hed16d4d46b9b07dbE
000000000044a130 g     F .text	0000000000000043              _ZN3std3sys4unix2fd8FileDesc11get_cloexec17hca35787df8142aafE
0000000000000000       F *UND*	0000000000000000              dup@GLIBC_2.2.5
0000000000427ef0 g     F .text	000000000000000f              _ZN3std6thread6Thread4name17h8b47b466f6e995aeE
0000000000432860 g     F .text	0000000000000010              _ZN57_$LT$std..io..stdio..Stdout$u20$as$u20$std..io..Write$GT$18write_all_vectored17h5c5d9f27922a3923E
00000000004dd2b0 g     F .text	000000000000005f              system__object_reader__elf64_ops__read_headerXn
00000000008005e8 g     O .data	0000000000000002              ada__strings_E
00000000004aeac0 g     F .text	00000000000000af              _ZN68_$LT$core..num..error..ParseIntError$u20$as$u20$core..fmt..Debug$GT$3fmt17h2750dd62e190d6cbE
0000000000518fe0 g     O .rodata	0000000000000020              system__object_reader__null_symbol
00000000004de0c0 g     F .text	000000000000002d              system__object_reader__name__2
00000000004542b0 g     F .text	0000000000000046              _ZN87_$LT$std..sys..unix..process..process_inner..ExitStatus$u20$as$u20$core..fmt..Debug$GT$3fmt17h4efc01e69f3b1e41E
000000000048ecb0 g     F .text	0000000000000011              _ZN11miniz_oxide7deflate15compress_to_vec17h281debb7dbce4395E
00000000004acac0 g     F .text	000000000000006d              _ZN62_$LT$core..num..bignum..Big32x40$u20$as$u20$core..cmp..Ord$GT$3cmp17hc1ad51b0acc7bf7eE
0000000000000000       F *UND*	0000000000000000              dladdr@GLIBC_2.2.5
00000000004d8f60 g     F .text	0000000000000008              system__secondary_stack__size_up_to_and_including
00000000004616b0 g     F .text	0000000000000010              _ZN6object6common12Architecture12address_size17he91b4a8c192ca295E
000000000043e440 g     F .text	0000000000000014              _ZN76_$LT$std..process..Command$u20$as$u20$std..os..unix..process..CommandExt$GT$13process_group17h7b081b36cc667205E
000000000049ff20 g     F .text	0000000000000024              _ZN4core4char7convert14ParseCharError13__description17hc13fc32579049badE
00000000004e87d0 g     F .text	0000000000000006              system__io__standard_error
0000000000480940 g     F .text	0000000000000b11              _ZN5gimli9constants4DwOp13static_string17h8fc9ddb401855a42E
00000000005174e8 g     O .rodata	0000000000000008              system__file_control_block__afcbR71s
00000000004341e0 g     F .text	0000000000000156              _ZN61_$LT$$RF$std..io..stdio..Stderr$u20$as$u20$std..io..Write$GT$18write_all_vectored17h29cca9cd9bddc061E
0000000000439ae0 g     F .text	0000000000000495              _ZN3std3net3tcp9TcpStream15connect_timeout17hfb51f1b5d696f873E
0000000000439750 g     F .text	0000000000000232              _ZN78_$LT$$LP$$RF$str$C$u16$RP$$u20$as$u20$std..net..socket_addr..ToSocketAddrs$GT$15to_socket_addrs17h549fe5533cc94651E
0000000000000000       F *UND*	0000000000000000              fputwc@GLIBC_2.2.5
00000000004af250 g     F .text	0000000000000005              _ZN4core3num21_$LT$impl$u20$i16$GT$14from_str_radix17h331a982cfaa333b5E
00000000004423a0 g     F .text	0000000000000005              _ZN120_$LT$std..process..Stdio$u20$as$u20$std..sys_common..FromInner$LT$std..sys..unix..process..process_common..Stdio$GT$$GT$10from_inner17h48c5c4d6b088b543E
00000000004b1bd0 g     F .text	000000000000008d              _ZN4core3fmt3num52_$LT$impl$u20$core..fmt..LowerHex$u20$for$u20$u8$GT$3fmt17h1850b577d24cfa90E
0000000000443be0 g     F .text	0000000000000076              _ZN3std4time10SystemTime11checked_sub17h362357ffe1c188f3E
0000000000800bb8 g     O .data	0000000000000002              system__bounded_strings_E
00000000004b12a0 g     F .text	0000000000000012              _ZN68_$LT$core..sync..atomic..AtomicUsize$u20$as$u20$core..fmt..Debug$GT$3fmt17h75b3af7b3442110dE
0000000000517028 g     O .rodata	0000000000000008              ada__text_io__text_afcbR135s
000000000047fb50 g     F .text	0000000000000029              _ZN60_$LT$gimli..constants..DwDsc$u20$as$u20$core..fmt..Debug$GT$3fmt17h6536ffb746538191E
00000000004dfa20 g     F .text	000000000000012e              system__dwarf_lines__sort_search_array
0000000000498240 g     F .text	000000000000005c              _ZN62_$LT$alloc..string..Drain$u20$as$u20$core..ops..drop..Drop$GT$4drop17h81f2b9636077615dE
00000000004d7a10 g     F .text	000000000000014f              system__put_images__put_image_long_long_integer
00000000004a5290 g     F .text	0000000000000005              _ZN4core3fmt9Formatter5align17h3489df38cdb02423E
00000000004d91a0 g     F .text	000000000000000d              system__secondary_stack__ss_release
00000000004ba2a0 g     F .text	00000000000000d0              _ZN68_$LT$core..str..pattern..EmptyNeedle$u20$as$u20$core..fmt..Debug$GT$3fmt17h8ee8700fcfee8b20E
0000000000406fd0 g     F .text	000000000000001a              _ZN3std9panicking11panic_count17is_zero_slow_path17had2ab6bee4fbc332E
00000000004b45d0 g     F .text	0000000000000020              _ZN4core3fmt3num3imp53_$LT$impl$u20$core..fmt..LowerExp$u20$for$u20$i64$GT$3fmt17h4dc513019fd0f96fE
0000000000481920 g     F .text	0000000000000062              _ZN68_$LT$gimli..read..cfi..BaseAddresses$u20$as$u20$core..fmt..Debug$GT$3fmt17hd428612805db4e9fE
00000000004347b0 g     F .text	000000000000011b              _ZN61_$LT$std..io..stdio..StderrLock$u20$as$u20$std..io..Write$GT$9write_all17hde9c2434a1149c18E
000000000044c9e0 g     F .text	000000000000001d              _ZN82_$LT$std..net..tcp..TcpStream$u20$as$u20$std..sys..unix..kernel_copy..CopyRead$GT$10properties17h1868eb167e6ee8c4E
0000000000455bf0 g     F .text	00000000000002ff              rust_eh_personality
0000000000454300 g     F .text	0000000000000003              _ZN113_$LT$std..net..ip_addr..Ipv4Addr$u20$as$u20$std..sys_common..FromInner$LT$libc..unix..linux_like..in_addr$GT$$GT$10from_inner17h36839f4383e605afE
00000000004cda90 g     F .text	0000000000000006              ada__text_io__standard_output__2
00000000004a1ab0 g     F .text	0000000000000025              _ZN4core3fmt8builders8DebugSet6finish17h42bc39cce302e3f3E
00000000004a8f70 g     F .text	0000000000000008              _ZN4core3str5lossy9Utf8Chunk5valid17h9852333fe841c403E
00000000004e7b90 g     F .text	000000000000002d              ada__strings__utf_encoding__wide_wide_strings__decode
0000000000803e80 g     O .bss	0000000000000080              ada__text_io__standard_out_afcb
0000000000467f90 g     F .text	000000000000009e              _ZN65_$LT$object..pe..ImageNtHeaders64$u20$as$u20$core..fmt..Debug$GT$3fmt17hc3e51d8fe8d549b0E
00000000004448f0 g     F .text	000000000000011b              _ZN3std10sys_common2fs10try_exists17h25f9d4c4319f501eE
0000000000493850 g     F .text	0000000000000062              _ZN51_$LT$adler..Adler32$u20$as$u20$core..fmt..Debug$GT$3fmt17h6e6b178b38caf384E
00000000008002d8 g     O .data	0000000000000008              __gnat_exception_actions_global_action
0000000000429d80 g     F .text	0000000000000083              _ZN67_$LT$std..backtrace..BacktraceFrame$u20$as$u20$core..fmt..Debug$GT$3fmt17h545281f09fb6cddcE
00000000004afbc0 g     F .text	00000000000000bd              _ZN67_$LT$core..array..TryFromSliceError$u20$as$u20$core..fmt..Debug$GT$3fmt17h5f6a3839e98cf10eE
0000000000433b40 g     F .text	0000000000000010              _ZN57_$LT$std..io..stdio..Stderr$u20$as$u20$std..io..Write$GT$9write_all17he8f864ec2f9d109cE
0000000000800870 g     O .data	0000000000000008              __gnat_finalize_library_objects
000000000080070c g     O .data	0000000000000002              system__bit_ops_E
000000000044e030 g     F .text	000000000000000f              _ZN3std3sys4unix6os_str5Slice15to_string_lossy17hc32184767127e8a4E
00000000004c6cc6 g     F .text	0000000000000006              ada__exceptions__code_address_for_zzz
00000000004c2670 g     F .text	0000000000000044              _ZN66_$LT$core..core_arch..x86..__m128d$u20$as$u20$core..fmt..Debug$GT$3fmt17hcbf95cfe7146ce08E
0000000000449b60 g     F .text	000000000000002c              _ZN85_$LT$std..sys..unix..args..Args$u20$as$u20$core..iter..traits..iterator..Iterator$GT$9size_hint17h6632f7518013c543E
000000000042c6f0 g     F .text	000000000000002c              _ZN75_$LT$std..env..ArgsOs$u20$as$u20$core..iter..traits..iterator..Iterator$GT$9size_hint17ha9e811b8a7030acaE
000000000047fdb0 g     F .text	0000000000000024              _ZN5gimli9constants11DwDefaulted13static_string17hcc81ee72898d0268E
00000000004db2a0 g     F .text	00000000000000c6              system__wch_con__get_wc_encoding_method__2
00000000004aff80 g     F .text	00000000000000a9              _ZN67_$LT$core..char..EscapeUnicodeState$u20$as$u20$core..fmt..Debug$GT$3fmt17h29cf2c6134794b9dE
00000000004edb54 g     O .rodata	0000000000000004              system__img_unsS
00000000004cab10 g     F .text	0000000000000008              ada__text_io__current_error
000000000047bfa0 g     F .text	0000000000000029              _ZN60_$LT$gimli..constants..DwCfa$u20$as$u20$core..fmt..Debug$GT$3fmt17h9cb15c0c155101feE
00000000004b1050 g     F .text	0000000000000008              _ZN66_$LT$core..sync..atomic..AtomicI64$u20$as$u20$core..fmt..Debug$GT$3fmt17h70dda758fa1b3dd2E
00000000004e6b80 g     F .text	0000000000000008              ada__characters__handling__is_punctuation_connector
00000000004a4400 g     F .text	0000000000000480              _ZN4core3fmt9Formatter12pad_integral17he0b5de6d51f5163dE
00000000004325c0 g     F .text	0000000000000015              _ZN62_$LT$std..io..stdio..StdinLock$u20$as$u20$std..io..BufRead$GT$10read_until17h4ff0aed1663090a3E
00000000004c5ff6 g     F .text	0000000000000013              __gnat_rcheck_CE_Range_Check
000000000044d570 g     F .text	000000000000000b              _ZN3std3sys4unix2os5errno17hafbf3659b827522bE
00000000004619c0 g     F .text	00000000000000b9              _ZN67_$LT$object..read..util..ByteString$u20$as$u20$core..fmt..Debug$GT$3fmt17h04d3cd01cc51c0cdE
0000000000496850 g     F .text	000000000000006c              _ZN100_$LT$alloc..ffi..c_str..CString$u20$as$u20$core..convert..From$LT$$RF$core..ffi..c_str..CStr$GT$$GT$4from17h88dc90a5a36543d6E
0000000000442560 g     F .text	0000000000000038              _ZN3std7process5Child4kill17hc6e972bfc02f56c4E
00000000004dc1e0 g     F .text	000000000000000c              system__object_reader__object_symbolIP
00000000004cb720 g     F .text	00000000000004b1              ada__text_io__get_upper_half_char_immed
0000000000434d50 g     F .text	0000000000000168              _ZN3std2io5stdio6_print17hb0eaeec85cb65187E
00000000004cdec0 g     F .text	0000000000000001              interfaces__c__wchar_arrayIP
000000000044a070 g     F .text	0000000000000056              _ZN3std3sys4unix2fd8FileDesc14write_vectored17h680430d599d79595E
0000000000409240 g     F .text	0000000000000047              _ZN4core3str6traits23str_index_overflow_fail17h2bb0bd0246a01596E
000000000042dbc0 g     F .text	0000000000000049              _ZN51_$LT$$RF$std..fs..File$u20$as$u20$std..io..Read$GT$11read_to_end17hafdac5e366ab7231E
000000000044a780 g     F .text	0000000000000004              _ZN98_$LT$std..fs..FileType$u20$as$u20$std..sys_common..AsInner$LT$std..sys..unix..fs..FileType$GT$$GT$8as_inner17h9bddb7d9ccc73a6eE
00000000004b12c0 g     F .text	0000000000000034              _ZN55_$LT$f32$u20$as$u20$core..fmt..float..GeneralFormat$GT$44already_rounded_value_should_use_exponential17he614fa3e847e1defE
000000000042e8e0 g     F .text	00000000000000ba              _ZN3std2fs10DirBuilder7_create17h66484c2ceb9b3fefE
000000000043e620 g     F .text	0000000000000003              _ZN110_$LT$std..process..ChildStdout$u20$as$u20$std..sys_common..FromInner$LT$std..sys..unix..pipe..AnonPipe$GT$$GT$10from_inner17h35ca5048cd7fd8c2E
000000000042da70 g     F .text	000000000000005b              _ZN51_$LT$$RF$std..fs..File$u20$as$u20$std..io..Read$GT$4read17hd24233ebb3f30b92E
00000000004cd580 g     F .text	00000000000000c3              ada__text_io__open
00000000004b45f0 g     F .text	0000000000000012              _ZN4core3fmt3num3imp53_$LT$impl$u20$core..fmt..LowerExp$u20$for$u20$u64$GT$3fmt17h67c2009e3036156aE
00000000004de7a0 g     F .text	0000000000000059              system__object_reader__to_string
0000000000461d90 g     F .text	00000000000002fa              _ZN6object4read4coff7section48_$LT$impl$u20$object..pe..ImageSectionHeader$GT$11name_offset17h76f04378a0aca716E
0000000000465ae0 g     F .text	000000000000009e              _ZN59_$LT$object..read..CodeView$u20$as$u20$core..fmt..Debug$GT$3fmt17hdb80e67fd5cf8025E
00000000004d3790 g     F .text	0000000000000065              system__os_lib__is_owner_readable_file
0000000000516f98 g     O .rodata	0000000000000008              ada__text_io__null_str___UNC
00000000004ddc80 g     F .text	000000000000007e              system__object_reader__elf64_ops__name__2Xn
00000000004b15c0 g     F .text	0000000000000003              _ZN49_$LT$u8$u20$as$u20$core..fmt..num..DisplayInt$GT$7from_u817ha0de336d38ff8c36E
0000000000462900 g     F .text	0000000000000028              _ZN6object4read2pe6export11ExportTable15parse_directory17h136a366e4d5445a5E
00000000004ba0f0 g     F .text	0000000000000091              _ZN68_$LT$core..str..pattern..StrSearcher$u20$as$u20$core..fmt..Debug$GT$3fmt17ha5a286333f3ff67cE
00000000008047b8 g     O .bss	0000000000000004              __gnat_rt_init_count
00000000004b0030 g     F .text	00000000000000af              _ZN62_$LT$core..char..EscapeDefault$u20$as$u20$core..fmt..Debug$GT$3fmt17h317045d603beceb9E
00000000004a12a0 g     F .text	0000000000000038              _ZN4core9panicking15const_panic_fmt17h3119b3702f1b82d6E
000000000043d8c0 g     F .text	00000000000000f7              _ZN3std2os4unix3net6stream10UnixStream12read_timeout17h8e7ab98bc6d86fbaE
0000000000000000       F *UND*	0000000000000000              __fxstatat64@GLIBC_2.4
0000000000494050 g     F .text	0000000000000012              _ZN79_$LT$libc..unix..linux_like..linux..Elf64_Sym$u20$as$u20$core..clone..Clone$GT$5clone17hb827b80a7fcfc5b5E
000000000042c750 g     F .text	0000000000000054              _ZN53_$LT$std..env..ArgsOs$u20$as$u20$core..fmt..Debug$GT$3fmt17hdb99f71b3c8d83b4E
000000000042e580 g     F .text	0000000000000025              _ZN3std2fs9FileTimes12set_modified17h40e94d2d14bbaf59E
00000000004b1300 g     F .text	0000000000000040              _ZN55_$LT$f64$u20$as$u20$core..fmt..float..GeneralFormat$GT$44already_rounded_value_should_use_exponential17h9493afbe50675fb6E
000000000045e4a0 g     F .text	00000000000000c2              __rust_start_panic
0000000000489bc0 g     F .text	000000000000000e              _ZN11miniz_oxide7deflate4core15CompressorOxide11data_format17hcaf9d5b22ecf1aceE
00000000004c4460 g     F .text	0000000000000005              __rust_dealloc
00000000004e57f0 g     F .text	0000000000000044              __gnat_adjust_context_for_raise
00000000004949c0 g     F .text	0000000000000042              _ZN96_$LT$libc..unix..linux_like..linux..gnu..b64..x86_64..statfs64$u20$as$u20$core..clone..Clone$GT$5clone17h7e528d7d64f0a437E
0000000000465100 g     F .text	0000000000000043              _ZN90_$LT$object..read..pe..relocation..RelocationBlockIterator$u20$as$u20$core..fmt..Debug$GT$3fmt17h89736dc7a9211de8E
000000000046cce0 g     F .text	000000000000013d              _ZN6memchr6memchr8fallback6memchr17h87549f1a9afa4d33E
00000000004ca9f0 g     F .text	0000000000000001              ada__text_io__file_typeDIC
0000000000494a10 g     F .text	0000000000000022              _ZN102_$LT$libc..unix..linux_like..linux..gnu..b64..x86_64..pthread_attr_t$u20$as$u20$core..clone..Clone$GT$5clone17hdae05743f83fdb52E
000000000043d760 g     F .text	00000000000000a3              _ZN3std2os4unix3net8datagram12UnixDatagram16set_read_timeout17h5584b5b4824c7108E
000000000043e4b0 g     F .text	000000000000000a              _ZN82_$LT$std..process..ExitStatus$u20$as$u20$std..os..unix..process..ExitStatusExt$GT$9continued17h8131da892f6e46c0E
00000000004cf5b8 g     F .text	000000000000000b              local_raise
00000000004dda40 g     F .text	0000000000000004              system__object_reader__num_sections
00000000004715e0 g     F .text	0000000000000062              _ZN78_$LT$memchr..memmem..prefilter..PrefilterState$u20$as$u20$core..fmt..Debug$GT$3fmt17hee9758bb712422a9E
0000000000492b10 g     F .text	000000000000006c              _ZN75_$LT$miniz_oxide..deflate..core..TDEFLFlush$u20$as$u20$core..fmt..Debug$GT$3fmt17hc62c3940403d4a29E
000000000043e620 g     F .text	0000000000000003              _ZN3std10sys_common3net11TcpListener11into_socket17hbc9e2bc1e7a2d711E
00000000008002f0 g     O .data	0000000000000008              ada__finalization__controlledH37s
00000000004541d0 g     F .text	0000000000000009              _ZN183_$LT$std..sys..unix..process..process_inner..$LT$impl$u20$std..sys..unix..process..process_common..Command$GT$..posix_spawn..PosixSpawnFileActions$u20$as$u20$core..ops..drop..Drop$GT$4drop17hace11cc6a562e02aE
000000000049f950 g     F .text	0000000000000002              _ZN4core3cmp5impls56_$LT$impl$u20$core..cmp..PartialEq$u20$for$u20$$u21$$GT$2eq17h8acf3a39ea7c1432E
0000000000493940 g     F .text	0000000000000008              _ZN56_$LT$libc..unix..iovec$u20$as$u20$core..clone..Clone$GT$5clone17hdfa7e2d65b604451E
00000000004c4480 g     F .text	0000000000000005              __rust_alloc_zeroed
0000000000800720 g     O .data	0000000000000028              system__exceptions__foreign_exception
00000000004424b0 g     F .text	0000000000000003              _ZN76_$LT$std..sys..unix..fd..FileDesc$u20$as$u20$std..os..fd..raw..IntoRawFd$GT$11into_raw_fd17hdffa2ead10f236cbE
00000000004af0c0 g     F .text	0000000000000038              _ZN76_$LT$core..num..nonzero..NonZeroI8$u20$as$u20$core..str..traits..FromStr$GT$8from_str17hdc3298b783f8bf5fE
00000000004aaf20 g     F .text	000000000000002f              _ZN72_$LT$core..time..TryFromFloatSecsError$u20$as$u20$core..fmt..Display$GT$3fmt17hc40b46d6f5f43419E
0000000000466160 g     F .text	00000000000000c7              _ZN61_$LT$object..macho..FatArch32$u20$as$u20$core..fmt..Debug$GT$3fmt17h40a46b6cbd800fe3E
0000000000447160 g     F .text	000000000000009b              _ZN90_$LT$std..panicking..begin_panic_handler..PanicPayload$u20$as$u20$core..panic..BoxMeUp$GT$3get17h3c366cd12193d3bcE
00000000004a0dd0 g     F .text	0000000000000012              _ZN4core3ffi5c_str4CStr6to_str17hf534713d1a2bac2cE
0000000000462980 g     F .text	0000000000000042              _ZN6object4read2pe6export11ExportTable9name_iter17h8a3804d1e8b529b0E
00000000004aeca0 g     F .text	000000000000010e              _ZN77_$LT$core..num..nonzero..NonZeroU16$u20$as$u20$core..str..traits..FromStr$GT$8from_str17h108698f0eaed89b0E
00000000004e0be0 g     F .text	00000000000002e1              system__dwarf_lines__read_and_execute_insn
0000000000441070 g     F .text	0000000000000190              _ZN3std4path4Path10_ends_with17h818e0c7e97ed9b20E
00000000004895b0 g     F .text	0000000000000006              _ZN61_$LT$rustc_demangle..Demangle$u20$as$u20$core..fmt..Debug$GT$3fmt17h92d2f86b4864f92bE
00000000004435d0 g     F .text	000000000000002c              _ZN58_$LT$std..sync..once..Once$u20$as$u20$core..fmt..Debug$GT$3fmt17hf755a1e04b9a66b1E
0000000000493e50 g     F .text	0000000000000012              _ZN77_$LT$libc..unix..linux_like..linux..msginfo$u20$as$u20$core..clone..Clone$GT$5clone17hb3d3de8dda2911a0E
00000000004e45d0 g     F .text	0000000000000066              __gnat_file_time
000000000043a310 g     F .text	0000000000000067              _ZN3std3net3tcp9TcpStream7nodelay17hc6a6ca1588f8adadE
00000000004ca5b0 g     F .text	000000000000013a              ada__text_io__read__2
000000000044c940 g     F .text	0000000000000058              _ZN75_$LT$$RF$std..fs..File$u20$as$u20$std..sys..unix..kernel_copy..CopyRead$GT$10properties17h7d3b3321471cae8dE
00000000004d5970 g     F .text	0000000000000090              system__os_lib__copy_file__2
00000000004644e0 g     F .text	0000000000000176              _ZN67_$LT$object..common..RelocationKind$u20$as$u20$core..fmt..Debug$GT$3fmt17hf9ff7193e9f59dfcE
00000000004702d0 g     F .text	0000000000000003              _ZN79_$LT$memchr..memmem..prefilter..Prefilter$u20$as$u20$core..default..Default$GT$7default17h6d355d85c496544dE
000000000048d230 g     F .text	0000000000000045              _ZN11miniz_oxide7deflate4core8compress17h62b83d7ea400e8d8E
00000000004af8d0 g     F .text	0000000000000057              _ZN56_$LT$core..cmp..Ordering$u20$as$u20$core..fmt..Debug$GT$3fmt17he3ee2910339d1321E
0000000000454a70 g     F .text	0000000000000121              _ZN90_$LT$std..sys_common..net..LookupHost$u20$as$u20$core..convert..TryFrom$LT$$RF$str$GT$$GT$8try_from17h450d7cf9bd7f97acE
0000000000000078 g       .tbss	0000000000000003              _ZN3std4sync4mpmc5waker17current_thread_id5DUMMY7__getit5__KEY17h20826bd1f5b5d5b6E
0000000000433a10 g     F .text	0000000000000084              _ZN3std2io5stdio6Stderr4lock17h81e8d42b97af5139E
0000000000000000       F *UND*	0000000000000000              memset@GLIBC_2.2.5
00000000004d8990 g     F .text	000000000000004b              system__put_images__array_before
00000000004a7760 g     F .text	0000000000000216              _ZN4core3str8converts9from_utf817h0a2a0f71dd96faa9E
0000000000468a30 g     F .text	00000000000000be              _ZN71_$LT$object..pe..ImageAuxSymbolTokenDef$u20$as$u20$core..fmt..Debug$GT$3fmt17he8843199e1ae2ba8E
0000000000471a10 g     F .text	0000000000000029              _ZN77_$LT$memchr..memmem..x86..avx..nostd..Forward$u20$as$u20$core..fmt..Debug$GT$3fmt17hee1a180c9364adb2E
00000000004aec50 g     F .text	0000000000000001              _ZN4core3num7nonzero12NonZeroUsize13new_unchecked8comptime17hca794e50f1cecae1E
00000000004de940 g     F .text	0000000000000105              system__object_reader__pecoff_ops__decode_nameXn
00000000004d30a0 g     F .text	0000000000000005              system__os_lib__file_time_stamp__2
00000000004cd0e0 g     F .text	000000000000017f              ada__text_io__set_col
0000000000800b2a g     O .data	0000000000000002              system__mmap_E
00000000004cdf80 g     F .text	0000000000000043              interfaces__c__is_nul_terminated__3
0000000000800bac g     O .data	0000000000000002              ada__characters__handling_E
00000000004c80d0 g     F .text	0000000000000038              ada__strings__maps__Oand
00000000004a53f0 g     F .text	00000000000000c4              _ZN4core3fmt9Formatter26debug_struct_field2_finish17h6419a421c5a5d3afE
00000000004527f0 g     F .text	0000000000000009              _ZN3std3sys4unix14abort_internal17hbf9c556da2861ce5E
00000000004a5df0 g     F .text	00000000000000ed              _ZN4core3fmt9Formatter25debug_tuple_fields_finish17h3eddbe79f0812b5dE
00000000004e5360 g     F .text	0000000000000007              __gnat_arg_count
000000000044a830 g     F .text	000000000000043a              _ZN61_$LT$std..sys..unix..fs..File$u20$as$u20$core..fmt..Debug$GT$3fmt17h65aee672d4f35d4eE
00000000004317b0 g     F .text	00000000000000f8              _ZN55_$LT$std..io..stdio..Stdin$u20$as$u20$std..io..Read$GT$13read_vectored17h1344d3909b6caaa7E
0000000000494170 g     F .text	0000000000000014              _ZN87_$LT$libc..unix..linux_like..linux..posix_spawnattr_t$u20$as$u20$core..clone..Clone$GT$5clone17ha047c1acd5dc3464E
00000000004deb70 g     F .text	000000000000002d              system__object_reader__name
00000000004eae40 g     F .text	000000000000000c              .hidden _Unwind_GetCFA
00000000004edbb4 g     O .rodata	0000000000000004              system__val_utilB
0000000000493970 g     F .text	0000000000000006              _ZN57_$LT$libc..unix..linger$u20$as$u20$core..clone..Clone$GT$5clone17h60b76213de37f4f7E
0000000000800b90 g     O .data	0000000000000008              __gnat_target_debuggable_extension
0000000000803900 g     O .bss	0000000000000020              ada__strings__maps__constants__A243s
00000000004c85a0 g     F .text	0000000000000097              ada__strings__maps__to_set
00000000004278a0 g     F .text	0000000000000070              _ZN3std6thread7Builder4name17h483f7c7714d8dc7aE
0000000000497fc0 g     F .text	000000000000000a              _ZN5alloc6string13FromUtf8Error10utf8_error17h821c0920333ed48aE
00000000004bb3d0 g     F .text	0000000000000043              _ZN64_$LT$core..core_arch..simd..u8x2$u20$as$u20$core..fmt..Debug$GT$3fmt17h14c6c73fd138c98fE
0000000000409110 g     F .text	0000000000000008              _ZN4core5slice5index22slice_index_order_fail17hba29ba01abd0b9ebE
00000000004cda70 g     F .text	0000000000000006              ada__text_io__standard_input__2
0000000000000000       F *UND*	0000000000000000              fscanf@GLIBC_2.2.5
0000000000465e10 g     F .text	000000000000009e              _ZN65_$LT$object..read..CompressedData$u20$as$u20$core..fmt..Debug$GT$3fmt17hee90026abb9efa99E
00000000004dea50 g     F .text	000000000000008b              system__object_reader__pecoff_ops__name__2Xn
00000000004452a0 g     F .text	0000000000000009              _ZN107_$LT$std..sys_common..process..CommandEnvs$u20$as$u20$core..iter..traits..exact_size..ExactSizeIterator$GT$8is_empty17hd711d27c74e22af6E
00000000004d6c40 g     F .text	0000000000000191              system__put_images__integer_images__put_image__2Xn
0000000000498db0 g     F .text	00000000000000da              _ZN4core3num7dec2flt7decimal7Decimal5round17hc6702ebf06581758E
00000000004d0c60 g     F .text	0000000000000014              system__file_io__make_buffered
000000000042b690 g     F .text	000000000000002c              _ZN53_$LT$std..env..VarsOs$u20$as$u20$core..fmt..Debug$GT$3fmt17hfac33855ac647f34E
00000000004bb2b0 g     F .text	00000000000000dc              _ZN64_$LT$core..alloc..layout..Layout$u20$as$u20$core..fmt..Debug$GT$3fmt17hc5cbb3b08a11af0dE
00000000004b1620 g     F .text	0000000000000003              _ZN50_$LT$u16$u20$as$u20$core..fmt..num..DisplayInt$GT$4zero17h556efc6ab1cab298E
00000000004e8730 g     F .text	000000000000004d              system__io__put__3
00000000004350a0 g     F .text	000000000000002c              _ZN58_$LT$std..io..util..Repeat$u20$as$u20$core..fmt..Debug$GT$3fmt17h1c08c248dffc3afbE
00000000005197d0 g     O .rodata	0000000000000018              system__mmap__invalid_mapped_file_record
00000000005182d8 g     O .rodata	0000000000000004              system__put_images__integer_images__baseXn
00000000004c8fd0 g     F .text	0000000000000009              ada__tags__interface_data_elementIP
000000000043dfe0 g     F .text	000000000000004c              _ZN76_$LT$$RF$std..os..unix..net..stream..UnixStream$u20$as$u20$std..io..Read$GT$4read17hb93a7a4d853b2b1cE
0000000000518428 g     O .rodata	0000000000000008              system__secondary_stack__invalid_memory_size
00000000004cf2e0 g     F .text	000000000000007d              interfaces__c_streams__content_encodingH
00000000004483f0 g     F .text	0000000000000029              _ZN79_$LT$std..collections..hash..map..DefaultHasher$u20$as$u20$core..fmt..Debug$GT$3fmt17h48c264e253ab7a8dE
0000000000465a00 g     F .text	0000000000000062              _ZN57_$LT$object..read..Import$u20$as$u20$core..fmt..Debug$GT$3fmt17hb6518e0d3475830eE
0000000000000000       F *UND*	0000000000000000              ioctl@GLIBC_2.2.5
00000000004b1990 g     F .text	0000000000000089              _ZN73_$LT$core..fmt..num..LowerHex$u20$as$u20$core..fmt..num..GenericRadix$GT$5digit17h5b01b1c945859df4E
00000000004329c0 g     F .text	000000000000014e              _ZN61_$LT$$RF$std..io..stdio..Stdout$u20$as$u20$std..io..Write$GT$14write_vectored17hbf9d6628544b9379E
00000000004e59d0 g     F .text	0000000000000001              __gnat_initialize
00000000004c57b8 g     F .text	0000000000000023              ada__exceptions__exception_information
0000000000409290 g     F .text	0000000000000009              _ZN4core3str16slice_error_fail17h74cc5bc1b90b2063E
000000000080c7c8 g     O .bss	0000000000000004              __gl_xdr_stream
0000000000515aa0 g     O .rodata	000000000000001f              ada__exceptions__exception_data__betb_headerXn
0000000000000000       F *UND*	0000000000000000              getcwd@GLIBC_2.2.5
00000000005160c0 g     O .rodata	0000000000000100              ada__strings__maps__constants__upper_case_map
00000000004b17a0 g     F .text	0000000000000003              _ZN51_$LT$u128$u20$as$u20$core..fmt..num..DisplayInt$GT$6to_u3217hf880b4bd15961a73E
00000000004c91b0 g     F .text	0000000000000041              ada__tags__type_specific_dataIP
00000000004b1660 g     F .text	0000000000000005              _ZN50_$LT$i16$u20$as$u20$core..fmt..num..DisplayInt$GT$6to_u6417h6f01f5d2cdcaacf3E
000000000043dc00 g     F .text	0000000000000060              _ZN3std2os4unix3net8listener12UnixListener10take_error17hf7f5de333660da0cE
000000000043e540 g     F .text	000000000000000e              _ZN87_$LT$std..process..ExitStatusError$u20$as$u20$std..os..unix..process..ExitStatusExt$GT$14stopped_signal17h9aaf199cd0f724bbE
0000000000800860 g     O .data	0000000000000008              system__soft_links__get_jmpbuf_address
0000000000469640 g     F .text	0000000000000092              _ZN75_$LT$object..pe..ImageBoundImportDescriptor$u20$as$u20$core..fmt..Debug$GT$3fmt17h1960a15373dc7c7fE
00000000004c5268 g     F .text	0000000000000026              ada__exceptions__exception_traces__unhandled_exception_terminateXn
000000000043d3f0 g     F .text	000000000000008e              _ZN3std2os4unix3net6stream10UnixStream12connect_addr17hfbac51f0686ee445E
0000000000000000  w    F *UND*	0000000000000000              copy_file_range@GLIBC_2.27
0000000000430d70 g     F .text	00000000000000b9              _ZN60_$LT$std..io..stdio..StdoutRaw$u20$as$u20$std..io..Write$GT$9write_all17h2b030d1693e3e473E
0000000000431a60 g     F .text	00000000000000e7              _ZN55_$LT$std..io..stdio..Stdin$u20$as$u20$std..io..Read$GT$14read_to_string17hef794bb80cdc9caeE
0000000000433d40 g     F .text	0000000000000255              _ZN61_$LT$$RF$std..io..stdio..Stderr$u20$as$u20$std..io..Write$GT$14write_vectored17h7f2cca62e3252672E
0000000000493940 g     F .text	0000000000000008              _ZN78_$LT$libc..unix..linux_like..linux..rlimit64$u20$as$u20$core..clone..Clone$GT$5clone17h2e56ceca9a88cddbE
00000000004c52c2 g     F .text	0000000000000034              ada__exceptions__stream_attributes__eo_to_stringXn
00000000004d89e0 g     F .text	0000000000000029              system__put_images__array_between
0000000000438680 g     F .text	0000000000000142              _ZN3std3net6parser51_$LT$impl$u20$std..net..socket_addr..SocketAddr$GT$11parse_ascii17ha15a27e41e9955dfE
00000000004eb420 g     F .text	00000000000001d7              .hidden _Unwind_ForcedUnwind
000000000043d480 g     F .text	000000000000004d              _ZN3std2os4unix3net6stream10UnixStream4pair17ha2cb891795f5a2e3E
0000000000000000       F *UND*	0000000000000000              sendto@GLIBC_2.2.5
00000000004939f0 g     F .text	0000000000000003              _ZN85_$LT$libc..unix..linux_like..linux..gnu..nl_pktinfo$u20$as$u20$core..clone..Clone$GT$5clone17haee63ad2293bfd68E
0000000000473760 g     F .text	0000000000001756              _ZN5gimli4read6abbrev13Abbreviations6insert17ha6d2c24bfe745a83E
00000000004cc0f0 g     F .text	0000000000000005              ada__text_io__is_open
00000000004dd410 g     F .text	0000000000000001              system__object_reader__xcoff32_ops__headerIPXn
00000000004d8b90 g     F .text	0000000000000078              system__put_images__put_image_unknown
00000000004483c0 g     F .text	0000000000000029              _ZN61_$LT$std..backtrace..RawFrame$u20$as$u20$core..fmt..Debug$GT$3fmt17h76ad443339413b50E
0000000000431c70 g     F .text	0000000000000300              _ZN59_$LT$std..io..stdio..StdinLock$u20$as$u20$std..io..Read$GT$13read_vectored17h5b5fdb9c96a9bb02E
00000000004edb20 g     O .rodata	0000000000000004              system__dwarf_linesS
00000000004389b0 g     F .text	0000000000000004              _ZN3std3net11socket_addr12SocketAddrV42ip17hbcd0899e6618f18aE
00000000004939f0 g     F .text	0000000000000003              _ZN88_$LT$libc..unix..linux_like..linux..pthread_condattr_t$u20$as$u20$core..clone..Clone$GT$5clone17h663bed1288e960e7E
0000000000517380 g     O .rodata	0000000000000008              interfaces__c_streams__content_encodingN
0000000000495b00 g     F .text	000000000000006b              _ZN5alloc11collections5btree4node10splitpoint17h87d2bc3c854514daE
0000000000451550 g     F .text	0000000000000009              _ZN72_$LT$std..sys..unix..thread..Thread$u20$as$u20$core..ops..drop..Drop$GT$4drop17ha1a8b644788e61ebE
00000000004d0150 g     F .text	000000000000004e              system__file_io__Tfile_io_clean_up_typeCFD
0000000000800810 g     O .data	0000000000000008              system__soft_links__task_name
000000000043e620 g     F .text	0000000000000003              _ZN113_$LT$std..os..linux..process..PidFd$u20$as$u20$std..sys_common..IntoInner$LT$std..sys..unix..fd..FileDesc$GT$$GT$10into_inner17hd3a123525a215377E
00000000004818f0 g     F .text	0000000000000026              _ZN72_$LT$gimli..read..cfi..CieOffsetEncoding$u20$as$u20$core..fmt..Debug$GT$3fmt17hee2632f47945ed3cE
00000000004a52b0 g     F .text	0000000000000009              _ZN4core3fmt9Formatter9precision17hc802320f8b975659E
00000000004aec50 g     F .text	0000000000000001              _ZN4core3num7nonzero10NonZeroU6413new_unchecked8comptime17hcce7144b6a87708eE
000000000043a7b0 g     F .text	000000000000004c              _ZN3std3net3tcp11TcpListener7set_ttl17h97958b7eb70b97f4E
00000000004421b0 g     F .text	000000000000000c              _ZN3std7process7Command15get_current_dir17hdca9d337cc8c7d3bE
0000000000000000       F *UND*	0000000000000000              fgetc@GLIBC_2.2.5
00000000004e45a0 g     F .text	0000000000000021              __gnat_file_time_fd
000000000046beb0 g     F .text	0000000000000126              _ZN67_$LT$object..pe..ImportObjectHeader$u20$as$u20$core..fmt..Debug$GT$3fmt17h86591f2a22e0fe8bE
00000000004e6a10 g     F .text	0000000000000012              ada__characters__handling__is_basic
0000000000499770 g     F .text	0000000000000059              _ZN59_$LT$f64$u20$as$u20$core..num..dec2flt..float..RawFloat$GT$14integer_decode17h26b5d08433b7fef1E
0000000000442210 g     F .text	000000000000001e              _ZN84_$LT$std..process..CommandArgs$u20$as$u20$core..iter..traits..iterator..Iterator$GT$9size_hint17h0d026a53d355e23aE
0000000000443690 g     F .text	000000000000000a              _ZN3std4time7Instant3now17h7c63a9e3b53fc17cE
00000000008040c0 g     O .bss	0000000000000008              __gnat_default_ss_size
0000000000497fd0 g     F .text	0000000000000006              _ZN67_$LT$alloc..string..FromUtf8Error$u20$as$u20$core..fmt..Display$GT$3fmt17hb48a66eda02a39b4E
00000000004e48a0 g     F .text	000000000000002a              __gnat_is_writable_file_attr
00000000004c6f70 g     F .text	000000000000004e              ada__finalization__Tlimited_controlledCFD
000000000051a0a4 g     O .rodata	0000000000000001              ada__characters__handling__special
000000000043a970 g     F .text	0000000000000006              _ZN63_$LT$std..net..tcp..TcpListener$u20$as$u20$core..fmt..Debug$GT$3fmt17hc92b2bec34533e16E
0000000000437090 g     F .text	000000000000000a              _ZN109_$LT$std..net..ip_addr..Ipv6Addr$u20$as$u20$std..sys_common..IntoInner$LT$libc..unix..align..in6_addr$GT$$GT$10into_inner17h9d3d08fe6daf1458E
0000000000427940 g     F .text	0000000000000028              _ZN3std6thread7current17h0caaf7fe64627945E
000000000044a7d0 g     F .text	0000000000000003              _ZN70_$LT$std..sys..unix..fs..File$u20$as$u20$std..os..fd..raw..AsRawFd$GT$9as_raw_fd17h64f0038786258128E
00000000004a56c0 g     F .text	0000000000000130              _ZN4core3fmt9Formatter26debug_struct_field5_finish17h4e3e64ed24d46700E
00000000004461f0 g     F .text	0000000000000006              .hidden __rdl_dealloc
00000000005186c0 g     O .rodata	0000000000000001              system__wch_con__wcem_brackets
00000000004dd3b0 g     F .text	0000000000000001              system__object_reader__pecoff_ops__optional_header_pe64IPXn
00000000004324c0 g     F .text	00000000000000db              _ZN62_$LT$std..io..stdio..StdinLock$u20$as$u20$std..io..BufRead$GT$8fill_buf17hbe5fbd2461eab7b2E
0000000000000000       F *UND*	0000000000000000              close@GLIBC_2.2.5
00000000004b4610 g     F .text	0000000000000027              _ZN4core3fmt3num3imp52_$LT$impl$u20$core..fmt..UpperExp$u20$for$u20$i8$GT$3fmt17hda806ab6cd56cff0E
00000000004ba630 g     F .text	0000000000000037              _ZN74_$LT$core..time..TryFromFloatSecsErrorKind$u20$as$u20$core..fmt..Debug$GT$3fmt17hf0398f2a1ed9288cE
00000000004e59c0 g     F .text	0000000000000004              __gnat_init_float
0000000000427570 g     F .text	000000000000002c              _ZN68_$LT$std..thread..local..AccessError$u20$as$u20$core..fmt..Debug$GT$3fmt17h34e44968755d0c99E
00000000004b1820 g     F .text	0000000000000004              _ZN50_$LT$u16$u20$as$u20$core..fmt..num..DisplayInt$GT$6to_u6417h462e90b4f173b28eE
00000000004c7fa0 g     F .text	0000000000000017              ada__streams__write_sea
00000000004d8eb0 g     F .text	000000000000006e              system__secondary_stack__get_stack_info
0000000000517df8 g     O .rodata	0000000000000008              system__finalization_root__root_controlledR27s
00000000004eda7c g     O .rodata	0000000000000004              adaS
0000000000000000       F *UND*	0000000000000000              setgroups@GLIBC_2.2.5
00000000004d3ee0 g     F .text	000000000000001a              system__os_lib__kill_process_tree
00000000004edb74 g     O .rodata	0000000000000004              system__mmap__unixS
0000000000493920 g     F .text	0000000000000012              _ZN58_$LT$libc..unix..hostent$u20$as$u20$core..clone..Clone$GT$5clone17ha47e6346e2549337E
000000000047ff50 g     F .text	0000000000000107              _ZN62_$LT$gimli..constants..DwLns$u20$as$u20$core..fmt..Display$GT$3fmt17h229ef08a90ed8c74E
00000000004cacf0 g     F .text	0000000000000005              ada__text_io__form
0000000000454960 g     F .text	0000000000000008              _ZN80_$LT$std..sys_common..thread_local_key..Key$u20$as$u20$core..ops..drop..Drop$GT$4drop17h5d3ee51ed3d277a0E
0000000000803b60 g     O .bss	0000000000000020              ada__strings__maps__constants__control_set
00000000004545a0 g     F .text	0000000000000046              _ZN92_$LT$std..sys..unix..process..process_inner..ExitStatusError$u20$as$u20$core..fmt..Debug$GT$3fmt17h8f0777119eb3f9caE
000000000044a780 g     F .text	0000000000000004              _ZN108_$LT$std..net..tcp..TcpStream$u20$as$u20$std..sys_common..AsInner$LT$std..sys_common..net..TcpStream$GT$$GT$8as_inner17h8d2f1a31d7d2c431E
00000000004c50ac g     F .text	0000000000000186              ada__exceptions__exception_traces__notify_exceptionXn
00000000004e2ec0 g     F .text	0000000000000005              system__mmap__length
0000000000447980 g     F .text	00000000000000d6              _ZN72_$LT$std..backtrace_rs..backtrace..Frame$u20$as$u20$core..fmt..Debug$GT$3fmt17h8a608a1e518a6485E
000000000046eb00 g     F .text	000000000000015a              _ZN6memchr6memmem9rabinkarp10rfind_with17hac2d2c921b9e4adbE
00000000004cab80 g     F .text	0000000000000096              ada__text_io__end_of_line
00000000004953f0 g     F .text	0000000000000061              __rdl_oom
00000000004c8640 g     F .text	000000000000005e              ada__strings__maps__to_set__2
00000000004b1530 g     F .text	0000000000000031              _ZN4core3fmt5float53_$LT$impl$u20$core..fmt..LowerExp$u20$for$u20$f64$GT$3fmt17h6bbf46aace352aaaE
000000000042b9a0 g     F .text	000000000000009f              _ZN57_$LT$std..env..VarError$u20$as$u20$core..fmt..Display$GT$3fmt17hd96fb2897d61072fE
00000000004b9e80 g     F .text	00000000000000a7              _ZN67_$LT$core..str..pattern..SearchStep$u20$as$u20$core..fmt..Debug$GT$3fmt17ha429fd8381def030E
0000000000493b10 g     F .text	0000000000000032              _ZN68_$LT$libc..unix..linux_like..lconv$u20$as$u20$core..clone..Clone$GT$5clone17h21f3b5f85ca7df79E
00000000004dd450 g     F .text	0000000000000001              system__object_reader__xcoff32_ops__aux_entryIPXn
0000000000800b79 g     O .data	0000000000000001              __gl_queuing_policy
0000000000493210 g     F .text	000000000000004f              _ZN60_$LT$miniz_oxide..DataFormat$u20$as$u20$core..fmt..Debug$GT$3fmt17h8a961aaaedc7aff0E
000000000042e090 g     F .text	0000000000000037              _ZN3std2fs8Metadata8accessed17h81c16fd20027b77fE
00000000008003c0 g     O .data	0000000000000028              ada__io_exceptions__device_error
0000000000515430 g     O .rodata	000000000000001e              ada__containers__capacity_errorE
00000000004e1270 g     F .text	0000000000000092              system__dwarf_lines__dump
0000000000515fc0 g     O .rodata	0000000000000100              ada__strings__maps__constants__basic_map
0000000000516438 g     O .rodata	0000000000000008              ada__streams__root_stream_typeY
0000000000442380 g     F .text	0000000000000006              _ZN3std7process5Stdio4null17h7902dd5f78122884E
000000000042dd80 g     F .text	0000000000000059              _ZN77_$LT$$RF$std..os..unix..net..stream..UnixStream$u20$as$u20$std..io..Write$GT$14write_vectored17hac0f94fc8fdacd3bE
00000000005175c0 g     O .rodata	000000000000001f              system__file_control_block__afcbE69s
00000000004af3f0 g     F .text	00000000000000f9              _ZN4core3num60_$LT$impl$u20$core..str..traits..FromStr$u20$for$u20$u16$GT$8from_str17h5353ace0d7c4c327E
00000000004656d0 g     F .text	000000000000007f              _ZN61_$LT$object..read..ObjectKind$u20$as$u20$core..fmt..Debug$GT$3fmt17h5da62a4ee7c40d53E
00000000004ae470 g     F .text	00000000000000af              _ZN72_$LT$core..num..dec2flt..ParseFloatError$u20$as$u20$core..fmt..Debug$GT$3fmt17h6ab1e617420f26cfE
0000000000498890 g     F .text	000000000000002d              _ZN4core3f3221_$LT$impl$u20$f32$GT$7next_up17h8e91ddf70aa61c38E
00000000004e8040 g     F .text	0000000000000045              system__bounded_strings__append__2
0000000000519d88 g     O .rodata	0000000000000001              __gnat_text_translation_required
00000000004d9480 g     F .text	0000000000000006              system__soft_links__set_jmpbuf_address_soft
00000000004d9290 g     F .text	0000000000000006              system__soft_links__get_stack_info_nt
00000000004c7e60 g     F .text	0000000000000006              ada__streams___size
0000000000499680 g     F .text	0000000000000021              _ZN59_$LT$f32$u20$as$u20$core..num..dec2flt..float..RawFloat$GT$8from_u6417hb9de49812ed40022E
0000000000499d50 g     F .text	000000000000002f              _ZN74_$LT$core..num..dec2flt..ParseFloatError$u20$as$u20$core..fmt..Display$GT$3fmt17h3d652a47ee483910E
0000000000469c10 g     F .text	0000000000000062              _ZN76_$LT$object..pe..ImageDynamicRelocationTable$u20$as$u20$core..fmt..Debug$GT$3fmt17hcc5c5f9368766ed7E
00000000004e51b0 g     F .text	0000000000000005              __gnat_cpu_alloc
00000000004a7630 g     F .text	000000000000005b              _ZN4core5slice5index16into_slice_range17hf72c709dcbcbe3fcE
0000000000498820 g     F .text	0000000000000025              _ZN4core3f3221_$LT$impl$u20$f32$GT$16partial_classify17h97f74ab35f945966E
00000000004cda40 g     F .text	0000000000000008              ada__text_io__standard_error
00000000004b1700 g     F .text	0000000000000005              _ZN52_$LT$isize$u20$as$u20$core..fmt..num..DisplayInt$GT$7from_u817h8f3a94894f2337d4E
00000000004b17d0 g     F .text	0000000000000004              _ZN49_$LT$u8$u20$as$u20$core..fmt..num..DisplayInt$GT$6to_u1617h167d96bcf3edae17E
000000000043e6b0 g     F .text	000000000000004b              _ZN3std2os2fd5owned10BorrowedFd18try_clone_to_owned17hd4ac68b04d8928b1E
0000000000803651 g     O .bss	0000000000000001              __rust_alloc_error_handler_should_panic
00000000004c6e90 g     F .text	0000000000000005              ada__finalization__Oeq__3
00000000004c98b0 g     F .text	0000000000000471              ada__tags__internal_tag
00000000004d0ca0 g     F .text	0000000000000013              system__file_io__make_unbuffered
00000000004807d0 g     F .text	0000000000000024              _ZN5gimli9constants5DwRle13static_string17h043a79f5e7003018E
00000000004624d0 g     F .text	000000000000001e              _ZN6object4read2pe14data_directory15DataDirectories9enumerate17h752f1f718c5a1bb2E
000000000042d170 g     F .text	0000000000000077              _ZN3std2fs4File9sync_data17h524e9c2be800b8ddE
0000000000471650 g     F .text	000000000000006e              _ZN74_$LT$memchr..memmem..rabinkarp..NeedleHash$u20$as$u20$core..fmt..Debug$GT$3fmt17hb80dc2ff0757b289E
00000000004e47c0 g     F .text	000000000000002a              __gnat_is_directory_attr
0000000000469cf0 g     F .text	000000000000006e              _ZN73_$LT$object..pe..ImageDynamicRelocation64$u20$as$u20$core..fmt..Debug$GT$3fmt17hf8e0732574c17338E
000000000043b1a0 g     F .text	0000000000000008              _ZN69_$LT$std..fs..Metadata$u20$as$u20$std..os..linux..fs..MetadataExt$GT$13st_mtime_nsec17h6f79158fde5e1f9dE
00000000004c44a0 g     F .text	000000000000000a              ada__containers___elabs
00000000004c44aa g     F .text	000000000000002a              ada__exceptions__exception_occurrenceIP
0000000000443e50 g     F .text	000000000000007a              _ZN69_$LT$std..sys..unix..time..SystemTime$u20$as$u20$core..fmt..Debug$GT$3fmt17h06f3d27c669cfdf0E
0000000000494570 g     F .text	0000000000000042              _ZN82_$LT$libc..unix..linux_like..linux..gnu..rtentry$u20$as$u20$core..clone..Clone$GT$5clone17h2fec85bab9ca746cE
00000000004d3e30 g     F .text	0000000000000065              system__os_lib__is_owner_writable_file
0000000000800a80 g     O .data	0000000000000028              system__object_reader__format_error
0000000000448de0 g     F .text	0000000000000043              _ZN64_$LT$std..net..tcp..IntoIncoming$u20$as$u20$core..fmt..Debug$GT$3fmt17h15fdf0821bd0e72bE
0000000000519078 g     O .rodata	0000000000000008              system__object_reader__object_formatN
00000000004e3440 g     F .text	0000000000000054              system__exceptions__machine__new_occurrence
00000000004ed220 g     F .text	000000000000008c              .hidden __register_frame_info_table_bases
00000000004cc490 g     F .text	000000000000006d              ada__text_io__nextc
000000000044a7d0 g     F .text	0000000000000003              _ZN76_$LT$std..sys..unix..pipe..AnonPipe$u20$as$u20$std..os..fd..raw..AsRawFd$GT$9as_raw_fd17h6c32f037ec7f0f3eE
0000000000479480 g     F .text	0000000000000015              _ZN57_$LT$gimli..arch..AArch64$u20$as$u20$core..fmt..Debug$GT$3fmt17h41a325ef979880c1E
0000000000497860 g     F .text	00000000000002b6              _ZN5alloc6string6String15from_utf8_lossy17h8bffb866e7b5a8b3E
00000000005157b0 g     O .rodata	0000000000000013              ada__exceptions__rmsg_17
000000000044d640 g     F .text	0000000000000025              _ZN3std3sys4unix2os11split_paths17hca2017dcb48b7a47E
00000000004edc60 g     O .rodata	0000000000000004              system__file_control_blockS
00000000004e1ec0 g     F .text	00000000000009e9              system__dwarf_lines__symbolic_traceback
00000000004d0ba0 g     F .text	000000000000008d              system__file_io__form_integer
00000000004af2e0 g     F .text	0000000000000090              _ZN58_$LT$core..num..FpCategory$u20$as$u20$core..fmt..Debug$GT$3fmt17hf812a4bc48be974aE
00000000004e1930 g     F .text	00000000000000c9              system__dwarf_lines__read_aranges_header
0000000000000000       F *UND*	0000000000000000              closedir@GLIBC_2.2.5
0000000000515750 g     O .rodata	000000000000001b              ada__exceptions__rmsg_15
0000000000408e90 g     F .text	00000000000001cb              _ZN4core9panicking19assert_failed_inner17h975945eefd234bf6E
00000000004d2c30 g     F .text	000000000000006e              system__os_lib__create_file
0000000000449910 g     F .text	000000000000009e              _ZN67_$LT$std..sync..mpmc..select..Token$u20$as$u20$core..fmt..Debug$GT$3fmt17hdc9ae365b5b1ff3fE
00000000004a09b0 g     F .text	000000000000004e              _ZN79_$LT$core..ffi..c_str..FromBytesUntilNulError$u20$as$u20$core..fmt..Display$GT$3fmt17h380e7f1f8e1db970E
0000000000800778 g     O .data	0000000000000004              system__file_io__C332b
00000000004c8700 g     F .text	0000000000000035              ada__strings__maps__to_set__4
00000000004e4a70 g     F .text	000000000000004b              __gnat_set_readable
000000000047bc70 g     F .text	0000000000000222              _ZN5gimli9constants5DwCfa13static_string17hcc247c49f032e242E
00000000004e43d0 g     F .text	0000000000000021              __gnat_file_length_long
00000000004edc58 g     O .rodata	0000000000000004              system__finalization_rootB
0000000000469990 g     F .text	0000000000000062              _ZN76_$LT$object..pe..ImageResourceDirectoryEntry$u20$as$u20$core..fmt..Debug$GT$3fmt17he2e5ee165c8abefaE
000000000043eb60 g     F .text	0000000000000432              _ZN3std4path10Components7as_path17h7e7c0074e8506279E
00000000004c87e0 g     F .text	0000000000000004              ada__strings__text_buffers__increase_indent
0000000000477450 g     F .text	0000000000000126              _ZN5gimli4read5value5Value2gt17hd2759ae37f63be34E
00000000004a9e40 g     F .text	00000000000000a7              _ZN62_$LT$core..time..Duration$u20$as$u20$core..ops..arith..Add$GT$3add17hd81e812605448d54E
000000000043df80 g     F .text	0000000000000056              _ZN72_$LT$std..os..unix..net..stream..UnixStream$u20$as$u20$std..io..Read$GT$13read_vectored17h49c74684fdc87e48E
00000000004ceff0 g     F .text	0000000000000181              interfaces__c__to_c__11
00000000004b9620 g     F .text	0000000000000568              _ZN69_$LT$core..str..iter..EscapeDefault$u20$as$u20$core..fmt..Display$GT$3fmt17h6dd0f64151ffe442E
0000000000450200 g     F .text	0000000000000008              _ZN80_$LT$std..process..Stdio$u20$as$u20$core..convert..From$LT$std..fs..File$GT$$GT$4from17hb7c09f5bc181ef4dE
00000000004d9440 g     F .text	0000000000000006              system__soft_links__get_sec_stack_soft
0000000000454680 g     F .text	0000000000000007              _ZN50_$LT$i32$u20$as$u20$std..sys..unix..IsMinusOne$GT$12is_minus_one17hf774510fbada8001E
0000000000448d90 g     F .text	0000000000000043              _ZN60_$LT$std..net..tcp..Incoming$u20$as$u20$core..fmt..Debug$GT$3fmt17h33df71cced7dd18fE
00000000004c3f70 g     F .text	00000000000000af              _ZN77_$LT$core..core_arch..x86..cpuid..CpuidResult$u20$as$u20$core..fmt..Debug$GT$3fmt17h51e9cbccabf57711E
0000000000405710 g     F .text	00000000000000d8              _ZN3std4sync4mpmc7context7Context3new17h9d14152b1a838566E
00000000004b1570 g     F .text	0000000000000037              _ZN4core3fmt5float53_$LT$impl$u20$core..fmt..UpperExp$u20$for$u20$f64$GT$3fmt17h81faf961cc85839eE
0000000000800a28 g     O .data	0000000000000001              system__standard_library__runtime_finalized
00000000008004f8 g     O .data	0000000000000002              ada__streams_E
000000000042c6c0 g     F .text	000000000000002d              _ZN75_$LT$std..env..ArgsOs$u20$as$u20$core..iter..traits..iterator..Iterator$GT$4next17h04a8bf6785b26434E
0000000000000000       F *UND*	0000000000000000              pthread_attr_getstack@GLIBC_2.2.5
0000000000477b40 g     F .text	0000000000000029              _ZN70_$LT$gimli..common..DebugTypeSignature$u20$as$u20$core..fmt..Debug$GT$3fmt17h4fe86b48dc1a4cfcE
00000000004edb48 g     O .rodata	0000000000000004              ada__strings__maps__constantsS
0000000000800760 g     O .data	0000000000000008              system__file_io__file_io_clean_up_typeH16b
0000000000451490 g     F .text	000000000000009e              _ZN3std3sys4unix6thread6Thread4join17h1a3c76eeba01ca06E
00000000004ae220 g     F .text	00000000000000af              _ZN73_$LT$core..num..dec2flt..common..AsciiStr$u20$as$u20$core..fmt..Debug$GT$3fmt17h024486142e6cb295E
0000000000000000       F *UND*	0000000000000000              fputc@GLIBC_2.2.5
0000000000800b84 g     O .data	0000000000000004              __gl_main_priority
0000000000449f80 g     F .text	0000000000000086              _ZN3std3sys4unix2fd8FileDesc8read_buf17heaaa6b57f9c9dc55E
00000000004ab410 g     F .text	000000000000001b              _ZN49_$LT$u8$u20$as$u20$core..num..bignum..FullOps$GT$12full_mul_add17hcce6265cb09503f6E
00000000004b3c20 g     F .text	00000000000000ec              _ZN4core3fmt3num3imp52_$LT$impl$u20$core..fmt..Display$u20$for$u20$u16$GT$3fmt17h02d8e3297ff690faE
0000000000465b80 g     F .text	0000000000000079              _ZN67_$LT$object..read..RelocationTarget$u20$as$u20$core..fmt..Debug$GT$3fmt17h2896f3ab76a43528E
00000000004e06b0 g     F .text	0000000000000153              system__dwarf_lines__skip_form
00000000004c6f20 g     F .text	0000000000000001              ada__finalization__controlledFD
000000000040a090 g     F .text	000000000000005b              .hidden _ZN48_$LT$lib..TwoNum$u20$as$u20$core..fmt..Debug$GT$3fmt17hce2371c29cea3f48E
0000000000515800 g     O .rodata	000000000000002f              ada__exceptions__rmsg_19
000000000043d760 g     F .text	00000000000000a3              _ZN3std3net3tcp9TcpStream16set_read_timeout17h64aa91e82aa799dbE
0000000000471790 g     F .text	0000000000000029              _ZN68_$LT$memchr..memmem..twoway..Reverse$u20$as$u20$core..fmt..Debug$GT$3fmt17hbe1451a416921817E
000000000043e140 g     F .text	00000000000002f3              _ZN76_$LT$std..process..Command$u20$as$u20$std..os..unix..process..CommandExt$GT$4exec17h7e2a744aae941bdcE
000000000044a780 g     F .text	0000000000000004              _ZN3std10sys_common3net9UdpSocket6socket17h36cd3268d517bdb5E
0000000000518184 g     O .rodata	0000000000000004              system__os_lib__standerr
00000000004e51c0 g     F .text	000000000000000d              __gnat_cpu_alloc_size
0000000000515710 g     O .rodata	0000000000000011              ada__exceptions__rmsg_13
000000000043b3a0 g     F .text	0000000000000064              _ZN3std2os4unix3net4addr10SocketAddr10from_parts17h587b16b473af6599E
0000000000443b60 g     F .text	0000000000000074              _ZN3std4time10SystemTime11checked_add17hed11b7f191fc750dE
00000000004435b0 g     F .text	0000000000000015              _ZN131_$LT$$LT$std..sync..rwlock..RwLock$LT$T$GT$$u20$as$u20$core..fmt..Debug$GT$..fmt..LockedPlaceholder$u20$as$u20$core..fmt..Debug$GT$3fmt17h68f33c958260f6e1E
000000000044ed20 g     F .text	0000000000000033              _ZN3std3sys4unix7process14process_common7Command6stderr17h302728c9f57c12eaE
00000000004ccc00 g     F .text	0000000000000010              ada__text_io__put__2
0000000000433330 g     F .text	000000000000006e              _ZN61_$LT$std..io..stdio..StdoutLock$u20$as$u20$std..io..Write$GT$14write_vectored17h41fb1cf250c5ab31E
000000000042bd70 g     F .text	00000000000000af              _ZN79_$LT$std..env..SplitPaths$u20$as$u20$core..iter..traits..iterator..Iterator$GT$4next17h547afbf75a7559c0E
0000000000443130 g     F .text	0000000000000024              _ZN72_$LT$std..sync..mpsc..RecvTimeoutError$u20$as$u20$core..error..Error$GT$11description17h41f82c0303ba4317E
0000000000491e00 g     F .text	0000000000000070              _ZN11miniz_oxide7inflate6stream12InflateState26new_boxed_with_window_bits17hb4d6363070bf53a7E
00000000004d3fa0 g     F .text	000000000000025d              system__os_lib__normalize_arguments
00000000004d0990 g     F .text	00000000000001a1              system__file_io__form_parameter
00000000004af270 g     F .text	000000000000000e              _ZN4core3num21_$LT$impl$u20$i64$GT$14from_str_radix17h67d9acb86e44b643E
0000000000432040 g     F .text	00000000000002d9              _ZN59_$LT$std..io..stdio..StdinLock$u20$as$u20$std..io..Read$GT$14read_to_string17h7bd4d05af354aa90E
00000000004d8fe0 g     F .text	000000000000005d              system__secondary_stack__ss_free
00000000004938c0 g     F .text	0000000000000004              _ZN54_$LT$libc..unix..DIR$u20$as$u20$core..clone..Clone$GT$5clone17h99427890492ca4eaE
0000000000493110 g     F .text	000000000000004d              _ZN58_$LT$miniz_oxide..MZStatus$u20$as$u20$core..fmt..Debug$GT$3fmt17hf59eb4273fb7533fE
0000000000463470 g     F .text	0000000000000007              _ZN6object4read2pe8resource17ResourceDirectory3new17h7f7c3264f8a4322dE
00000000005156d0 g     O .rodata	0000000000000017              ada__exceptions__rmsg_11
00000000008002e8 g     O .data	0000000000000008              ada__finalization__limited_controlledH71s
00000000004938c0 g     F .text	0000000000000004              _ZN57_$LT$libc..unix..fpos_t$u20$as$u20$core..clone..Clone$GT$5clone17hbf934faab12c8aa2E
0000000000440a90 g     F .text	0000000000000077              _ZN3std4path4Path11to_path_buf17h820db2a0dd312e1cE
000000000047c980 g     F .text	00000000000000f8              _ZN62_$LT$gimli..constants..DwTag$u20$as$u20$core..fmt..Display$GT$3fmt17hc539e4561120c5a9E
00000000004d3a80 g     F .text	0000000000000035              system__os_lib__create_temp_output_file
00000000004dd5a0 g     F .text	0000000000000005              system__object_reader__tell__2
00000000004a84c0 g     F .text	0000000000000015              _ZN71_$LT$core..str..error..ParseBoolError$u20$as$u20$core..fmt..Display$GT$3fmt17h2e4ccdcf33f998baE
00000000004421f0 g     F .text	000000000000001f              _ZN84_$LT$std..process..CommandArgs$u20$as$u20$core..iter..traits..iterator..Iterator$GT$4next17h0c220861d87bb39eE
0000000000476800 g     F .text	00000000000001d3              _ZN5gimli4read5value5Value3and17he39c4b7e8d4eb215E
0000000000497f40 g     F .text	0000000000000079              _ZN5alloc6string6String12insert_bytes17hb6f70921ae88c2beE
00000000004c9d30 g     F .text	0000000000000059              ada__tags__descendant_tag
00000000004e8630 g     F .text	000000000000006f              system__img_uns__impl__set_image_unsigned
00000000004b1780 g     F .text	0000000000000004              _ZN51_$LT$u128$u20$as$u20$core..fmt..num..DisplayInt$GT$5to_u817h1f7c4f35526e3a16E
00000000004cadf0 g     F .text	000000000000000c              ada__text_io__get__2
000000000043a5b0 g     F .text	0000000000000010              _ZN3std3net3tcp9TcpStream10local_addr17hbbff35caa4e7bb9eE
0000000000475100 g     F .text	00000000000000ba              _ZN68_$LT$gimli..read..abbrev..Attributes$u20$as$u20$core..fmt..Debug$GT$3fmt17h029e940994a2b6b0E
00000000004399c0 g     F .text	00000000000000d2              _ZN60_$LT$str$u20$as$u20$std..net..socket_addr..ToSocketAddrs$GT$15to_socket_addrs17h79394333bc79005cE
000000000043e620 g     F .text	0000000000000003              _ZN110_$LT$std..process..ChildStderr$u20$as$u20$std..sys_common..FromInner$LT$std..sys..unix..pipe..AnonPipe$GT$$GT$10from_inner17h06a814c4967ba641E
00000000004cccf0 g     F .text	0000000000000012              ada__text_io__put__4
00000000004989c0 g     F .text	00000000000000b6              _ZN4core3f3221_$LT$impl$u20$f32$GT$9from_bits13ct_u32_to_f3217hcfec094077c811c7E
0000000000000000       F *UND*	0000000000000000              sched_yield@GLIBC_2.2.5
000000000042fee0 g     F .text	0000000000000520              _ZN60_$LT$std..io..error..Error$u20$as$u20$core..fmt..Display$GT$3fmt17hee0a62739896c69cE
00000000004e87f0 g     F .text	00000000000000d1              system__val_lli__impl__scan_integer
0000000000479bb0 g     F .text	0000000000000015              _ZN55_$LT$gimli..arch..RiscV$u20$as$u20$core..fmt..Debug$GT$3fmt17h8165827e8dbf6143E
000000000049f820 g     F .text	000000000000004d              _ZN4core3mem15transmutability6Assume3and17ha312dceb6b95bc06E
0000000000441b30 g     F .text	000000000000000d              _ZN66_$LT$std..path..StripPrefixError$u20$as$u20$core..error..Error$GT$11description17h1276d067b3f41a62E
00000000008040cc g     O .bss	0000000000000004              system__secondary_stack__ss_pool
000000000044cc20 g     F .text	000000000000001c              _ZN85_$LT$std..io..stdio..StderrLock$u20$as$u20$std..sys..unix..kernel_copy..CopyWrite$GT$10properties17h94a13a7b50fa0fa1E
00000000004edbcc g     O .rodata	0000000000000004              system__wch_stwB
0000000000494290 g     F .text	0000000000000012              _ZN92_$LT$libc..unix..linux_like..linux..__c_anonymous_ifru_map$u20$as$u20$core..clone..Clone$GT$5clone17h707f8dc4f986c2c7E
00000000004b1730 g     F .text	0000000000000003              _ZN50_$LT$u64$u20$as$u20$core..fmt..num..DisplayInt$GT$6to_u3217hfa3ed6409adef7d3E
0000000000518168 g     O .rodata	0000000000000004              system__os_lib__invalid_pid
00000000004e4850 g     F .text	000000000000001b              __gnat_is_read_accessible_file
00000000004387e0 g     F .text	0000000000000025              _ZN71_$LT$std..net..parser..AddrParseError$u20$as$u20$core..fmt..Display$GT$3fmt17h5f66b4feb472c37fE
00000000004b7ef0 g     F .text	00000000000000af              _ZN65_$LT$core..hash..sip..SipHasher13$u20$as$u20$core..fmt..Debug$GT$3fmt17h6b5cb03b62cbbd02E
0000000000000000       F *UND*	0000000000000000              memchr@GLIBC_2.2.5
00000000004d91b0 g     F .text	000000000000002d              system__secondary_stack__top_chunk_id
000000000047fc10 g     F .text	0000000000000166              _ZN62_$LT$gimli..constants..DwIdx$u20$as$u20$core..fmt..Display$GT$3fmt17h22b43e49b497aa5cE
0000000000517ca0 g     O .rodata	0000000000000025              system__file_io__file_io_clean_up_typeE15b
000000000043a190 g     F .text	000000000000004c              _ZN3std3net3udp9UdpSocket4peek17hb0277f2d76935bd8E
00000000004aeec0 g     F .text	00000000000000d7              _ZN79_$LT$core..num..nonzero..NonZeroUsize$u20$as$u20$core..str..traits..FromStr$GT$8from_str17h7e07086241c3a807E
00000000004afb00 g     F .text	0000000000000001              _ZN4core5slice29_$LT$impl$u20$$u5b$T$u5d$$GT$22split_at_mut_unchecked8comptime17h9cdd3ff2ac9ec262E
00000000004df280 g     F .text	000000000000049e              system__object_reader__open
00000000004dac40 g     F .text	0000000000000079              system__val_llu__impl__scan_unsigned
00000000004e5540 g     F .text	0000000000000005              __gnat_feof
0000000000000000       F *UND*	0000000000000000              ftello64@GLIBC_2.2.5
00000000004af190 g     F .text	0000000000000048              _ZN79_$LT$core..num..nonzero..NonZeroIsize$u20$as$u20$core..str..traits..FromStr$GT$8from_str17h1ea311ca950467ceE
0000000000481a20 g     F .text	00000000000000be              _ZN67_$LT$gimli..read..cfi..Augmentation$u20$as$u20$core..fmt..Debug$GT$3fmt17h6a172edd8c419775E
00000000004c488e g     F .text	0000000000000077              ada__exceptions__exception_data__append_info_stringXn
0000000000000000  w      *UND*	0000000000000000              cap_get_flag
0000000000000000       F *UND*	0000000000000000              read@GLIBC_2.2.5
000000000043e560 g     F .text	0000000000000003              _ZN87_$LT$std..process..ExitStatusError$u20$as$u20$std..os..unix..process..ExitStatusExt$GT$8into_raw17h7ffe0f10853270f6E
0000000000000000       F *UND*	0000000000000000              __libc_start_main@GLIBC_2.2.5
0000000000516aa0 g     O .rodata	000000000000001d              ada__tags__signature_kindS
0000000000800b50 g     O .data	0000000000000008              __gnat_library_template
0000000000493260 g     F .text	0000000000000091              _ZN62_$LT$miniz_oxide..StreamResult$u20$as$u20$core..fmt..Debug$GT$3fmt17hf0261cf9ba127c67E
00000000004dd3c0 g     F .text	0000000000000001              system__object_reader__pecoff_ops__Tmagic_arrayBIPXn
0000000000438870 g     F .text	0000000000000021              _ZN3std3net11socket_addr10SocketAddr2ip17h000798bb1a431153E
00000000004c8440 g     F .text	00000000000000e0              ada__strings__maps__to_ranges
00000000004e5a10 g     F .text	0000000000000005              __gnat_ttyname
0000000000443600 g     F .text	000000000000005e              _ZN63_$LT$std..sync..once..OnceState$u20$as$u20$core..fmt..Debug$GT$3fmt17h45c2d074d00797c8E
0000000000000000       F *UND*	0000000000000000              memcmp@GLIBC_2.2.5
00000000004acda0 g     F .text	000000000000002d              _ZN4core3num6bignum5tests6Big8x36digits17h9710eedba33711daE
00000000004d5020 g     F .text	00000000000001a9              system__os_lib__locate_exec_on_path
0000000000000000       F *UND*	0000000000000000              mkstemp64@GLIBC_2.2.5
0000000000000000       F *UND*	0000000000000000              pthread_attr_init@GLIBC_2.2.5
00000000004c4320 g     F .text	0000000000000036              .hidden _ZN4core3fmt10ArgumentV19new_debug17he6d08431bc98536dE
00000000004bbd70 g     F .text	0000000000000044              _ZN65_$LT$core..core_arch..simd..f32x2$u20$as$u20$core..fmt..Debug$GT$3fmt17ha30e78ce1c89ef6dE
0000000000464de0 g     F .text	0000000000000043              _ZN86_$LT$object..read..pe..data_directory..DataDirectories$u20$as$u20$core..fmt..Debug$GT$3fmt17h304a6bbc04e521ffE
00000000004dcc20 g     F .text	00000000000000f0              system__object_reader__xcoff32_ops__read_symbolXn
000000000043e620 g     F .text	0000000000000003              _ZN107_$LT$std..sys..unix..fs..File$u20$as$u20$std..sys_common..FromInner$LT$std..sys..unix..fd..FileDesc$GT$$GT$10from_inner17heae3eb9079e65cc8E
00000000004ca2c0 g     F .text	000000000000000a              ada__tags___elabs
0000000000000000       F *UND*	0000000000000000              fgets@GLIBC_2.2.5
000000000047f290 g     F .text	0000000000000029              _ZN61_$LT$gimli..constants..DwLang$u20$as$u20$core..fmt..Debug$GT$3fmt17he4c5ac2c86ce2902E
00000000004a0960 g     F .text	0000000000000006              _ZN4core3ffi5c_str21FromBytesWithNulError12interior_nul17h9fe1ac60cd54db7aE
00000000004e5110 g     F .text	000000000000000e              __gnat_lseek
00000000004b39a0 g     F .text	00000000000000ad              _ZN4core3fmt3num3imp51_$LT$impl$u20$core..fmt..Display$u20$for$u20$i8$GT$3fmt17hbf40b44a8c529ba7E
00000000004cbe60 g     F .text	0000000000000097              ada__text_io__get_immediate__2
00000000004c60e2 g     F .text	000000000000000e              __gnat_rcheck_PE_Overlaid_Controlled_Object
00000000004a5230 g     F .text	0000000000000038              _ZN57_$LT$core..fmt..Formatter$u20$as$u20$core..fmt..Write$GT$9write_fmt17hd8f023e11df7d385E
00000000004e5590 g     F .text	0000000000000008              __gnat_constant_stdout
0000000000448e30 g     F .text	000000000000004f              _ZN55_$LT$std..net..Shutdown$u20$as$u20$core..fmt..Debug$GT$3fmt17hfebba438351ec251E
000000000047f870 g     F .text	0000000000000029              _ZN60_$LT$gimli..constants..DwInl$u20$as$u20$core..fmt..Debug$GT$3fmt17h436b3c46c25e142dE
00000000004af100 g     F .text	0000000000000038              _ZN77_$LT$core..num..nonzero..NonZeroI16$u20$as$u20$core..str..traits..FromStr$GT$8from_str17h47a44057d475c94aE
000000000043b1c0 g     F .text	0000000000000008              _ZN69_$LT$std..fs..Metadata$u20$as$u20$std..os..linux..fs..MetadataExt$GT$13st_ctime_nsec17hed02659545c31257E
0000000000463400 g     F .text	0000000000000008              _ZN89_$LT$object..pe..ImageThunkData64$u20$as$u20$object..read..pe..import..ImageThunkData$GT$10is_ordinal17had2869964fd47af4E
0000000000489370 g     F .text	0000000000000052              _ZN14rustc_demangle12try_demangle17hc6f2e8e224d8d274E
0000000000498b20 g     F .text	000000000000003a              _ZN4core3f6421_$LT$impl$u20$f64$GT$13classify_bits17h697d52a6b8723625E
000000000049f9d0 g     F .text	000000000000000d              _ZN55_$LT$core..fmt..Error$u20$as$u20$core..error..Error$GT$11description17h479cd0cace839c16E
000000000043b190 g     F .text	0000000000000005              _ZN69_$LT$std..fs..Metadata$u20$as$u20$std..os..linux..fs..MetadataExt$GT$8st_mtime17h170390b108f142d9E
00000000004e43a0 g     F .text	0000000000000021              __gnat_file_length
00000000004390f0 g     F .text	0000000000000006              _ZN77_$LT$std..net..socket_addr..SocketAddrV6$u20$as$u20$core..cmp..PartialOrd$GT$11partial_cmp17h88ae7f0fa5e33690E
0000000000433b30 g     F .text	0000000000000010              _ZN57_$LT$std..io..stdio..Stderr$u20$as$u20$std..io..Write$GT$5flush17heb55a20835269244E
0000000000441de0 g     F .text	000000000000011c              _ZN3std7process7Command9env_clear17h45bf535e87eaf479E
000000000043e640 g     F .text	000000000000006b              _ZN3std2os2fd5owned7OwnedFd9try_clone17h219a30ab8ad72152E
00000000004c52f6 g     F .text	0000000000000020              ada__exceptions__stream_attributes__string_to_eidXn
0000000000000000       F *UND*	0000000000000000              __tls_get_addr@GLIBC_2.3
0000000000465150 g     F .text	0000000000000091              _ZN85_$LT$object..read..pe..relocation..RelocationIterator$u20$as$u20$core..fmt..Debug$GT$3fmt17hf3198e84a84eb210E
0000000000431300 g     F .text	0000000000000003              _ZN60_$LT$std..io..stdio..StderrRaw$u20$as$u20$std..io..Write$GT$5flush17hb2782e0a1739d1abE
00000000004d94a0 g     F .text	0000000000000061              system__soft_links___elabs
0000000000469d60 g     F .text	00000000000000c7              _ZN75_$LT$object..pe..ImageDynamicRelocation32V2$u20$as$u20$core..fmt..Debug$GT$3fmt17h8f1634b7eefbdeedE
000000000043b120 g     F .text	0000000000000005              _ZN69_$LT$std..fs..Metadata$u20$as$u20$std..os..linux..fs..MetadataExt$GT$8st_nlink17he0aefb61c2ca659bE
0000000000800bd0 g     O .data	0000000000000002              system__val_lli_E
000000000049f960 g     F .text	0000000000000002              _ZN4core3cmp5impls50_$LT$impl$u20$core..cmp..Ord$u20$for$u20$$u21$$GT$3cmp17h2d7d76dca1d5cd31E
00000000004dc200 g     F .text	0000000000000008              system__object_reader__object_fileD2
00000000004b16f0 g     F .text	0000000000000003              _ZN52_$LT$isize$u20$as$u20$core..fmt..num..DisplayInt$GT$4zero17he2743f2397f1b386E
00000000005198c0 g     O .rodata	0000000000000010              system__mmap__os_interface__invalid_system_mapping
0000000000481d00 g     F .text	000000000000009e              _ZN80_$LT$gimli..read..abbrev..AttributeSpecification$u20$as$u20$core..fmt..Debug$GT$3fmt17h1013eeecffa51d93E
000000000044a7e0 g     F .text	0000000000000041              _ZN75_$LT$std..sys..unix..net..Socket$u20$as$u20$std..os..fd..raw..FromRawFd$GT$11from_raw_fd17h47f46a277c6e3cb1E
0000000000432e70 g     F .text	00000000000001d7              _ZN61_$LT$$RF$std..io..stdio..Stdout$u20$as$u20$std..io..Write$GT$9write_fmt17ha58101e9ec661accE
00000000004caf10 g     F .text	0000000000000012              ada__text_io__get__4
0000000000517350 g     O .rodata	0000000000000004              interfaces__c__char32_nul
0000000000804600 g     O .bss	0000000000000180              system__traceback__symbolic__exec_module
0000000000449710 g     F .text	000000000000006e              _ZN71_$LT$std..sync..mpmc..array..ArrayToken$u20$as$u20$core..fmt..Debug$GT$3fmt17h97b443c474b5d732E
0000000000494270 g     F .text	0000000000000010              _ZN78_$LT$libc..unix..linux_like..linux..nlmsgerr$u20$as$u20$core..clone..Clone$GT$5clone17ha4318ce6a8ee2bb9E
00000000004ce5a0 g     F .text	00000000000000ff              interfaces__c__to_ada__11
00000000004edb04 g     O .rodata	0000000000000004              interfaces__cS
0000000000431300 g     F .text	0000000000000003              _ZN60_$LT$std..io..stdio..StdoutRaw$u20$as$u20$std..io..Write$GT$5flush17ha6760ddfec5d5a24E
0000000000433410 g     F .text	00000000000002cf              _ZN61_$LT$std..io..stdio..StdoutLock$u20$as$u20$std..io..Write$GT$9write_all17h38f6df27e9d7541cE
00000000004eda90 g     O .rodata	0000000000000004              system__exception_tableB
00000000004a5fa0 g     F .text	0000000000000010              _ZN57_$LT$core..fmt..Formatter$u20$as$u20$core..fmt..Write$GT$10write_char17h28824318c319f433E
00000000005164c0 g     O .rodata	0000000000000004              ada__strings__alignmentN
00000000004b1b40 g     F .text	0000000000000082              _ZN4core3fmt3num49_$LT$impl$u20$core..fmt..Octal$u20$for$u20$i8$GT$3fmt17hc7d4c10f83277090E
0000000000000000       F *UND*	0000000000000000              getsockopt@GLIBC_2.2.5
00000000004988f0 g     F .text	00000000000000c5              _ZN4core3f3221_$LT$impl$u20$f32$GT$7to_bits13ct_f32_to_u3217hfbb7dd0066e4d43dE
00000000004c480e g     F .text	0000000000000062              ada__exceptions__exception_data__append_info_natXn
00000000004e5a20 g     F .text	000000000000014f              getc_immediate_common
000000000044d700 g     F .text	00000000000000af              _ZN89_$LT$std..sys..unix..os..SplitPaths$u20$as$u20$core..iter..traits..iterator..Iterator$GT$4next17h2b4c8a6397aeb7b9E
000000000042eda0 g     F .text	0000000000000004              _ZN105_$LT$std..fs..DirBuilder$u20$as$u20$std..sys_common..AsInnerMut$LT$std..sys..unix..fs..DirBuilder$GT$$GT$12as_inner_mut17h761ce8f91317a8bcE
00000000004defd0 g     F .text	00000000000002aa              system__object_reader__elf32_ops__initializeXn
0000000000427fb0 g     F .text	0000000000001be6              _ZN3std6thread21available_parallelism17h52a43f7acdbe99cbE
0000000000493990 g     F .text	0000000000000012              _ZN60_$LT$libc..unix..itimerval$u20$as$u20$core..clone..Clone$GT$5clone17ha3bc5e547e9d827bE
00000000004c6e00 g     F .text	0000000000000006              ada__finalization___size__3
00000000004e4c30 g     F .text	0000000000000005              __gnat_dup
0000000000515e68 g     O .rodata	0000000000000008              ada__finalization__controlledP
0000000000516fa8 g     O .rodata	0000000000000008              ada__text_io__in_name
0000000000494110 g     F .text	0000000000000010              _ZN85_$LT$libc..unix..linux_like..linux..uinput_ff_erase$u20$as$u20$core..clone..Clone$GT$5clone17hea3b98906acf7d2fE
00000000004b4700 g     F .text	0000000000000023              _ZN4core3fmt3num3imp53_$LT$impl$u20$core..fmt..UpperExp$u20$for$u20$i64$GT$3fmt17ha19fbb4b5678a9bbE
000000000047dde0 g     F .text	0000000000000029              _ZN59_$LT$gimli..constants..DwAt$u20$as$u20$core..fmt..Debug$GT$3fmt17hcfc03c058e8dbeafE
00000000004af2d0 g     F .text	000000000000000e              _ZN4core3num22_$LT$impl$u20$u128$GT$14from_str_radix17h9aa4ca2bbd2d5a03E
00000000004e3f30 g     F .text	0000000000000006              __gnat_get_env_vars_case_sensitive
0000000000800690 g     O .data	0000000000000010              ada__text_io__err_name___UNC
0000000000499da0 g     F .text	000000000000005c              _ZN4core3num9diy_float2Fp3mul17hb95c600f56877321E
00000000004dc950 g     F .text	000000000000029a              system__object_reader__pecoff_ops__read_symbolXn
0000000000803920 g     O .bss	0000000000000020              ada__strings__maps__constants__special_set
0000000000515de0 g     O .rodata	0000000000000058              ada__finalization__controlledB40s
000000000043e620 g     F .text	0000000000000003              _ZN105_$LT$std..os..linux..process..PidFd$u20$as$u20$core..convert..From$LT$std..os..fd..owned..OwnedFd$GT$$GT$4from17ha812583e52af9b78E
000000000049f990 g     F .text	0000000000000032              _ZN78_$LT$core..error..Source$u20$as$u20$core..iter..traits..iterator..Iterator$GT$4next17hcc9c26ffd5b1e41aE
0000000000800400 g     O .data	0000000000000028              ada__io_exceptions__use_error
00000000004b8850 g     F .text	00000000000000af              _ZN74_$LT$core..str..iter..SplitAsciiWhitespace$u20$as$u20$core..fmt..Debug$GT$3fmt17h7763e7446d0aac7bE
0000000000465260 g     F .text	0000000000000043              _ZN82_$LT$object..read..pe..resource..ResourceDirectory$u20$as$u20$core..fmt..Debug$GT$3fmt17hbb3b9da70f2202b8E
0000000000448270 g     F .text	0000000000000055              _ZN65_$LT$std..backtrace_rs..Bomb$u20$as$u20$core..ops..drop..Drop$GT$4drop17h2482975a5454b798E
000000000080c7e0 g     O .bss	0000000000000004              __gl_detect_blocking
00000000004485a0 g     F .text	0000000000000029              _ZN54_$LT$std..fs..FileType$u20$as$u20$core..fmt..Debug$GT$3fmt17h774ed91ed122e3f5E
0000000000498cb0 g     F .text	00000000000000c3              _ZN4core3f6421_$LT$impl$u20$f64$GT$9from_bits13ct_u64_to_f6417h2996ff55ec4e095eE
00000000004eda9c g     O .rodata	0000000000000004              system__soft_linksS
00000000004d1af0 g     F .text	0000000000000001              system__finalization_root__root_controlledSR
0000000000427f00 g     F .text	000000000000000c              _ZN3std6thread6Thread5cname17h5727e9b9c953983eE
00000000004716f0 g     F .text	0000000000000061              _ZN79_$LT$memchr..memmem..rarebytes..RareNeedleBytes$u20$as$u20$core..fmt..Debug$GT$3fmt17h6655067f25de2479E
00000000008005c0 g     O .data	0000000000000028              ada__strings__length_error
0000000000518568 g     O .rodata	0000000000000004              system__traceback__symbolic__init_stateN
0000000000517158 g     O .rodata	0000000000000008              ada__text_io__status_error
00000000004c93d0 g     F .text	000000000000001e              ada__tags__base_address
00000000004d8c30 g     F .text	0000000000000001              system__secondary_stack__chunk_memoryIP
0000000000471990 g     F .text	000000000000004f              _ZN75_$LT$memchr..memmem..twoway..SuffixOrdering$u20$as$u20$core..fmt..Debug$GT$3fmt17h4a656a1c24dfe09fE
00000000004edc00 g     O .rodata	0000000000000004              ada__strings__utf_encoding__wide_stringsS
000000000051a240 g     O .rodata	0000000000000031              system__exception_traces__trace_kindS
000000000042d420 g     F .text	000000000000006b              _ZN3std2os4unix3net8listener12UnixListener9try_clone17h8737ddda4b8b84e9E
00000000004d03f0 g     F .text	000000000000002d              system__file_io__check_write_status
000000000042e8b0 g     F .text	0000000000000004              _ZN98_$LT$std..fs..DirEntry$u20$as$u20$std..sys_common..AsInner$LT$std..sys..unix..fs..DirEntry$GT$$GT$8as_inner17hbbea6f11dff94f8aE
0000000000469e30 g     F .text	00000000000000d2              _ZN75_$LT$object..pe..ImageDynamicRelocation64V2$u20$as$u20$core..fmt..Debug$GT$3fmt17h558d9a05351a1012E
00000000007fda78 g     O .data.rel.ro	0000000000000008              _ZN4core3fmt12USIZE_MARKER17hba5e8ea95768cef7E
000000000043ad40 g     F .text	000000000000003d              _ZN3std3net3udp9UdpSocket21set_multicast_loop_v617hf122a49a1ea7bcfdE
00000000004d1750 g     F .text	000000000000007c              system__file_io__read_buf
00000000004a0e20 g     F .text	0000000000000038              _ZN64_$LT$core..ffi..c_str..CStr$u20$as$u20$core..cmp..PartialOrd$GT$11partial_cmp17h167e5d84ec7b6aafE
00000000004495b0 g     F .text	0000000000000029              _ZN61_$LT$std..process..ExitStatus$u20$as$u20$core..fmt..Debug$GT$3fmt17h09fcb40448755f2fE
0000000000471760 g     F .text	0000000000000029              _ZN68_$LT$memchr..memmem..twoway..Forward$u20$as$u20$core..fmt..Debug$GT$3fmt17hf848564a55fc0df5E
00000000004d08a0 g     F .text	0000000000000046              system__file_io__flush
0000000000446fa0 g     F .text	0000000000000016              _ZN3std9panicking11panic_count9get_count17h5377a42aafbe2594E
00000000004942d0 g     F .text	0000000000000012              _ZN76_$LT$libc..unix..linux_like..linux..option$u20$as$u20$core..clone..Clone$GT$5clone17h6c51e05cc81dcd22E
0000000000494d80 g     F .text	000000000000000a              _ZN66_$LT$libc..unix..align..in6_addr$u20$as$u20$core..clone..Clone$GT$5clone17hf8bbf114190dc254E
00000000004a52e0 g     F .text	000000000000000a              _ZN4core3fmt9Formatter9alternate17h7efd71e8863322ddE
000000000043af00 g     F .text	000000000000004b              _ZN3std3net3udp9UdpSocket18leave_multicast_v617hf9aa850f2bb91117E
00000000004d8b60 g     F .text	0000000000000021              system__put_images__put_arrow
0000000000432870 g     F .text	0000000000000038              _ZN57_$LT$std..io..stdio..Stdout$u20$as$u20$std..io..Write$GT$9write_fmt17h0ab982805d41b65fE
00000000004d8a10 g     F .text	0000000000000031              system__put_images__array_after
00000000004dd500 g     F .text	0000000000000005              system__object_reader__arch
000000000042c7b0 g     F .text	0000000000000021              _ZN3std3ffi6os_str8OsString17into_boxed_os_str17hd72a8d2ed7220a59E
0000000000515d40 g     O .rodata	0000000000000038              ada__finalization__controlledT
00000000004eaeb0 g     F .text	000000000000001c              .hidden _Unwind_GetIPInfo
0000000000000000       F *UND*	0000000000000000              posix_spawnattr_init@GLIBC_2.2.5
0000000000494710 g     F .text	0000000000000012              _ZN91_$LT$libc..unix..linux_like..linux..gnu..sifields_sigchld$u20$as$u20$core..clone..Clone$GT$5clone17h24d5b1d86fa00b2aE
0000000000463c10 g     F .text	000000000000009f              _ZN6object4read9ObjectMap3get17h7a7bddf39eac79ffE
00000000004df720 g     F .text	0000000000000005              system__object_reader__value
0000000000476120 g     F .text	000000000000036f              _ZN5gimli4read5value5Value3div17hf0c2c83d5e075ea4E
00000000004cc390 g     F .text	000000000000000e              ada__text_io__new_line__2
000000000042bef0 g     F .text	000000000000000d              _ZN63_$LT$std..env..JoinPathsError$u20$as$u20$core..error..Error$GT$11description17h9bef5a87fb7cc5a4E
00000000008047c0 g     O .bss	0000000000008000              __gnat_alternate_stack
0000000000519fa0 g     O .rodata	0000000000000100              ada__characters__handling__char_map
0000000000000000       F *UND*	0000000000000000              calloc@GLIBC_2.2.5
000000000049ff00 g     F .text	0000000000000015              _ZN65_$LT$core..cell..BorrowMutError$u20$as$u20$core..fmt..Display$GT$3fmt17h3ef9ffe12ab05f18E
000000000044e150 g     F .text	0000000000000008              _ZN3std3sys4unix6os_str5Slice9empty_box17h8ce40f96d6245c07E
00000000004996d0 g     F .text	0000000000000044              _ZN59_$LT$f32$u20$as$u20$core..num..dec2flt..float..RawFloat$GT$14integer_decode17h1080ce7d89e69b9cE
00000000004cca90 g     F .text	000000000000000e              ada__text_io__page_length
00000000004af290 g     F .text	000000000000000a              _ZN4core3num20_$LT$impl$u20$u8$GT$14from_str_radix17h98c28d945201054cE
000000000049f960 g     F .text	0000000000000002              _ZN60_$LT$core..convert..Infallible$u20$as$u20$core..cmp..Ord$GT$3cmp17h4e7f837cc6081e5fE
00000000004340d0 g     F .text	0000000000000104              _ZN61_$LT$$RF$std..io..stdio..Stderr$u20$as$u20$std..io..Write$GT$9write_all17h724a79a214289b1dE
00000000004ab4f0 g     F .text	000000000000003f              _ZN50_$LT$u32$u20$as$u20$core..num..bignum..FullOps$GT$12full_div_rem17h5f67640d1cdf4ebaE
00000000004d9040 g     F .text	0000000000000013              system__secondary_stack__ss_get_max
0000000000000000       F *UND*	0000000000000000              putenv@GLIBC_2.2.5
00000000004d5fb0 g     F .text	000000000000011e              system__os_lib__setenv
000000000043df30 g     F .text	0000000000000049              _ZN72_$LT$std..os..unix..net..stream..UnixStream$u20$as$u20$std..io..Read$GT$4read17h864c358e90827f4dE
00000000004327b0 g     F .text	000000000000002c              _ZN59_$LT$std..io..stdio..Stdout$u20$as$u20$core..fmt..Debug$GT$3fmt17h620cef2ceed503feE
0000000000493bc0 g     F .text	0000000000000028              _ZN69_$LT$libc..unix..linux_like..arpreq$u20$as$u20$core..clone..Clone$GT$5clone17h670d468f4a0a750dE
00000000004edaf8 g     O .rodata	0000000000000004              ada__exceptions__tracebackS
0000000000516410 g     O .rodata	000000000000001d              ada__streams__root_stream_typeE24s
00000000004bbdc0 g     F .text	00000000000000bd              _ZN65_$LT$core..core_arch..simd..f64x1$u20$as$u20$core..fmt..Debug$GT$3fmt17hee3d13ab9953c675E
0000000000800240 g       .data	0000000000000000              __data_start
0000000000518164 g     O .rodata	0000000000000004              system__os_lib__temp_file_name_last_digit
00000000004b4c10 g     F .text	0000000000000019              _ZN53_$LT$core..fmt..Error$u20$as$u20$core..fmt..Debug$GT$3fmt17h5e2054c8512fc94fE
00000000004e51e0 g     F .text	000000000000000d              __gnat_cpu_zero
00000000004c44d4 g     F .text	0000000000000085              ada__exceptions__exception_data__append_info_addressXn
00000000004a5230 g     F .text	0000000000000038              _ZN4core3fmt9Formatter9write_fmt17hee7adf1ff5379741E
000000000044d850 g     F .text	000000000000000d              _ZN73_$LT$std..sys..unix..os..JoinPathsError$u20$as$u20$core..error..Error$GT$11description17hf19870802e5adb30E
00000000004b2190 g     F .text	0000000000000085              _ZN4core3fmt3num53_$LT$impl$u20$core..fmt..Binary$u20$for$u20$usize$GT$3fmt17h8aad269dc933abfdE
0000000000516820 g     O .rodata	000000000000002a              ada__strings__text_buffers__root_buffer_typeE14s
00000000004de6f0 g     F .text	000000000000002a              system__object_reader__next_symbol
00000000004a0650 g     F .text	0000000000000029              _ZN82_$LT$core..char..ToLowercase$u20$as$u20$core..iter..traits..iterator..Iterator$GT$9size_hint17h804d74bd5841185bE
00000000004dc3c0 g     F .text	000000000000000c              system__object_reader__pecoff_object_filePredicate
000000000043b220 g     F .text	0000000000000010              _ZN68_$LT$std..fs..FileType$u20$as$u20$std..os..unix..fs..FileTypeExt$GT$9is_socket17hd006f671325b2a07E
00000000004715b0 g     F .text	0000000000000026              _ZN73_$LT$memchr..memmem..prefilter..Prefilter$u20$as$u20$core..fmt..Debug$GT$3fmt17h4715466e11178f4cE
00000000004d1b40 g     F .text	0000000000000013              system__finalization_root__adjust
000000000080070e g     O .data	0000000000000002              system__exceptions_debug_E
00000000004ced00 g     F .text	000000000000018e              interfaces__c__to_c__8
00000000004e2950 g     F .text	000000000000008a              system__mmap__open_read
0000000000481ae0 g     F .text	0000000000000043              _ZN71_$LT$gimli..read..cfi..AugmentationData$u20$as$u20$core..fmt..Debug$GT$3fmt17hc03d00e030ab5ad1E
0000000000452540 g     F .text	000000000000002b              _ZN3std3sys4unix4time8Timespec3new17h2cfc1425a9885954E
00000000004b16a0 g     F .text	0000000000000004              _ZN50_$LT$i32$u20$as$u20$core..fmt..num..DisplayInt$GT$5to_u817hc63f9a98f4e69a56E
00000000004674e0 g     F .text	0000000000000062              _ZN67_$LT$object..pe..ImageDataDirectory$u20$as$u20$core..fmt..Debug$GT$3fmt17h896f9c14c523b627E
000000000049ffb0 g     F .text	000000000000005d              _ZN75_$LT$core..char..decode..DecodeUtf16Error$u20$as$u20$core..fmt..Display$GT$3fmt17h9feda00e7be44b43E
00000000004b4640 g     F .text	0000000000000015              _ZN4core3fmt3num3imp52_$LT$impl$u20$core..fmt..UpperExp$u20$for$u20$u8$GT$3fmt17h460092d19fb67e58E
0000000000471fc0 g     F .text	0000000000000083              _ZN68_$LT$memchr..memmem..SearcherRevKind$u20$as$u20$core..fmt..Debug$GT$3fmt17h6ece84152be675a5E
00000000004c5f42 g     F .text	0000000000000013              __gnat_rcheck_CE_Divide_By_Zero
00000000004e4f70 g     F .text	000000000000006d              __gnat_locate_exec_on_path
0000000000000000       F *UND*	0000000000000000              __fxstat64@GLIBC_2.2.5
00000000004a0600 g     F .text	000000000000004f              _ZN82_$LT$core..char..ToLowercase$u20$as$u20$core..iter..traits..iterator..Iterator$GT$4next17h22fec9ce64a8da6aE
00000000004a54c0 g     F .text	00000000000000e3              _ZN4core3fmt9Formatter26debug_struct_field3_finish17hafb6f7f460dfac84E
00000000004b2070 g     F .text	000000000000008f              _ZN4core3fmt3num53_$LT$impl$u20$core..fmt..LowerHex$u20$for$u20$u32$GT$3fmt17hf7cace0078abea0cE
00000000004edb10 g     O .rodata	0000000000000004              system__bounded_stringsB
0000000000496920 g     F .text	00000000000001e6              _ZN5alloc3fmt6format12format_inner17h54d964747f9c46a0E
000000000042da00 g     F .text	0000000000000003              _ZN48_$LT$std..fs..File$u20$as$u20$std..io..Write$GT$5flush17hb37aca1135381bd1E
00000000004a5a00 g     F .text	00000000000000d3              _ZN4core3fmt9Formatter25debug_tuple_field2_finish17h32640d413efb6efeE
0000000000443f40 g     F .text	0000000000000006              _ZN108_$LT$std..time..SystemTime$u20$as$u20$std..sys_common..FromInner$LT$std..sys..unix..time..SystemTime$GT$$GT$10from_inner17h50b32afa01d4a273E
0000000000450200 g     F .text	0000000000000008              _ZN118_$LT$std..sys..unix..process..process_common..Stdio$u20$as$u20$core..convert..From$LT$std..sys..unix..fs..File$GT$$GT$4from17h893539127cf217c4E
00000000004cbf00 g     F .text	0000000000000045              ada__text_io__has_upper_half_character
0000000000800a58 g     O .data	0000000000000001              system__traceback__symbolic__exec_module_state
00000000004ae2d0 g     F .text	00000000000000dc              _ZN73_$LT$core..num..dec2flt..common..BiasedFp$u20$as$u20$core..fmt..Debug$GT$3fmt17hba6df55f91fd012aE
00000000004a0cb0 g     F .text	0000000000000113              _ZN4core3ffi5c_str4CStr29from_bytes_with_nul_unchecked10const_impl17h3044103a5d288c83E
000000000043dc60 g     F .text	0000000000000028              _ZN3std2os4unix3net8datagram12UnixDatagram8shutdown17h3e11fc0b82b7ba61E
0000000000800628 g     O .data	0000000000000002              ada__strings__utf_encoding_E
00000000004350d0 g     F .text	0000000000000001              _ZN3std3sys4unix5stdio6Stderr3new17h103f5c97a88f8918E
00000000004edbe8 g     O .rodata	0000000000000004              system__soft_links__initializeS
00000000004ac2a0 g     F .text	0000000000000348              _ZN4core3num6bignum8Big32x4010mul_digits17hd23452d3d1cde4a1E
0000000000495f00 g     F .text	0000000000000163              _ZN89_$LT$$RF$mut$u20$$u5b$u8$u5d$$u20$as$u20$alloc..ffi..c_str..CString..new..SpecNewImpl$GT$13spec_new_impl17hdf04b48d30d84809E
00000000004e28b0 g     F .text	000000000000000a              system__dwarf_lines___elabs
0000000000516b80 g     O .rodata	0000000000000013              ada__tags__tag_errorE
00000000004bb8a0 g     F .text	0000000000000044              _ZN65_$LT$core..core_arch..simd..u32x2$u20$as$u20$core..fmt..Debug$GT$3fmt17h3b46593fb3e407a8E
00000000004cd2e0 g     F .text	0000000000000034              ada__text_io__set_line_length__2
00000000004cda60 g     F .text	0000000000000008              ada__text_io__standard_input
0000000000803b20 g     O .bss	0000000000000020              ada__strings__maps__constants__graphic_set
0000000000440b10 g     F .text	000000000000000f              _ZN3std4path4Path11is_absolute17hc0237d8632e486d0E
00000000004b1720 g     F .text	0000000000000004              _ZN50_$LT$i64$u20$as$u20$core..fmt..num..DisplayInt$GT$6to_u1617h7016ae628e4e0681E
00000000004adbc0 g     F .text	000000000000038e              _ZN4core3num6bignum5tests6Big8x37div_rem17h6b4982afcae1b60fE
00000000004e5180 g     F .text	0000000000000006              __gnat_binder_supports_auto_init
0000000000475340 g     F .text	000000000000000b              _ZN74_$LT$gimli..read..lists..ListsHeader$u20$as$u20$core..default..Default$GT$7default17h424a9f1e43d23489E
000000000043e520 g     F .text	0000000000000016              _ZN87_$LT$std..process..ExitStatusError$u20$as$u20$std..os..unix..process..ExitStatusExt$GT$11core_dumped17hcbf80a3b5626157aE
0000000000494bb0 g     F .text	000000000000003a              _ZN97_$LT$libc..unix..linux_like..linux..gnu..b64..x86_64..statvfs64$u20$as$u20$core..clone..Clone$GT$5clone17hc898ee518c913302E
00000000004d5e70 g     F .text	0000000000000093              system__os_lib__set_readable
000000000046af70 g     F .text	0000000000000062              _ZN79_$LT$object..pe..ImageArm64RuntimeFunctionEntry$u20$as$u20$core..fmt..Debug$GT$3fmt17h3331ca2051776a4dE
0000000000468bd0 g     F .text	00000000000000e4              _ZN79_$LT$object..pe..ImageAuxSymbolFunctionBeginEnd$u20$as$u20$core..fmt..Debug$GT$3fmt17h5fb7fa1c137ce84eE
00000000004424c0 g     F .text	0000000000000067              _ZN68_$LT$std..process..ExitStatusError$u20$as$u20$core..fmt..Display$GT$3fmt17h5a043a4b9cae8a56E
00000000004d8640 g     F .text	0000000000000025              system__put_images__put_image_access_subp
0000000000446010 g     F .text	0000000000000008              _ZN3std5alloc20set_alloc_error_hook17h3ff8c7d97a86494bE
0000000000000000       F *UND*	0000000000000000              signal@GLIBC_2.2.5
00000000004cdc80 g     F .text	000000000000008b              ada__text_io___elabb
00000000004b1740 g     F .text	0000000000000004              _ZN52_$LT$isize$u20$as$u20$core..fmt..num..DisplayInt$GT$6to_u6417hd24ede35e4b6cf61E
00000000004d8f20 g     F .text	0000000000000011              system__secondary_stack__has_enough_free_memory
00000000004d5a40 g     F .text	0000000000000011              system__os_lib__read
00000000004ad160 g     F .text	00000000000000ad              _ZN4core3num6bignum5tests6Big8x39mul_small17h3f270116198d8699E
0000000000443b60 g     F .text	0000000000000074              _ZN3std4time7Instant11checked_add17h91795acd4bffeff6E
00000000004aec50 g     F .text	0000000000000001              _ZN4core3num7nonzero12NonZeroIsize13new_unchecked8comptime17h1701a39ff28e2bd0E
000000000043d760 g     F .text	00000000000000a3              _ZN3std3net3udp9UdpSocket16set_read_timeout17hdecca90ea0020b8dE
0000000000494730 g     F .text	0000000000000004              _ZN4libc4unix10linux_like5linux3gnu76_$LT$impl$u20$libc..unix..linux_like..linux..gnu..b64..x86_64..siginfo_t$GT$6si_pid17h464bb4fd59ed21d2E
0000000000467550 g     F .text	0000000000000433              _ZN70_$LT$object..pe..ImageOptionalHeader32$u20$as$u20$core..fmt..Debug$GT$3fmt17h082c33d103c62689E
0000000000495470 g     F .text	000000000000006d              _ZN67_$LT$alloc..boxed..Box$LT$str$GT$$u20$as$u20$core..clone..Clone$GT$5clone17hc0dc5f77b3622590E
00000000004430f0 g     F .text	0000000000000003              _ZN107_$LT$std..sync..mpsc..RecvTimeoutError$u20$as$u20$core..convert..From$LT$std..sync..mpsc..RecvError$GT$$GT$4from17h674fb16d1dbf9305E
00000000004b13f0 g     F .text	0000000000000031              _ZN4core3fmt5float53_$LT$impl$u20$core..fmt..LowerExp$u20$for$u20$f32$GT$3fmt17h356304c0e6804dc0E
00000000004b15b0 g     F .text	0000000000000003              _ZN49_$LT$i8$u20$as$u20$core..fmt..num..DisplayInt$GT$4zero17h338ac2b936d2b2cbE
00000000004acdd0 g     F .text	0000000000000035              _ZN4core3num6bignum5tests6Big8x37get_bit17hf5b6941733a0d073E
00000000004ddc00 g     F .text	0000000000000076              system__object_reader__elf32_ops__name__2Xn
0000000000000000       F *UND*	0000000000000000              dirfd@GLIBC_2.2.5
000000000042f950 g     F .text	0000000000000039              _ZN3std2io5error14repr_bitpacked4Repr3new17h233b60f119175bceE
00000000004dd440 g     F .text	0000000000000001              system__object_reader__xcoff32_ops__symbol_entryIPXn
0000000000800ac0 g     O .data	0000000000000028              system__object_reader__io_error
00000000004d1d40 g     F .text	000000000000005c              __gnat_malloc
000000000042dad0 g     F .text	0000000000000089              _ZN51_$LT$$RF$std..fs..File$u20$as$u20$std..io..Read$GT$8read_buf17hbfd393b14c154846E
000000000044a780 g     F .text	0000000000000004              _ZN111_$LT$std..os..linux..process..PidFd$u20$as$u20$std..sys_common..AsInner$LT$std..sys..unix..fd..FileDesc$GT$$GT$8as_inner17hb90f7d5702822470E
0000000000443f50 g     F .text	0000000000000090              _ZN3std3sys6common5alloc16realloc_fallback17h46043c4a84e4dd38E
00000000004bece0 g     F .text	0000000000000231              _ZN65_$LT$core..core_arch..simd..i32x8$u20$as$u20$core..fmt..Debug$GT$3fmt17hca5a599aed5b5d93E
0000000000409c18 g     F .text	0000000000000028              adafinal
000000000046fdc0 g     F .text	000000000000050c              _ZN6memchr6memmem6Finder4find17h8ba925396752a495E
00000000004702f0 g     F .text	00000000000005a5              _ZN6memchr6memmem8Searcher3new17h6a39703dcfbe5e9aE
000000000047a7d0 g     F .text	0000000000000015              _ZN53_$LT$gimli..arch..X86$u20$as$u20$core..fmt..Debug$GT$3fmt17hde0fd5aeb037492fE
00000000004e7de0 g     F .text	0000000000000170              ada__strings__utf_encoding__wide_wide_strings__encode__3
00000000004c6064 g     F .text	000000000000000e              __gnat_rcheck_PE_Bad_Predicated_Generic_Type
00000000004984a0 g     F .text	0000000000000043              _ZN72_$LT$alloc..collections..TryReserveError$u20$as$u20$core..fmt..Debug$GT$3fmt17hc09f1badca60a366E
00000000004dcbf0 g     F .text	000000000000002c              system__object_reader__pecoff_ops__first_symbolXn
00000000004a1900 g     F .text	0000000000000076              _ZN4core3fmt8builders10DebugTuple6finish17hdc5218474a2542c6E
00000000004d8b20 g     F .text	0000000000000031              system__put_images__record_after
0000000000493ee0 g     F .text	0000000000000012              _ZN88_$LT$libc..unix..linux_like..linux..ff_constant_effect$u20$as$u20$core..clone..Clone$GT$5clone17h8103835d98bb43afE
00000000004edb40 g     O .rodata	0000000000000004              system__bit_opsS
000000000043bb90 g     F .text	0000000000000005              _ZN3std2os4unix3net9ancillary15SocketAncillary9truncated17h8bda9e7d66bd1b27E
000000000043b470 g     F .text	0000000000000062              _ZN3std2os4unix3net4addr10SocketAddr11as_pathname17h2b3270aeff84d34fE
00000000004cbce0 g     F .text	0000000000000018              ada__text_io__get_immediate__4
000000000043a380 g     F .text	0000000000000056              _ZN58_$LT$std..net..tcp..TcpStream$u20$as$u20$std..io..Read$GT$13read_vectored17h1db17b9312830947E
0000000000496660 g     F .text	00000000000000a2              _ZN77_$LT$alloc..ffi..c_str..FromVecWithNulError$u20$as$u20$core..fmt..Display$GT$3fmt17hcd2c24a28d12031cE
00000000004cc2a0 g     F .text	0000000000000005              ada__text_io__mode
000000000049fdf0 g     F .text	000000000000005c              _ZN65_$LT$core..ascii..EscapeDefault$u20$as$u20$core..fmt..Display$GT$3fmt17h9b2801f28ed8dca2E
00000000004a8f80 g     F .text	0000000000000009              _ZN4core3str5lossy9Utf8Chunk7invalid17h884e325fa4b0a09eE
00000000004696e0 g     F .text	0000000000000092              _ZN71_$LT$object..pe..ImageBoundForwarderRef$u20$as$u20$core..fmt..Debug$GT$3fmt17h1ff48862a7130af3E
00000000004a9ef0 g     F .text	00000000000000a9              _ZN68_$LT$core..time..Duration$u20$as$u20$core..ops..arith..AddAssign$GT$10add_assign17h14880a8215400bc3E
00000000004980a0 g     F .text	000000000000005e              _ZN60_$LT$alloc..string..String$u20$as$u20$core..clone..Clone$GT$10clone_from17he727f87b4b0a0050E
00000000004424b0 g     F .text	0000000000000003              _ZN78_$LT$std..os..linux..process..PidFd$u20$as$u20$std..os..fd..raw..IntoRawFd$GT$11into_raw_fd17h1078b675a14fa61dE
00000000004c584e g     F .text	0000000000000073              ada__exceptions__exception_name
0000000000493c40 g     F .text	0000000000000010              _ZN74_$LT$libc..unix..linux_like..epoll_event$u20$as$u20$core..clone..Clone$GT$5clone17h0f79a7c6cd75fc3fE
00000000004495e0 g     F .text	0000000000000029              _ZN66_$LT$std..process..ExitStatusError$u20$as$u20$core..fmt..Debug$GT$3fmt17he8b610d4992faac7E
00000000004a6470 g     F .text	0000000000000012              _ZN42_$LT$str$u20$as$u20$core..fmt..Display$GT$3fmt17h2ed7c33cf5accbe1E
0000000000493910 g     F .text	0000000000000010              _ZN60_$LT$libc..unix..ipv6_mreq$u20$as$u20$core..clone..Clone$GT$5clone17h00ce06c7915259c7E
0000000000800b58 g     O .data	0000000000000001              __gnat_path_separator
00000000004acd20 g     F .text	000000000000007b              _ZN4core3num6bignum5tests6Big8x38from_u6417h5bb19792320e9b88E
000000000046b0b0 g     F .text	00000000000000c7              _ZN79_$LT$object..pe..ImageAlphaRuntimeFunctionEntry$u20$as$u20$core..fmt..Debug$GT$3fmt17h03cfc9e983e46b84E
00000000004e3bb0 g     F .text	000000000000007a              get_encoding
00000000004e59f0 g     F .text	0000000000000001              __gnat_set_text_mode
00000000004cb1a0 g     F .text	000000000000057d              ada__text_io__get_upper_half_char
0000000000441fd0 g     F .text	0000000000000155              _ZN3std7process7Command6status17h2b376f8625e77f08E
0000000000431c50 g     F .text	0000000000000015              _ZN59_$LT$std..io..stdio..StdinLock$u20$as$u20$std..io..Read$GT$4read17hba26a98a85007fcdE
0000000000477b70 g     F .text	00000000000001e4              _ZN61_$LT$gimli..common..SectionId$u20$as$u20$core..fmt..Debug$GT$3fmt17hcd80b7213fabf6ffE
0000000000489430 g     F .text	0000000000000176              _ZN63_$LT$rustc_demangle..Demangle$u20$as$u20$core..fmt..Display$GT$3fmt17h03d5c523b445daaaE
00000000004390b0 g     F .text	0000000000000036              _ZN77_$LT$std..net..socket_addr..SocketAddrV4$u20$as$u20$core..cmp..PartialOrd$GT$11partial_cmp17h31c9e8a3864c91f6E
00000000004a5ee0 g     F .text	0000000000000035              _ZN4core3fmt9Formatter10debug_list17hfb1307c2bb0dcc87E
0000000000452e50 g     F .text	0000000000000071              _ZN3std3sys4unix5locks13futex_condvar7Condvar12wait_timeout17he18b616150bc7536E
0000000000800898 g     O .data	0000000000000008              system__soft_links__abort_handler
0000000000465320 g     F .text	0000000000000058              _ZN91_$LT$object..read..pe..resource..ResourceDirectoryEntryData$u20$as$u20$core..fmt..Debug$GT$3fmt17hdf4cac1b20758e2cE
00000000004dae30 g     F .text	00000000000000fa              system__val_util__normalize_string
000000000042dfc0 g     F .text	0000000000000004              _ZN107_$LT$std..fs..OpenOptions$u20$as$u20$std..sys_common..AsInnerMut$LT$std..sys..unix..fs..OpenOptions$GT$$GT$12as_inner_mut17hea7c1584d29f4728E
000000000043d9c0 g     F .text	00000000000000f7              _ZN3std2os4unix3net8datagram12UnixDatagram13write_timeout17hadbddd45c05305cdE
0000000000468140 g     F .text	00000000000000bd              _ZN53_$LT$object..pe..Guid$u20$as$u20$core..fmt..Debug$GT$3fmt17h19dfd3aa53de0aadE
00000000004ab360 g     F .text	0000000000000019              _ZN62_$LT$core..alloc..AllocError$u20$as$u20$core..fmt..Display$GT$3fmt17h59b6a22b1232c4c4E
00000000004ce770 g     F .text	000000000000017d              interfaces__c__to_c__2
00000000004e6b20 g     F .text	0000000000000003              ada__characters__handling__is_mark
0000000000452ef0 g     F .text	000000000000004f              _ZN89_$LT$std..sys..unix..process..process_common..ProgramKind$u20$as$u20$core..fmt..Debug$GT$3fmt17hecfeec0bf0afa599E
0000000000431500 g     F .text	000000000000004e              _ZN3std2io5stdio5Stdin4lock17hf7f1ad4c485d5653E
0000000000434770 g     F .text	000000000000003c              _ZN61_$LT$std..io..stdio..StderrLock$u20$as$u20$std..io..Write$GT$5flush17he9bc9e61fc204242E
00000000004c5b54 g     F .text	0000000000000222              __gnat_raise_from_controlled_operation
0000000000446200 g     F .text	0000000000000093              .hidden __rdl_realloc
00000000004cded0 g     F .text	0000000000000001              interfaces__c__char16_arrayIP
000000000044a2b0 g     F .text	0000000000000005              _ZN136_$LT$std..sys..unix..fs..FileAttr$u20$as$u20$std..sys_common..AsInner$LT$libc..unix..linux_like..linux..gnu..b64..x86_64..stat64$GT$$GT$8as_inner17h285010d6760a71baE
0000000000494280 g     F .text	0000000000000008              _ZN80_$LT$libc..unix..linux_like..linux..ff_trigger$u20$as$u20$core..clone..Clone$GT$5clone17hf6268ad92ad25e4eE
0000000000440670 g     F .text	00000000000001a3              _ZN3std4path7PathBuf14_set_file_name17h516f0ae997e39831E
000000000044d060 g     F .text	0000000000000204              _ZN3std3sys4unix11kernel_copy15sendfile_splice17h5330dd2d72453052E
00000000004eaf50 g     F .text	0000000000000114              .hidden __frame_state_for
00000000004dd420 g     F .text	0000000000000001              system__object_reader__xcoff32_ops__auxiliary_headerIPXn
000000000049d540 g     F .text	00000000000001da              _ZN4core3num7flt2dec17digits_to_exp_str17h49c4c665a78fbcdaE
0000000000800980 g     O .data	0000000000000028              program_error
0000000000000000       F *UND*	0000000000000000              fprintf@GLIBC_2.2.5
0000000000441b40 g     F .text	0000000000000004              _ZN119_$LT$std..process..Child$u20$as$u20$std..sys_common..AsInner$LT$std..sys..unix..process..process_inner..Process$GT$$GT$8as_inner17h41192c674b151e01E
00000000004d8c90 g     F .text	0000000000000005              system__secondary_stack__stack_pointer_infoIP
000000000047f600 g     F .text	00000000000000f8              _ZN61_$LT$gimli..constants..DwCc$u20$as$u20$core..fmt..Display$GT$3fmt17hf8e532868b9c0facE
000000000042dd80 g     F .text	0000000000000059              _ZN52_$LT$$RF$std..fs..File$u20$as$u20$std..io..Write$GT$14write_vectored17h94a49e886d014f9dE
00000000004e5700 g     F .text	0000000000000005              __gnat_unsetenv
0000000000800a29 g     O .data	0000000000000001              system__standard_library__exception_trace
000000000051a0a8 g     O .rodata	0000000000000001              ada__characters__handling__upper
00000000005174a0 g     O .rodata	0000000000000048              system__file_control_block__afcbT
0000000000463560 g     F .text	0000000000000004              _ZN6object4read2pe10relocation18RelocationIterator4size17h176982aa93cc9f89E
00000000004afb00 g     F .text	0000000000000001              _ZN4core3ops11index_range10IndexRange13new_unchecked8comptime17hfb9de4bcd5210a32E
00000000004bcd70 g     F .text	00000000000003d3              _ZN65_$LT$core..core_arch..simd..m8x16$u20$as$u20$core..fmt..Debug$GT$3fmt17h972b00ea23c09173E
00000000004edb34 g     O .rodata	0000000000000004              ada__strings__mapsB
0000000000000000       F *UND*	0000000000000000              syscall@GLIBC_2.2.5
0000000000441990 g     F .text	00000000000000b7              _ZN3std4path4Path10is_symlink17h1a9a59d6e540e6caE
0000000000000000       F *UND*	0000000000000000              sigemptyset@GLIBC_2.2.5
000000000043a250 g     F .text	000000000000007c              _ZN3std3net3tcp9TcpStream6linger17he1ef0fb608b22f2cE
00000000004a5bd0 g     F .text	00000000000000fd              _ZN4core3fmt9Formatter25debug_tuple_field4_finish17hd12209ee65a228cdE
00000000004d53f0 g     F .text	0000000000000005              system__os_lib__open_append__2
00000000004314d0 g     F .text	0000000000000023              _ZN3std2io5stdio5stdin17hdd1e9d780a25bac9E
000000000044ca00 g     F .text	0000000000000020              _ZN100_$LT$$RF$std..os..unix..net..stream..UnixStream$u20$as$u20$std..sys..unix..kernel_copy..CopyRead$GT$10properties17h3a90e89d1c399f2dE
00000000004bcc40 g     F .text	000000000000006a              _ZN65_$LT$core..core_arch..simd..f32x4$u20$as$u20$core..fmt..Debug$GT$3fmt17h35a7ae684f3ca2b8E
0000000000800a64 g     O .data	0000000000000002              system__wch_stw_E
0000000000443730 g     F .text	000000000000006d              _ZN3std4time7Instant7elapsed17h9450552638a18c97E
0000000000455ba0 g     F .text	0000000000000020              _ZN3std5alloc8rust_oom17h97f1f0d2981c2a82E
00000000004a5320 g     F .text	000000000000002f              _ZN4core3fmt9Formatter12debug_struct17h69ed9375d178bdf2E
00000000004edacc g     O .rodata	0000000000000004              system__img_intS
0000000000467360 g     F .text	0000000000000062              _ZN70_$LT$object..pe..MaskedRichHeaderEntry$u20$as$u20$core..fmt..Debug$GT$3fmt17hc05aff3ba435b20bE
000000000080478c g     O .bss	0000000000000004              __gnat_in_child_after_fork
00000000004b16b0 g     F .text	0000000000000004              _ZN50_$LT$i32$u20$as$u20$core..fmt..num..DisplayInt$GT$6to_u1617h20e6de897b653f93E
00000000004a5350 g     F .text	000000000000009f              _ZN4core3fmt9Formatter26debug_struct_field1_finish17h70b2e214bd002372E
00000000004d1820 g     F .text	0000000000000192              system__file_io__reset
0000000000800a5c g     O .data	0000000000000002              system__val_llu_E
0000000000516760 g     O .rodata	0000000000000058              ada__strings__text_buffers__root_buffer_typeR16s___UNC
0000000000494d20 g     F .text	000000000000000a              _ZN79_$LT$libc..unix..linux_like..linux..can_frame$u20$as$u20$core..clone..Clone$GT$5clone17hc17878ddd625fcfdE
0000000000442550 g     F .text	0000000000000003              _ZN126_$LT$std..process..ExitCode$u20$as$u20$std..sys_common..FromInner$LT$std..sys..unix..process..process_common..ExitCode$GT$$GT$10from_inner17h1b16c5c7eb4c87e0E
000000000042b020 g     F .text	0000000000000382              _ZN3std3env7vars_os17hb5f1e5cebf814e47E
000000000049fda0 g     F .text	0000000000000046              _ZN100_$LT$core..ascii..EscapeDefault$u20$as$u20$core..iter..traits..double_ended..DoubleEndedIterator$GT$9next_back17hf941d9d429c9c0d0E
0000000000494aa0 g     F .text	0000000000000014              _ZN92_$LT$libc..unix..linux_like..linux..gnu..b64..x86_64..user$u20$as$u20$core..clone..Clone$GT$5clone17ha72a088c5ffbb3edE
0000000000441aa0 g     F .text	0000000000000048              _ZN55_$LT$std..path..Display$u20$as$u20$core..fmt..Debug$GT$3fmt17h9d376befd3200e81E
0000000000474f50 g     F .text	000000000000004a              _ZN5gimli4read6abbrev10Attributes3new17h038beafa6f96896eE
0000000000800b6c g     O .data	0000000000000004              __gnat_constant_iolbf
000000000047de10 g     F .text	000000000000031d              _ZN5gimli9constants6DwForm13static_string17he43cb2551089236aE
00000000004ce9f0 g     F .text	0000000000000004              interfaces__c__to_c__4
000000000043a190 g     F .text	000000000000004c              _ZN3std3net3tcp9TcpStream4peek17h746f70fea36a98e8E
00000000004b1430 g     F .text	0000000000000037              _ZN4core3fmt5float53_$LT$impl$u20$core..fmt..UpperExp$u20$for$u20$f32$GT$3fmt17h097664bb2381be7bE
00000000004a6db0 g     F .text	0000000000000073              _ZN4core5slice5ascii30_$LT$impl$u20$$u5b$u8$u5d$$GT$10trim_ascii17ha0165b392bb0953fE
0000000000000000       F *UND*	0000000000000000              feof@GLIBC_2.2.5
0000000000407480 g     F .text	00000000000000d3              _ZN3std3sys4unix5locks12futex_rwlock6RwLock22wake_writer_or_readers17hfb19ac7915c57cb3E
0000000000494cb0 g     F .text	000000000000001a              _ZN84_$LT$libc..unix..linux_like..linux..pthread_cond_t$u20$as$u20$core..clone..Clone$GT$5clone17h390b0a81c79d9c4eE
0000000000497fe0 g     F .text	0000000000000015              _ZN68_$LT$alloc..string..FromUtf16Error$u20$as$u20$core..fmt..Display$GT$3fmt17h218c026f07c3604eE
00000000004b15f0 g     F .text	0000000000000004              _ZN49_$LT$i8$u20$as$u20$core..fmt..num..DisplayInt$GT$6to_u3217haa0e6372abd9153fE
00000000004d8de0 g     F .text	0000000000000039              system__secondary_stack__allocate_on_chunk
00000000004e4080 g     F .text	000000000000001c              __gnat_open_read
00000000004edc38 g     O .rodata	0000000000000004              system__put_imagesS
00000000004ceba0 g     F .text	0000000000000143              interfaces__c__to_c__6
0000000000517ef8 g     O .rodata	0000000000000008              system__finalization_root__root_controlledY
00000000004325e0 g     F .text	00000000000000d4              _ZN62_$LT$std..io..stdio..StdinLock$u20$as$u20$std..io..BufRead$GT$9read_line17h85fecd6964cee5c2E
00000000004c4fd2 g     F .text	0000000000000001              __gnat_begin_handler
0000000000517190 g     O .rodata	0000000000000008              ada__text_io__text_afcbY
00000000004958f0 g     F .text	00000000000001f1              _ZN77_$LT$alloc..borrow..Cow$LT$str$GT$$u20$as$u20$core..ops..arith..AddAssign$GT$10add_assign17h88befabf23693e3aE
000000000043e620 g     F .text	0000000000000003              _ZN110_$LT$std..sys..unix..net..Socket$u20$as$u20$std..sys_common..FromInner$LT$std..sys..unix..fd..FileDesc$GT$$GT$10from_inner17h27ce5663d4b66b33E
00000000004d1b10 g     F .text	0000000000000001              system__finalization_root___assign
00000000004436f0 g     F .text	000000000000003a              _ZN3std4time7Instant22checked_duration_since17h56e8b51a1d48769cE
0000000000468660 g     F .text	000000000000016f              _ZN67_$LT$object..pe..ImageSectionHeader$u20$as$u20$core..fmt..Debug$GT$3fmt17h12ba5b4731acaa64E
0000000000000000  w      *UND*	0000000000000000              __gmon_start__
00000000004e3f40 g     F .text	0000000000000006              __gnat_get_default_identifier_character_set
000000000051a0a7 g     O .rodata	0000000000000001              ada__characters__handling__basic
00000000004a0190 g     F .text	0000000000000144              _ZN84_$LT$core..char..EscapeDefault$u20$as$u20$core..iter..traits..iterator..Iterator$GT$3nth17h73a8e5db38ea0bfcE
0000000000515e70 g     O .rodata	0000000000000008              ada__finalization__limited_controlledY
00000000005175e0 g     O .rodata	0000000000000008              system__file_control_block__afcbP
0000000000498020 g     F .text	0000000000000079              _ZN60_$LT$alloc..string..String$u20$as$u20$core..clone..Clone$GT$5clone17h168055cafced17baE
00000000004d06d0 g     F .text	0000000000000005              system__file_io__file_io_clean_up_typeFD
00000000004e4130 g     F .text	0000000000000024              __gnat_create_output_file_new
0000000000000000       F *UND*	0000000000000000              fopen64@GLIBC_2.2.5
00000000004350d0 g     F .text	0000000000000001              _ZN3std2io4util5empty17hb7a156b58975d8c8E
0000000000430c30 g     F .text	000000000000013a              _ZN60_$LT$std..io..stdio..StdoutRaw$u20$as$u20$std..io..Write$GT$14write_vectored17h5cf72617c74a5f79E
00000000004cab50 g     F .text	0000000000000008              ada__text_io__current_output
0000000000517400 g     O .rodata	0000000000000024              system__exceptions__foreign_exceptionE
00000000004c4110 g     F .text	0000000000000007              _ZN4core9core_simd5masks71_$LT$impl$u20$core..core_simd..masks..sealed..Sealed$u20$for$u20$i8$GT$2eq17h43732ae515d4da2aE
000000000044ca00 g     F .text	0000000000000020              _ZN87_$LT$$RF$std..net..tcp..TcpStream$u20$as$u20$std..sys..unix..kernel_copy..CopyWrite$GT$10properties17h61ef1e60cdd923bfE
000000000043dc60 g     F .text	0000000000000028              _ZN3std2os4unix3net6stream10UnixStream8shutdown17he83b40e455e00bb9E
00000000004943c0 g     F .text	0000000000000022              _ZN77_$LT$libc..unix..linux_like..linux..mq_attr$u20$as$u20$core..clone..Clone$GT$5clone17hf297080130ca0622E
00000000004436a0 g     F .text	000000000000004c              _ZN3std4time7Instant25saturating_duration_since17hdb11139e59e2dd64E
00000000004cc100 g     F .text	000000000000000e              ada__text_io__line
00000000004e48d0 g     F .text	0000000000000023              __gnat_is_writable_file
00000000004dcd10 g     F .text	000000000000002c              system__object_reader__xcoff32_ops__first_symbolXn
00000000004b1690 g     F .text	0000000000000005              _ZN50_$LT$u32$u20$as$u20$core..fmt..num..DisplayInt$GT$7from_u817h0887b52e30dd8f02E
00000000004c8010 g     F .text	0000000000000001              ada__strings__maps__Tcharacter_mappingBIP
0000000000493b90 g     F .text	000000000000002a              _ZN72_$LT$libc..unix..linux_like..in6_rtmsg$u20$as$u20$core..clone..Clone$GT$5clone17h1d77cfc9835d6673E
0000000000455fb0 g     F .text	00000000000000e0              _ZN79_$LT$std..backtrace_rs..symbolize..SymbolName$u20$as$u20$core..fmt..Display$GT$3fmt17h0490e93d392833c5E
00000000004e44b0 g     F .text	0000000000000032              __gnat_readdir
00000000004940c0 g     F .text	000000000000001a              _ZN83_$LT$libc..unix..linux_like..linux..gnu..mallinfo$u20$as$u20$core..clone..Clone$GT$5clone17h7de12f04e292cf45E
0000000000481b30 g     F .text	000000000000005c              _ZN62_$LT$gimli..read..cfi..Pointer$u20$as$u20$core..fmt..Debug$GT$3fmt17h9a4af439e69e29b7E
0000000000449a90 g     F .text	0000000000000093              _ZN63_$LT$std..sys..unix..args..Args$u20$as$u20$core..fmt..Debug$GT$3fmt17h496a1f21f86bbfcaE
00000000004dff60 g     F .text	00000000000006a9              system__dwarf_lines__open
00000000004e8780 g     F .text	0000000000000031              system__io__put_line
0000000000467990 g     F .text	00000000000001dc              _ZN71_$LT$object..pe..ImageRomOptionalHeader$u20$as$u20$core..fmt..Debug$GT$3fmt17hb36aa7b2762db44aE
00000000004b1710 g     F .text	0000000000000004              _ZN52_$LT$usize$u20$as$u20$core..fmt..num..DisplayInt$GT$5to_u817h4dfd8da5476c7b4bE
000000000044c5a0 g     F .text	0000000000000143              _ZN3std3sys4unix2fs15remove_dir_impl14remove_dir_all17h670cfe3c5ed13e72E
000000000044a780 g     F .text	0000000000000004              _ZN108_$LT$std..fs..Permissions$u20$as$u20$std..sys_common..AsInner$LT$std..sys..unix..fs..FilePermissions$GT$$GT$8as_inner17h287e283d9b40a02eE
00000000004a06c0 g     F .text	0000000000000032              _ZN4core4char15CaseMappingIter3new17h4c4b7cd8a8f7eafcE
0000000000495390 g     F .text	000000000000004b              _ZN5alloc5alloc18handle_alloc_error8ct_error17h9cbaa1ede9e31529E
00000000004424b0 g     F .text	0000000000000003              _ZN75_$LT$std..sys..unix..net..Socket$u20$as$u20$std..os..fd..raw..IntoRawFd$GT$11into_raw_fd17ha75cf417f3da62beE
000000000051a0a0 g     O .rodata	0000000000000001              ada__characters__handling__graphic
00000000004edb9c g     O .rodata	0000000000000004              system__stringsB
00000000008007d0 g     O .data	0000000000000014              system__os_lib__current_temp_file_name
000000000043aff0 g     F .text	0000000000000006              _ZN61_$LT$std..net..udp..UdpSocket$u20$as$u20$core..fmt..Debug$GT$3fmt17hd44ffa7ac347430dE
000000000042da00 g     F .text	0000000000000003              _ZN73_$LT$std..os..unix..net..stream..UnixStream$u20$as$u20$std..io..Write$GT$5flush17hc7cfc75f61d64a1bE
00000000004d3690 g     F .text	0000000000000065              system__os_lib__is_directory
00000000005159e0 g     O .rodata	0000000000000013              ada__exceptions__rmsg_32
000000000044ece0 g     F .text	0000000000000033              _ZN3std3sys4unix7process14process_common7Command6stdout17h64bba6a1b9e18f77E
00000000004996b0 g     F .text	0000000000000005              _ZN59_$LT$f32$u20$as$u20$core..num..dec2flt..float..RawFloat$GT$13from_u64_bits17h58108c0a0eb967f5E
00000000004d3e10 g     F .text	0000000000000013              system__os_lib__is_owner_writable_file__2
0000000000452570 g     F .text	0000000000000005              _ZN3std3sys4unix4time8Timespec4zero17h98b9e4d74effe5acE
0000000000000000       F *UND*	0000000000000000              strtol@GLIBC_2.2.5
0000000000800c40  w    O .bss	0000000000000008              environ@GLIBC_2.2.5
0000000000471e60 g     F .text	00000000000000bc              _ZN65_$LT$memchr..memmem..SearcherKind$u20$as$u20$core..fmt..Debug$GT$3fmt17hbdc77299f8d9faffE
000000000043e620 g     F .text	0000000000000003              _ZN113_$LT$std..sys..unix..pipe..AnonPipe$u20$as$u20$std..sys_common..IntoInner$LT$std..sys..unix..fd..FileDesc$GT$$GT$10into_inner17hb7100ff95926273eE
00000000004dd3a0 g     F .text	0000000000000001              system__object_reader__pecoff_ops__optional_header_pe32IPXn
0000000000449b30 g     F .text	000000000000002d              _ZN85_$LT$std..sys..unix..args..Args$u20$as$u20$core..iter..traits..iterator..Iterator$GT$4next17h5a048561847be6abE
000000000043e9a0 g     F .text	0000000000000007              _ZN3std4path12is_separator17hbfc4599b175a54c8E
0000000000493c10 g     F .text	0000000000000022              _ZN70_$LT$libc..unix..linux_like..mmsghdr$u20$as$u20$core..clone..Clone$GT$5clone17h12c4c28d5ff38e33E
0000000000515a10 g     O .rodata	0000000000000013              ada__exceptions__rmsg_34
00000000004d5dd0 g     F .text	0000000000000093              system__os_lib__set_non_writable
